 canvas

 Timestamp is 60a6382c (Thu May 20 10:21:32 2021)

 Preferred load address is 0000000180000000

 Start         Length     Name                   Class
 0001:00000000 00000640H .text                   CODE
 0001:00000640 00001bf0H .text$di                CODE
 0001:00002230 000513e0H .text$mn                CODE
 0001:00053610 00000200H .text$mn$00             CODE
 0001:00053810 000027e0H .text$x                 CODE
 0001:00055ff0 00000248H .text$yd                CODE
 0002:00000000 00000980H .idata$5                DATA
 0002:00000980 00000028H .00cfg                  DATA
 0002:000009a8 00000008H .CRT$XCA                DATA
 0002:000009b0 00000018H .CRT$XCC                DATA
 0002:000009c8 00000010H .CRT$XCL                DATA
 0002:000009d8 00000070H .CRT$XCU                DATA
 0002:00000a48 00000008H .CRT$XCZ                DATA
 0002:00000a50 00000008H .CRT$XIA                DATA
 0002:00000a58 00000028H .CRT$XIC                DATA
 0002:00000a80 00000008H .CRT$XIZ                DATA
 0002:00000a88 00000008H .CRT$XPA                DATA
 0002:00000a90 00000010H .CRT$XPX                DATA
 0002:00000aa0 00000008H .CRT$XPXA               DATA
 0002:00000aa8 00000008H .CRT$XPZ                DATA
 0002:00000ab0 00000008H .CRT$XTA                DATA
 0002:00000ab8 00000008H .CRT$XTZ                DATA
 0002:00000ac0 00000000H .gehcont$y              DATA
 0002:00000ac0 00000000H .gfids$y                DATA
 0002:00000ac0 000115c0H .rdata                  DATA
 0002:00012080 00000000H .rdata$CastGuardVftablesA DATA
 0002:00012080 00000000H .rdata$CastGuardVftablesC DATA
 0002:00012080 0000075cH .rdata$r                DATA
 0002:000127dc 0000043cH .rdata$zzzdbg           DATA
 0002:00012c18 00000008H .rtc$IAA                DATA
 0002:00012c20 00000008H .rtc$IZZ                DATA
 0002:00012c28 00000008H .rtc$TAA                DATA
 0002:00012c30 00000008H .rtc$TZZ                DATA
 0002:00012c38 00005778H .xdata                  DATA
 0002:000183b0 0000037cH .xdata$x                DATA
 0002:0001872c 00000020H .didat$2                DATA
 0002:0001874c 00000024H .didat$3                DATA
 0002:00018770 00000350H .didat$4                DATA
 0002:00018ac0 00001cb0H .didat$6                DATA
 0002:0001a770 00000350H .didat$7                DATA
 0002:0001aac0 00000250H .edata                  DATA
 0002:0001ad10 000000f0H .idata$2                DATA
 0002:0001ae00 00000018H .idata$3                DATA
 0002:0001ae18 00000980H .idata$4                DATA
 0002:0001b798 000019e4H .idata$6                DATA
 0002:0001d17c 000003c8H .idata$7                DATA
 0003:00000000 00000c80H .data                   DATA
 0003:00000c80 00000290H .data$r                 DATA
 0003:00000f10 00000120H .data$rs                DATA
 0003:00001030 00000350H .didat$5                DATA
 0003:00001380 000017bcH .bss                    DATA
 0004:00000000 000038f4H .pdata                  DATA
 0005:00000000 000000f4H _RDATA                  DATA
 0006:00000000 00000060H .rsrc$01                DATA
 0006:00000060 00000180H .rsrc$02                DATA

  Address         Publics by Value              Rva+Base               Lib:Object

 0000:00000000       ___safe_se_handler_table   0000000000000000     <absolute>
 0000:00000000       __guard_longjmp_table      0000000000000000     <absolute>
 0000:00000000       __x64_code_ranges_to_entry_points 0000000000000000     <absolute>
 0000:00000000       __arm64x_redirection_metadata 0000000000000000     <absolute>
 0000:00000000       __guard_iat_table          0000000000000000     <absolute>
 0000:00000000       __guard_fids_count         0000000000000000     <absolute>
 0000:00000000       __arm64x_extra_rfe_table   0000000000000000     <absolute>
 0000:00000000       __guard_iat_count          0000000000000000     <absolute>
 0000:00000000       __guard_longjmp_count      0000000000000000     <absolute>
 0000:00000000       __dynamic_value_reloc_table 0000000000000000     <absolute>
 0000:00000000       __x64_code_ranges_to_entry_points_count 0000000000000000     <absolute>
 0000:00000000       __hybrid_code_map          0000000000000000     <absolute>
 0000:00000000       __hybrid_auxiliary_iat     0000000000000000     <absolute>
 0000:00000000       __volatile_metadata        0000000000000000     <absolute>
 0000:00000000       __arm64x_extra_rfe_table_size 0000000000000000     <absolute>
 0000:00000000       __hybrid_auxiliary_iat_copy 0000000000000000     <absolute>
 0000:00000000       ___safe_se_handler_count   0000000000000000     <absolute>
 0000:00000000       __AbsoluteZero             0000000000000000     <absolute>
 0000:00000000       __guard_check_icall_a64n_fptr 0000000000000000     <absolute>
 0000:00000000       __guard_eh_cont_count      0000000000000000     <absolute>
 0000:00000000       __guard_fids_table         0000000000000000     <absolute>
 0000:00000000       __arm64x_redirection_metadata_count 0000000000000000     <absolute>
 0000:00000000       __enclave_config           0000000000000000     <absolute>
 0000:00000000       __guard_eh_cont_table      0000000000000000     <absolute>
 0000:00000000       __arm64x_native_entrypoint 0000000000000000     <absolute>
 0000:00000000       __hybrid_code_map_count    0000000000000000     <absolute>
 0000:00000100       __guard_flags              0000000000000100     <absolute>
 0000:00000000       __ImageBase                0000000180000000     <linker-defined>
 0001:00000000       cairo_surface_destroy      0000000180001000     libcairo-2:dgjcs01146.o
 0001:00000008       cairo_status_to_string     0000000180001008     libcairo-2:dgjcs01137.o
 0001:00000010       cairo_surface_status       0000000180001010     libcairo-2:dgjcs01179.o
 0001:00000018       cairo_image_surface_create 0000000180001018     libcairo-2:dgjcs00939.o
 0001:00000020       cairo_image_surface_get_stride 0000000180001020     libcairo-2:dgjcs00946.o
 0001:00000028       cairo_surface_finish       0000000180001028     libcairo-2:dgjcs01147.o
 0001:00000030       cairo_image_surface_get_data 0000000180001030     libcairo-2:dgjcs00943.o
 0001:00000038       cairo_pdf_surface_set_size 0000000180001038     libcairo-2:dgjcs01021.o
 0001:00000040       cairo_pdf_surface_create_for_stream 0000000180001040     libcairo-2:dgjcs01017.o
 0001:00000048       cairo_svg_surface_create_for_stream 0000000180001048     libcairo-2:dgjcs01186.o
 0001:00000050       cairo_image_surface_get_format 0000000180001050     libcairo-2:dgjcs00944.o
 0001:00000058       cairo_destroy              0000000180001058     libcairo-2:dgjcs00854.o
 0001:00000060       cairo_image_surface_get_height 0000000180001060     libcairo-2:dgjcs00945.o
 0001:00000068       cairo_surface_flush        0000000180001068     libcairo-2:dgjcs01148.o
 0001:00000070       cairo_pdf_surface_set_metadata 0000000180001070     libcairo-2:dgjcs01019.o
 0001:00000078       cairo_set_line_width       0000000180001078     libcairo-2:dgjcs01121.o
 0001:00000080       cairo_image_surface_get_width 0000000180001080     libcairo-2:dgjcs00947.o
 0001:00000088       cairo_create               0000000180001088     libcairo-2:dgjcs00851.o
 0001:00000090       cairo_pattern_add_color_stop_rgba 0000000180001090     libcairo-2:dgjcs00987.o
 0001:00000098       cairo_pattern_create_radial 0000000180001098     libcairo-2:dgjcs00991.o
 0001:000000a0       cairo_pattern_create_linear 00000001800010a0     libcairo-2:dgjcs00989.o
 0001:000000a8       cairo_pattern_destroy      00000001800010a8     libcairo-2:dgjcs00995.o
 0001:000000b0       cairo_pattern_set_user_data 00000001800010b0     libcairo-2:dgjcs01012.o
 0001:000000b8       cairo_pattern_get_user_data 00000001800010b8     libcairo-2:dgjcs01007.o
 0001:000000c0       cairo_pattern_create_for_surface 00000001800010c0     libcairo-2:dgjcs00988.o
 0001:000000c8       cairo_path_destroy         00000001800010c8     libcairo-2:dgjcs00984.o
 0001:000000d0       cairo_in_fill              00000001800010d0     libcairo-2:dgjcs00949.o
 0001:000000d8       cairo_set_operator         00000001800010d8     libcairo-2:dgjcs01124.o
 0001:000000e0       cairo_pattern_get_linear_points 00000001800010e0     libcairo-2:dgjcs01000.o
 0001:000000e8       cairo_surface_mark_dirty_rectangle 00000001800010e8     libcairo-2:dgjcs01162.o
 0001:000000f0       cairo_save                 00000001800010f0     libcairo-2:dgjcs01084.o
 0001:000000f8       cairo_get_matrix           00000001800010f8     libcairo-2:dgjcs00924.o
 0001:00000100       cairo_arc_negative         0000000180001100     libcairo-2:dgjcs00842.o
 0001:00000108       cairo_stroke_preserve      0000000180001108     libcairo-2:dgjcs01140.o
 0001:00000110       cairo_rectangle            0000000180001110     libcairo-2:dgjcs01052.o
 0001:00000118       cairo_set_line_join        0000000180001118     libcairo-2:dgjcs01120.o
 0001:00000120       cairo_pattern_get_filter   0000000180001120     libcairo-2:dgjcs00999.o
 0001:00000128       cairo_set_source_surface   0000000180001128     libcairo-2:dgjcs01129.o
 0001:00000130       cairo_status               0000000180001130     libcairo-2:dgjcs01136.o
 0001:00000138       cairo_fill                 0000000180001138     libcairo-2:dgjcs00875.o
 0001:00000140       cairo_set_line_cap         0000000180001140     libcairo-2:dgjcs01119.o
 0001:00000148       cairo_get_source           0000000180001148     libcairo-2:dgjcs00929.o
 0001:00000150       cairo_mask_surface         0000000180001150     libcairo-2:dgjcs00954.o
 0001:00000158       cairo_pattern_set_filter   0000000180001158     libcairo-2:dgjcs01010.o
 0001:00000160       cairo_fill_extents         0000000180001160     libcairo-2:dgjcs00876.o
 0001:00000168       cairo_show_page            0000000180001168     libcairo-2:dgjcs01133.o
 0001:00000170       cairo_restore              0000000180001170     libcairo-2:dgjcs01082.o
 0001:00000178       cairo_line_to              0000000180001178     libcairo-2:dgjcs00951.o
 0001:00000180       cairo_set_fill_rule        0000000180001180     libcairo-2:dgjcs01114.o
 0001:00000188       cairo_paint                0000000180001188     libcairo-2:dgjcs00982.o
 0001:00000190       cairo_push_group           0000000180001190     libcairo-2:dgjcs01037.o
 0001:00000198       cairo_stroke               0000000180001198     libcairo-2:dgjcs01138.o
 0001:000001a0       cairo_move_to              00000001800011a0     libcairo-2:dgjcs00979.o
 0001:000001a8       cairo_get_line_cap         00000001800011a8     libcairo-2:dgjcs00921.o
 0001:000001b0       cairo_pattern_set_extend   00000001800011b0     libcairo-2:dgjcs01009.o
 0001:000001b8       cairo_get_operator         00000001800011b8     libcairo-2:dgjcs00926.o
 0001:000001c0       cairo_get_antialias        00000001800011c0     libcairo-2:dgjcs00912.o
 0001:000001c8       cairo_set_source_rgba      00000001800011c8     libcairo-2:dgjcs01128.o
 0001:000001d0       cairo_copy_path_flat       00000001800011d0     libcairo-2:dgjcs00850.o
 0001:000001d8       cairo_set_source           00000001800011d8     libcairo-2:dgjcs01126.o
 0001:000001e0       cairo_scale                00000001800011e0     libcairo-2:dgjcs01085.o
 0001:000001e8       cairo_user_to_device_distance 00000001800011e8     libcairo-2:dgjcs01217.o
 0001:000001f0       cairo_pattern_get_color_stop_count 00000001800011f0     libcairo-2:dgjcs00996.o
 0001:000001f8       cairo_set_matrix           00000001800011f8     libcairo-2:dgjcs01122.o
 0001:00000200       cairo_surface_mark_dirty   0000000180001200     libcairo-2:dgjcs01161.o
 0001:00000208       cairo_fill_preserve        0000000180001208     libcairo-2:dgjcs00877.o
 0001:00000210       cairo_pattern_get_surface  0000000180001210     libcairo-2:dgjcs01005.o
 0001:00000218       cairo_rotate               0000000180001218     libcairo-2:dgjcs01083.o
 0001:00000220       cairo_stroke_extents       0000000180001220     libcairo-2:dgjcs01139.o
 0001:00000228       cairo_matrix_init          0000000180001228     libcairo-2:dgjcs00955.o
 0001:00000230       cairo_pop_group_to_source  0000000180001230     libcairo-2:dgjcs01025.o
 0001:00000238       cairo_get_dash             0000000180001238     libcairo-2:dgjcs00914.o
 0001:00000240       cairo_get_miter_limit      0000000180001240     libcairo-2:dgjcs00925.o
 0001:00000248       cairo_pattern_get_color_stop_rgba 0000000180001248     libcairo-2:dgjcs00997.o
 0001:00000250       cairo_append_path          0000000180001250     libcairo-2:dgjcs00840.o
 0001:00000258       cairo_new_path             0000000180001258     libcairo-2:dgjcs00980.o
 0001:00000260       cairo_identity_matrix      0000000180001260     libcairo-2:dgjcs00938.o
 0001:00000268       cairo_get_line_join        0000000180001268     libcairo-2:dgjcs00922.o
 0001:00000270       cairo_in_stroke            0000000180001270     libcairo-2:dgjcs00950.o
 0001:00000278       cairo_paint_with_alpha     0000000180001278     libcairo-2:dgjcs00983.o
 0001:00000280       cairo_set_antialias        0000000180001280     libcairo-2:dgjcs01112.o
 0001:00000288       cairo_get_dash_count       0000000180001288     libcairo-2:dgjcs00915.o
 0001:00000290       cairo_set_dash             0000000180001290     libcairo-2:dgjcs01113.o
 0001:00000298       cairo_transform            0000000180001298     libcairo-2:dgjcs01205.o
 0001:000002a0       cairo_close_path           00000001800012a0     libcairo-2:dgjcs00846.o
 0001:000002a8       cairo_arc                  00000001800012a8     libcairo-2:dgjcs00841.o
 0001:000002b0       cairo_get_line_width       00000001800012b0     libcairo-2:dgjcs00923.o
 0001:000002b8       cairo_pattern_get_type     00000001800012b8     libcairo-2:dgjcs01006.o
 0001:000002c0       cairo_clip_preserve        00000001800012c0     libcairo-2:dgjcs00845.o
 0001:000002c8       cairo_set_miter_limit      00000001800012c8     libcairo-2:dgjcs01123.o
 0001:000002d0       cairo_get_current_point    00000001800012d0     libcairo-2:dgjcs00913.o
 0001:000002d8       cairo_translate            00000001800012d8     libcairo-2:dgjcs01206.o
 0001:000002e0       cairo_pattern_get_radial_circles 00000001800012e0     libcairo-2:dgjcs01002.o
 0001:000002e8       cairo_curve_to             00000001800012e8     libcairo-2:dgjcs00852.o
 0001:000002f0       cairo_format_stride_for_width 00000001800012f0     libcairo-2:dgjcs00903.o
 0001:000002f8       cairo_image_surface_create_from_png 00000001800012f8     libcairo-2:dgjcs00941.o
 0001:00000300       cairo_image_surface_create_from_png_stream 0000000180001300     libcairo-2:dgjcs00942.o
 0001:00000308       cairo_image_surface_create_for_data 0000000180001308     libcairo-2:dgjcs00940.o
 0001:00000310       cairo_surface_set_mime_data 0000000180001310     libcairo-2:dgjcs01176.o
 0001:00000318       cairo_version_string       0000000180001318     libcairo-2:dgjcs01219.o
 0001:00000320       png_destroy_write_struct   0000000180001320     libpng16-16:dwpes00019.o
 0001:00000328       png_set_bKGD               0000000180001328     libpng16-16:dwpes00155.o
 0001:00000330       png_set_write_user_transform_fn 0000000180001330     libpng16-16:dwpes00247.o
 0001:00000338       png_set_tRNS               0000000180001338     libpng16-16:dwpes00233.o
 0001:00000340       png_set_pHYs               0000000180001340     libpng16-16:dwpes00204.o
 0001:00000348       png_set_longjmp_fn         0000000180001348     libpng16-16:dwpes00198.o
 0001:00000350       png_malloc                 0000000180001350     libpng16-16:dwpes00129.o
 0001:00000358       png_get_io_ptr             0000000180001358     libpng16-16:dwpes00058.o
 0001:00000360       png_write_info             0000000180001360     libpng16-16:dwpes00260.o
 0001:00000368       png_set_packswap           0000000180001368     libpng16-16:dwpes00206.o
 0001:00000370       png_write_image            0000000180001370     libpng16-16:dwpes00259.o
 0001:00000378       png_get_error_ptr          0000000180001378     libpng16-16:dwpes00044.o
 0001:00000380       png_set_packing            0000000180001380     libpng16-16:dwpes00205.o
 0001:00000388       png_set_PLTE               0000000180001388     libpng16-16:dwpes00150.o
 0001:00000390       png_set_filter             0000000180001390     libpng16-16:dwpes00181.o
 0001:00000398       png_data_freer             0000000180001398     libpng16-16:dwpes00016.o
 0001:000003a0       png_set_compression_level  00000001800013a0     libpng16-16:dwpes00168.o
 0001:000003a8       png_set_IHDR               00000001800013a8     libpng16-16:dwpes00149.o
 0001:000003b0       png_set_write_fn           00000001800013b0     libpng16-16:dwpes00245.o
 0001:000003b8       png_create_info_struct     00000001800013b8     libpng16-16:dwpes00011.o
 0001:000003c0       png_set_filler             00000001800013c0     libpng16-16:dwpes00180.o
 0001:000003c8       png_write_end              00000001800013c8     libpng16-16:dwpes00255.o
 0001:000003d0       png_error                  00000001800013d0     libpng16-16:dwpes00020.o
 0001:000003d8       png_create_write_struct_2  00000001800013d8     libpng16-16:dwpes00015.o
 0001:000003e0       jpeg_simple_progression    00000001800013e0     libjpeg-8:dqkks00091.o
 0001:000003e8       jpeg_set_quality           00000001800013e8     libjpeg-8:dqkks00090.o
 0001:000003f0       jpeg_CreateCompress        00000001800013f0     libjpeg-8:dqkks00029.o
 0001:000003f8       jpeg_std_error             00000001800013f8     libjpeg-8:dqkks00096.o
 0001:00000400       jpeg_destroy_compress      0000000180001400     libjpeg-8:dqkks00046.o
 0001:00000408       jpeg_set_defaults          0000000180001408     libjpeg-8:dqkks00087.o
 0001:00000410       jpeg_finish_compress       0000000180001410     libjpeg-8:dqkks00052.o
 0001:00000418       jpeg_write_scanlines       0000000180001418     libjpeg-8:dqkks00106.o
 0001:00000420       jpeg_start_compress        0000000180001420     libjpeg-8:dqkks00093.o
 0001:00000428       jpeg_CreateDecompress      0000000180001428     libjpeg-8:dqkks00030.o
 0001:00000430       jpeg_destroy_decompress    0000000180001430     libjpeg-8:dqkks00047.o
 0001:00000438       jpeg_read_header           0000000180001438     libjpeg-8:dqkks00080.o
 0001:00000440       jpeg_start_decompress      0000000180001440     libjpeg-8:dqkks00094.o
 0001:00000448       jpeg_stdio_src             0000000180001448     libjpeg-8:dqkks00098.o
 0001:00000450       jpeg_finish_decompress     0000000180001450     libjpeg-8:dqkks00053.o
 0001:00000458       jpeg_abort_decompress      0000000180001458     libjpeg-8:dqkks00033.o
 0001:00000460       jpeg_mem_src               0000000180001460     libjpeg-8:dqkks00074.o
 0001:00000468       jpeg_read_scanlines        0000000180001468     libjpeg-8:dqkks00083.o
 0001:00000470       pango_font_description_better_match 0000000180001470     libpango-1.0-0:dsris00121.o
 0001:00000478       pango_font_description_set_style 0000000180001478     libpango-1.0-0:dsris00148.o
 0001:00000480       pango_font_description_set_weight 0000000180001480     libpango-1.0-0:dsris00152.o
 0001:00000488       pango_font_description_equal 0000000180001488     libpango-1.0-0:dsris00124.o
 0001:00000490       pango_font_description_new 0000000180001490     libpango-1.0-0:dsris00141.o
 0001:00000498       pango_font_description_free 0000000180001498     libpango-1.0-0:dsris00125.o
 0001:000004a0       pango_font_description_get_family 00000001800014a0     libpango-1.0-0:dsris00127.o
 0001:000004a8       pango_font_description_set_family 00000001800014a8     libpango-1.0-0:dsris00143.o
 0001:000004b0       pango_font_description_copy 00000001800014b0     libpango-1.0-0:dsris00122.o
 0001:000004b8       pango_layout_get_font_description 00000001800014b8     libpango-1.0-0:dsris00275.o
 0001:000004c0       pango_context_get_metrics  00000001800014c0     libpango-1.0-0:dsris00082.o
 0001:000004c8       pango_layout_set_font_description 00000001800014c8     libpango-1.0-0:dsris00340.o
 0001:000004d0       pango_layout_get_context   00000001800014d0     libpango-1.0-0:dsris00270.o
 0001:000004d8       pango_layout_get_extents   00000001800014d8     libpango-1.0-0:dsris00274.o
 0001:000004e0       pango_layout_line_get_extents 00000001800014e0     libpango-1.0-0:dsris00325.o
 0001:000004e8       pango_font_description_from_string 00000001800014e8     libpango-1.0-0:dsris00126.o
 0001:000004f0       pango_layout_get_pixel_extents 00000001800014f0     libpango-1.0-0:dsris00288.o
 0001:000004f8       pango_font_description_set_absolute_size 00000001800014f8     libpango-1.0-0:dsris00142.o
 0001:00000500       pango_context_get_language 0000000180001500     libpango-1.0-0:dsris00080.o
 0001:00000508       pango_font_metrics_unref   0000000180001508     libpango-1.0-0:dsris00201.o
 0001:00000510       pango_layout_get_baseline  0000000180001510     libpango-1.0-0:dsris00268.o
 0001:00000518       pango_layout_set_text      0000000180001518     libpango-1.0-0:dsris00350.o
 0001:00000520       pango_layout_get_line      0000000180001520     libpango-1.0-0:dsris00280.o
 0001:00000528       pango_font_metrics_get_ascent 0000000180001528     libpango-1.0-0:dsris00191.o
 0001:00000530       pango_font_description_set_stretch 0000000180001530     libpango-1.0-0:dsris00147.o
 0001:00000538       pango_font_description_set_family_static 0000000180001538     libpango-1.0-0:dsris00144.o
 0001:00000540       pango_cairo_show_layout    0000000180001540     libpangocairo-1.0-0:dsxbs00029.o
 0001:00000548       pango_cairo_update_layout  0000000180001548     libpangocairo-1.0-0:dsxbs00032.o
 0001:00000550       pango_cairo_layout_path    0000000180001550     libpangocairo-1.0-0:dsxbs00024.o
 0001:00000558       pango_cairo_create_layout  0000000180001558     libpangocairo-1.0-0:dsxbs00007.o
 0001:00000560       pango_cairo_font_map_set_default 0000000180001560     libpangocairo-1.0-0:dsxbs00020.o
 0001:00000570       g_object_unref             0000000180001570     libgobject-2.0-0:dauhs00164.o
 0001:00000580       g_free                     0000000180001580     libglib-2.0-0:diogs00427.o
 0001:00000588       g_strdup                   0000000180001588     libglib-2.0-0:diogs01266.o
 0001:00000590       g_list_foreach             0000000180001590     libglib-2.0-0:diogs00646.o
 0001:00000598       g_list_first               0000000180001598     libglib-2.0-0:diogs00645.o
 0001:000005a0       g_iconv_open               00000001800015a0     libglib-2.0-0:diogs00528.o
 0001:000005a8       g_iconv                    00000001800015a8     libglib-2.0-0:diogs00526.o
 0001:000005b0       g_list_insert_sorted       00000001800015b0     libglib-2.0-0:diogs00654.o
 0001:000005b8       g_list_free                00000001800015b8     libglib-2.0-0:diogs00647.o
 0001:000005c0       DGifOpen                   00000001800015c0     libgif-7:dykbs00014.o
 0001:000005c8       DGifSlurp                  00000001800015c8     libgif-7:dykbs00018.o
 0001:000005d0       DGifCloseFile              00000001800015d0     libgif-7:dykbs00000.o
 0001:000005e0       FT_Get_Sfnt_Table          00000001800015e0     libfreetype-6:dmmks00091.o
 0001:000005e8       FT_New_Face                00000001800015e8     libfreetype-6:dmmks00131.o
 0001:000005f0       FT_Done_FreeType           00000001800015f0     libfreetype-6:dmmks00035.o
 0001:000005f8       FT_Done_Face               00000001800015f8     libfreetype-6:dmmks00034.o
 0001:00000600       FT_Get_Sfnt_Name_Count     0000000180001600     libfreetype-6:dmmks00090.o
 0001:00000608       FT_Init_FreeType           0000000180001608     libfreetype-6:dmmks00112.o
 0001:00000610       FT_Get_Sfnt_Name           0000000180001610     libfreetype-6:dmmks00089.o
 0001:00000620       rsvg_handle_render_cairo   0000000180001620     librsvg-2-2:dewds00034.o
 0001:00000628       rsvg_handle_new_from_data  0000000180001628     librsvg-2-2:dewds00028.o
 0001:00000630       rsvg_handle_get_dimensions 0000000180001630     librsvg-2-2:dewds00014.o
 0001:00002230       ?what@exception@stdext@@UEBAPEBDXZ 0000000180003230 f i Backend.obj
 0001:00002250       ?_Raise@exception@stdext@@QEBAXXZ 0000000180003250 f i Backend.obj
 0001:00002290       ?stream_pdf_free@@YAXPEADPEAX@Z 0000000180003290 f i Canvas.obj
 0001:00002290       ?_Unlock@?$basic_streambuf@DU?$char_traits@D@std@@@std@@UEAAXXZ 0000000180003290 f i Canvas.obj
 0001:00002290       _guard_check_icall_nop     0000000180003290 f i LIBCMT:guard_support.obj
 0001:00002290       ?imbue@?$basic_streambuf@DU?$char_traits@D@std@@@std@@MEAAXAEBVlocale@2@@Z 0000000180003290 f i Canvas.obj
 0001:00002290       ?_Lock@?$basic_streambuf@DU?$char_traits@D@std@@@std@@UEAAXXZ 0000000180003290 f i Canvas.obj
 0001:00002290       ?init_closure_destination@@YAXPEAUjpeg_compress_struct@@@Z 0000000180003290 f i Canvas.obj
 0001:00002290       ?_Doraise@exception@stdext@@MEBAXXZ 0000000180003290 f i Backend.obj
 0001:000022a0       ??_Gexception@stdext@@UEAAPEAXI@Z 00000001800032a0 f i Backend.obj
 0001:000022a0       ??_Gbad_array_new_length@stdext@@UEAAPEAXI@Z 00000001800032a0 f i Backend.obj
 0001:000022a0       ??_Eexception@stdext@@UEAAPEAXI@Z 00000001800032a0 f i * CIL library *:* CIL module *
 0001:000022a0       ??_Eruntime_error@std@@UEAAPEAXI@Z 00000001800032a0 f i * CIL library *:* CIL module *
 0001:000022a0       ??_Gruntime_error@std@@UEAAPEAXI@Z 00000001800032a0 f i Canvas.obj
 0001:000022a0       ??_Ebad_array_new_length@stdext@@UEAAPEAXI@Z 00000001800032a0 f i * CIL library *:* CIL module *
 0001:000022d0       ?_Doraise@failure@ios_base@std@@MEBAXXZ 00000001800032d0 f i Canvas.obj
 0001:000022d0       ?_Doraise@system_error@std@@MEBAXXZ 00000001800032d0 f i Canvas.obj
 0001:000022d0       ?_Doraise@bad_alloc@stdext@@MEBAXXZ 00000001800032d0 f i Backend.obj
 0001:000022d0       ?_Doraise@runtime_error@std@@MEBAXXZ 00000001800032d0 f i Canvas.obj
 0001:000022f0       ??0bad_array_new_length@stdext@@QEAA@XZ 00000001800032f0 f i Backend.obj
 0001:00002310       ??1bad_array_new_length@stdext@@UEAA@XZ 0000000180003310 f i Backend.obj
 0001:00002310       ??1failure@ios_base@std@@UEAA@XZ 0000000180003310 f i Canvas.obj
 0001:00002310       ??1runtime_error@std@@UEAA@XZ 0000000180003310 f i Canvas.obj
 0001:00002320       ?_Throw_bad_array_new_length@std@@YAXXZ 0000000180003320 f i Backend.obj
 0001:00002340       ?_Xlen_string@std@@YAXXZ   0000000180003340 f i Backend.obj
 0001:00002360       ??1ObjectWrap@Nan@@UEAA@XZ 0000000180003360 f i Backend.obj
 0001:000023a0       ?Wrap@ObjectWrap@Nan@@IEAAXV?$Local@VObject@v8@@@v8@@@Z 00000001800033a0 f i Backend.obj
 0001:00002470       ?Ref@ObjectWrap@Nan@@MEAAXXZ 0000000180003470 f i Backend.obj
 0001:000024b0       ?Unref@ObjectWrap@Nan@@MEAAXXZ 00000001800034b0 f i Backend.obj
 0001:00002560       ?WeakCallback@ObjectWrap@Nan@@CAXAEBV?$WeakCallbackInfo@VObjectWrap@Nan@@@v8@@@Z 0000000180003560 f i Backend.obj
 0001:000025c0       ??_GObjectWrap@Nan@@UEAAPEAXI@Z 00000001800035c0 f i Backend.obj
 0001:000025c0       ??_EObjectWrap@Nan@@UEAAPEAXI@Z 00000001800035c0 f i * CIL library *:* CIL module *
 0001:00002620       ?getFormat@Backend@@UEAA?AW4_cairo_format@@XZ 0000000180003620 f i Backend.obj
 0001:00002620       ?underflow@?$basic_streambuf@DU?$char_traits@D@std@@@std@@MEAAHXZ 0000000180003620 f i Canvas.obj
 0001:00002620       ?overflow@?$basic_streambuf@DU?$char_traits@D@std@@@std@@MEAAHH@Z 0000000180003620 f i Canvas.obj
 0001:00002620       ?pbackfail@?$basic_streambuf@DU?$char_traits@D@std@@@std@@MEAAHH@Z 0000000180003620 f i Canvas.obj
 0001:00002630       ??0Backend@@IEAA@V?$basic_string@DU?$char_traits@D@std@@V?$allocator@D@2@@std@@HH@Z 0000000180003630 f   Backend.obj
 0001:00002710       ??_EBackend@@UEAAPEAXI@Z   0000000180003710 f i * CIL library *:* CIL module *
 0001:00002710       ??_GBackend@@UEAAPEAXI@Z   0000000180003710 f i Backend.obj
 0001:00002750       ??1Backend@@UEAA@XZ        0000000180003750 f   Backend.obj
 0001:00002810       ?init@Backend@@KAXAEBV?$FunctionCallbackInfo@VValue@v8@@@Nan@@@Z 0000000180003810 f   Backend.obj
 0001:00002980       ?recreateSurface@Backend@@UEAAPEAU_cairo_surface@@XZ 0000000180003980 f   Backend.obj
 0001:000029a0       ?getSurface@Backend@@QEAAPEAU_cairo_surface@@XZ 00000001800039a0 f   Backend.obj
 0001:000029d0       ?destroySurface@Backend@@UEAAXXZ 00000001800039d0 f   Backend.obj
 0001:00002a00       ?getName@Backend@@QEAA?AV?$basic_string@DU?$char_traits@D@std@@V?$allocator@D@2@@std@@XZ 0000000180003a00 f   Backend.obj
 0001:00002a20       ?getWidth@Backend@@QEAAHXZ 0000000180003a20 f   Backend.obj
 0001:00002a30       ?setWidth@Backend@@UEAAXH@Z 0000000180003a30 f   Backend.obj
 0001:00002a40       ?getHeight@Backend@@QEAAHXZ 0000000180003a40 f   Backend.obj
 0001:00002a50       ?setHeight@Backend@@UEAAXH@Z 0000000180003a50 f   Backend.obj
 0001:00002a60       ??1?$pair@$$CBV?$basic_string@DU?$char_traits@D@std@@V?$allocator@D@2@@std@@W4_cairo_operator@@@std@@QEAA@XZ 0000000180003a60 f i CanvasRenderingContext2d.obj
 0001:00002a60       ?_Tidy_deallocate@?$basic_string@DU?$char_traits@D@std@@V?$allocator@D@2@@std@@AEAAXXZ 0000000180003a60 f i Backend.obj
 0001:00002a60       ??1?$basic_string@DU?$char_traits@D@std@@V?$allocator@D@2@@std@@QEAA@XZ 0000000180003a60 f i Backend.obj
 0001:00002a60       ??1?$pair@$$CBV?$basic_string@DU?$char_traits@D@std@@V?$allocator@D@2@@std@@H@std@@QEAA@XZ 0000000180003a60 f i CanvasRenderingContext2d.obj
 0001:00002a60       ??1?$pair@$$CBV?$basic_string@DU?$char_traits@D@std@@V?$allocator@D@2@@std@@I@std@@QEAA@XZ 0000000180003a60 f i color.obj
 0001:00002ac0       ??0?$basic_string@DU?$char_traits@D@std@@V?$allocator@D@2@@std@@QEAA@AEBV01@@Z 0000000180003ac0 f i Backend.obj
 0001:00002ba0       ??$?HDU?$char_traits@D@std@@V?$allocator@D@1@@std@@YA?AV?$basic_string@DU?$char_traits@D@std@@V?$allocator@D@2@@0@QEBDAEBV10@@Z 0000000180003ba0 f i Backend.obj
 0001:00002c10       ??$?HDU?$char_traits@D@std@@V?$allocator@D@1@@std@@YA?AV?$basic_string@DU?$char_traits@D@std@@V?$allocator@D@2@@0@$$QEAV10@QEBD@Z 0000000180003c10 f i Backend.obj
 0001:00002c70       ??0?$basic_string@DU?$char_traits@D@std@@V?$allocator@D@2@@std@@QEAA@U_String_constructor_concat_tag@1@AEBV01@QEBD_K23@Z 0000000180003c70 f i Backend.obj
 0001:00002d90       ?append@?$basic_string@DU?$char_traits@D@std@@V?$allocator@D@2@@std@@QEAAAEAV12@QEBD_K@Z 0000000180003d90 f i Backend.obj
 0001:00002e10       ??$_Reallocate_grow_by@V<lambda_65e615be2a453ca0576c979606f46740>@@PEBD_K@?$basic_string@DU?$char_traits@D@std@@V?$allocator@D@2@@std@@AEAAAEAV01@_KV<lambda_65e615be2a453ca0576c979606f46740>@@PEBD_K@Z 0000000180003e10 f i Backend.obj
 0001:00003080       ?New@?$Factory@VFunctionTemplate@v8@@@imp@Nan@@SA?AV?$Local@VFunctionTemplate@v8@@@v8@@P6AXAEBV?$FunctionCallbackInfo@VValue@v8@@@3@@ZV?$Local@VValue@v8@@@5@V?$Local@VSignature@v8@@@5@@Z 0000000180004080 f i ImageBackend.obj
 0001:00003240       ?AdjustExternalMemory@Nan@@YAHH@Z 0000000180004240 f i ImageBackend.obj
 0001:000032c0       ??1EscapableHandleScope@Nan@@QEAA@XZ 00000001800042c0 f i Canvas.obj
 0001:000032c0       ??1HandleScope@Nan@@QEAA@XZ 00000001800042c0 f i ImageBackend.obj
 0001:000032d0       ??0ImageBackend@@QEAA@HH@Z 00000001800042d0 f   ImageBackend.obj
 0001:00003350       ??_GImageBackend@@UEAAPEAXI@Z 0000000180004350 f i ImageBackend.obj
 0001:00003350       ??_EImageBackend@@UEAAPEAXI@Z 0000000180004350 f i * CIL library *:* CIL module *
 0001:00003390       ?createSurface@ImageBackend@@EEAAPEAU_cairo_surface@@XZ 0000000180004390 f   ImageBackend.obj
 0001:00003440       ?destroySurface@ImageBackend@@EEAAXXZ 0000000180004440 f   ImageBackend.obj
 0001:000034b0       ?getFormat@ImageBackend@@UEAA?AW4_cairo_format@@XZ 00000001800044b0 f   ImageBackend.obj
 0001:000034c0       ?Initialize@ImageBackend@@SAXV?$Local@VObject@v8@@@v8@@@Z 00000001800044c0 f   ImageBackend.obj
 0001:000036d0       ?New@ImageBackend@@SAXAEBV?$FunctionCallbackInfo@VValue@v8@@@Nan@@@Z 00000001800046d0 f   ImageBackend.obj
 0001:000036d0       ?New@SvgBackend@@SAXAEBV?$FunctionCallbackInfo@VValue@v8@@@Nan@@@Z 00000001800046d0 f   SvgBackend.obj
 0001:000036d0       ?New@PdfBackend@@SAXAEBV?$FunctionCallbackInfo@VValue@v8@@@Nan@@@Z 00000001800046d0 f   PdfBackend.obj
 0001:000036e0       ??0?$basic_string@DU?$char_traits@D@std@@V?$allocator@D@2@@std@@QEAA@QEBD@Z 00000001800046e0 f i ImageBackend.obj
 0001:00003720       ?assign@?$basic_string@DU?$char_traits@D@std@@V?$allocator@D@2@@std@@QEAAAEAV12@QEBD_K@Z 0000000180004720 f i ImageBackend.obj
 0001:00003880       ?backend@Canvas@@QEAAPEAVBackend@@XZ 0000000180004880 f i PdfBackend.obj
 0001:00003890       ?surface@Canvas@@QEAAPEAU_cairo_surface@@XZ 0000000180004890 f i PdfBackend.obj
 0001:000038c0       ?data@Canvas@@QEAAPEAEXZ   00000001800048c0 f i PdfBackend.obj
 0001:000038f0       ?stride@Canvas@@QEAAHXZ    00000001800048f0 f i PdfBackend.obj
 0001:00003920       ?nBytes@Canvas@@QEAA_KXZ   0000000180004920 f i PdfBackend.obj
 0001:00003960       ?getWidth@Canvas@@QEAAHXZ  0000000180004960 f i PdfBackend.obj
 0001:00003970       ?getHeight@Canvas@@QEAAHXZ 0000000180004970 f i PdfBackend.obj
 0001:00003980       ?writeVec@Closure@@SA?AW4_cairo_status@@PEAXPEBEI@Z 0000000180004980 f i PdfBackend.obj
 0001:000039b0       ??1Closure@@QEAA@XZ        00000001800049b0 f i PdfBackend.obj
 0001:00003a30       ??0PdfBackend@@QEAA@HH@Z   0000000180004a30 f   PdfBackend.obj
 0001:00003b00       ??_EPdfBackend@@UEAAPEAXI@Z 0000000180004b00 f i * CIL library *:* CIL module *
 0001:00003b00       ??_GPdfBackend@@UEAAPEAXI@Z 0000000180004b00 f i PdfBackend.obj
 0001:00003b90       ?createSurface@PdfBackend@@EEAAPEAU_cairo_surface@@XZ 0000000180004b90 f   PdfBackend.obj
 0001:00003c00       ?recreateSurface@PdfBackend@@EEAAPEAU_cairo_surface@@XZ 0000000180004c00 f   PdfBackend.obj
 0001:00003c30       ?Initialize@PdfBackend@@SAXV?$Local@VObject@v8@@@v8@@@Z 0000000180004c30 f   PdfBackend.obj
 0001:00003e40       ??$_Insert_range@PEBE@?$vector@EV?$allocator@E@std@@@std@@AEAAXV?$_Vector_const_iterator@V?$_Vector_val@U?$_Simple_types@E@std@@@std@@@1@PEBE1Uforward_iterator_tag@1@@Z 0000000180004e40 f i PdfBackend.obj
 0001:00004040       ?_Xlength@?$vector@NV?$allocator@N@std@@@std@@CAXXZ 0000000180005040 f i CanvasRenderingContext2d.obj
 0001:00004040       ?_Xlength@?$vector@VFontFace@@V?$allocator@VFontFace@@@std@@@std@@CAXXZ 0000000180005040 f i Canvas.obj
 0001:00004040       ?_Xlength@?$vector@EV?$allocator@E@std@@@std@@CAXXZ 0000000180005040 f i PdfBackend.obj
 0001:00004060       ?_Change_array@?$vector@EV?$allocator@E@std@@@std@@AEAAXQEAE_K1@Z 0000000180005060 f i PdfBackend.obj
 0001:000040f0       ??0SvgBackend@@QEAA@HH@Z   00000001800050f0 f   SvgBackend.obj
 0001:000041c0       ??_GSvgBackend@@UEAAPEAXI@Z 00000001800051c0 f i SvgBackend.obj
 0001:000041c0       ??_ESvgBackend@@UEAAPEAXI@Z 00000001800051c0 f i * CIL library *:* CIL module *
 0001:00004260       ?createSurface@SvgBackend@@EEAAPEAU_cairo_surface@@XZ 0000000180005260 f   SvgBackend.obj
 0001:000042f0       ?recreateSurface@SvgBackend@@EEAAPEAU_cairo_surface@@XZ 00000001800052f0 f   SvgBackend.obj
 0001:00004350       ?Initialize@SvgBackend@@SAXV?$Local@VObject@v8@@@v8@@@Z 0000000180005350 f   SvgBackend.obj
 0001:00004560       ??1Parser@BMPParser@@QEAA@XZ 0000000180005560 f   BMPParser.obj
 0001:00004630       ?parse@Parser@BMPParser@@QEAAXPEAEH0@Z 0000000180005630 f   BMPParser.obj
 0001:00007090       ?getErrMsg@Parser@BMPParser@@QEBA?AV?$basic_string@DU?$char_traits@D@std@@V?$allocator@D@2@@std@@XZ 0000000180008090 f   BMPParser.obj
 0001:00007330       ?getStr@Parser@BMPParser@@AEAA?AV?$basic_string@DU?$char_traits@D@std@@V?$allocator@D@2@@std@@H_N@Z 0000000180008330 f   BMPParser.obj
 0001:00007610       ?skip@Parser@BMPParser@@AEAAXH@Z 0000000180008610 f i BMPParser.obj
 0001:00007730       ?calcMaskShift@Parser@BMPParser@@AEAAXAEAI0AEAN@Z 0000000180008730 f   BMPParser.obj
 0001:000078b0       ?setOp@Parser@BMPParser@@AEAAXV?$basic_string@DU?$char_traits@D@std@@V?$allocator@D@2@@std@@@Z 00000001800088b0 f   BMPParser.obj
 0001:00007960       ?setErrUnsupported@Parser@BMPParser@@AEAAXV?$basic_string@DU?$char_traits@D@std@@V?$allocator@D@2@@std@@@Z 0000000180008960 f   BMPParser.obj
 0001:00007b20       ?setErrUnknown@Parser@BMPParser@@AEAAXV?$basic_string@DU?$char_traits@D@std@@V?$allocator@D@2@@std@@@Z 0000000180008b20 f   BMPParser.obj
 0001:00007ce0       ?setErr@Parser@BMPParser@@AEAAXV?$basic_string@DU?$char_traits@D@std@@V?$allocator@D@2@@std@@@Z 0000000180008ce0 f   BMPParser.obj
 0001:00007da0       ?assign@?$basic_string@DU?$char_traits@D@std@@V?$allocator@D@2@@std@@QEAAAEAV12@_KD@Z 0000000180008da0 f i BMPParser.obj
 0001:00007f10       ??$?9DU?$char_traits@D@std@@V?$allocator@D@1@@std@@YA_NAEBV?$basic_string@DU?$char_traits@D@std@@V?$allocator@D@2@@0@QEBD@Z 0000000180008f10 f i BMPParser.obj
 0001:00007f60       ??$get@H$00@Parser@BMPParser@@AEAAHXZ 0000000180008f60 f i BMPParser.obj
 0001:00007f60       ??$get@I$00@Parser@BMPParser@@AEAAIXZ 0000000180008f60 f i BMPParser.obj
 0001:00008090       ??$get@G$00@Parser@BMPParser@@AEAAGXZ 0000000180009090 f i BMPParser.obj
 0001:000081c0       ??$get@E$0A@@Parser@BMPParser@@AEAAEXZ 00000001800091c0 f i BMPParser.obj
 0001:000081d0       ??$get@E$00@Parser@BMPParser@@AEAAEPEAE@Z 00000001800091d0 f i BMPParser.obj
 0001:000082f0       ??$get@G$0A@@Parser@BMPParser@@AEAAGXZ 00000001800092f0 f i BMPParser.obj
 0001:00008300       ??$get@I$0A@@Parser@BMPParser@@AEAAIXZ 0000000180009300 f i BMPParser.obj
 0001:00008310       ??$_Reallocate_grow_by@V<lambda_319d5e083f45f90dcdce5dce53cbb275>@@D@?$basic_string@DU?$char_traits@D@std@@V?$allocator@D@2@@std@@AEAAAEAV01@_KV<lambda_319d5e083f45f90dcdce5dce53cbb275>@@D@Z 0000000180009310 f i BMPParser.obj
 0001:00008480       ??$_Reallocate_grow_by@V<lambda_f3a66ab6a0570788f31503db83886f49>@@_KPEBD_K@?$basic_string@DU?$char_traits@D@std@@V?$allocator@D@2@@std@@AEAAAEAV01@_KV<lambda_f3a66ab6a0570788f31503db83886f49>@@_KPEBD2@Z 0000000180009480 f i BMPParser.obj
 0001:000087e0       ??1AsyncResource@Nan@@QEAA@XZ 00000001800097e0 f i Canvas.obj
 0001:00008810       ?ThrowError@Nan@@YAXPEBD@Z 0000000180009810 f i Canvas.obj
 0001:000088a0       ?ThrowTypeError@Nan@@YAXPEBD@Z 00000001800098a0 f i Canvas.obj
 0001:00008930       ??0Utf8String@Nan@@QEAA@V?$Local@VValue@v8@@@v8@@@Z 0000000180009930 f i Canvas.obj
 0001:00008a60       ??1Utf8String@Nan@@QEAA@XZ 0000000180009a60 f i Canvas.obj
 0001:00008a80       ?SetPrototypeMethod@Nan@@YAXV?$Local@VFunctionTemplate@v8@@@v8@@PEBDP6AXAEBV?$FunctionCallbackInfo@VValue@v8@@@1@@ZV?$Local@VValue@v8@@@3@@Z 0000000180009a80 f i Canvas.obj
 0001:00008b70       ??0JpegClosure@@QEAA@PEAVCanvas@@@Z 0000000180009b70 f i Canvas.obj
 0001:00008bf0       ??1JpegClosure@@QEAA@XZ    0000000180009bf0 f i Canvas.obj
 0001:00008dc0       ?setjmp_wrapper@@YA_NPEAUpng_struct_def@@@Z 0000000180009dc0 f   Canvas.obj
 0001:000092f0       ?default_error_condition@error_category@std@@UEBA?AVerror_condition@2@H@Z 000000018000a2f0 f i Canvas.obj
 0001:00009300       ?equivalent@error_category@std@@UEBA_NHAEBVerror_condition@2@@Z 000000018000a300 f i Canvas.obj
 0001:00009340       ?equivalent@error_category@std@@UEBA_NAEBVerror_code@2@H@Z 000000018000a340 f i Canvas.obj
 0001:00009360       ?make_error_code@std@@YA?AVerror_code@1@W4io_errc@1@@Z 000000018000a360 f i Canvas.obj
 0001:00009380       ??_G_System_error@std@@UEAAPEAXI@Z 000000018000a380 f i Canvas.obj
 0001:00009380       ??_Gsystem_error@std@@UEAAPEAXI@Z 000000018000a380 f i Canvas.obj
 0001:00009380       ??_Esystem_error@std@@UEAAPEAXI@Z 000000018000a380 f i * CIL library *:* CIL module *
 0001:00009380       ??_E_System_error@std@@UEAAPEAXI@Z 000000018000a380 f i * CIL library *:* CIL module *
 0001:00009380       ??_Gfailure@ios_base@std@@UEAAPEAXI@Z 000000018000a380 f i Canvas.obj
 0001:00009380       ??_Efailure@ios_base@std@@UEAAPEAXI@Z 000000018000a380 f i * CIL library *:* CIL module *
 0001:000093b0       ??0system_error@std@@QEAA@Verror_code@1@PEBD@Z 000000018000a3b0 f i Canvas.obj
 0001:000095d0       ?name@_Iostream_error_category2@std@@UEBAPEBDXZ 000000018000a5d0 f i Canvas.obj
 0001:000095e0       ?message@_Iostream_error_category2@std@@UEBA?AV?$basic_string@DU?$char_traits@D@std@@V?$allocator@D@2@@2@H@Z 000000018000a5e0 f i Canvas.obj
 0001:00009660       ??_E_Iostream_error_category2@std@@UEAAPEAXI@Z 000000018000a660 f i * CIL library *:* CIL module *
 0001:00009660       ??_G_Iostream_error_category2@std@@UEAAPEAXI@Z 000000018000a660 f i Canvas.obj
 0001:00009690       ??_G_Facet_base@std@@UEAAPEAXI@Z 000000018000a690 f i Canvas.obj
 0001:00009690       ??_E_Facet_base@std@@UEAAPEAXI@Z 000000018000a690 f i * CIL library *:* CIL module *
 0001:000096c0       ?_Incref@facet@locale@std@@UEAAXXZ 000000018000a6c0 f i Canvas.obj
 0001:000096d0       ?_Decref@facet@locale@std@@UEAAPEAV_Facet_base@3@XZ 000000018000a6d0 f i Canvas.obj
 0001:000096e0       ??1locale@std@@QEAA@XZ     000000018000a6e0 f i Canvas.obj
 0001:00009710       ?_Getcat@?$ctype@D@std@@SA_KPEAPEBVfacet@locale@2@PEBV42@@Z 000000018000a710 f i Canvas.obj
 0001:000098a0       ?do_tolower@?$ctype@D@std@@MEBADD@Z 000000018000a8a0 f i Canvas.obj
 0001:000098b0       ?do_tolower@?$ctype@D@std@@MEBAPEBDPEADPEBD@Z 000000018000a8b0 f i Canvas.obj
 0001:00009900       ?do_toupper@?$ctype@D@std@@MEBADD@Z 000000018000a900 f i Canvas.obj
 0001:00009910       ?do_toupper@?$ctype@D@std@@MEBAPEBDPEADPEBD@Z 000000018000a910 f i Canvas.obj
 0001:00009960       ?do_narrow@?$ctype@D@std@@MEBADDD@Z 000000018000a960 f i Canvas.obj
 0001:00009960       ?do_widen@?$ctype@D@std@@MEBADD@Z 000000018000a960 f i Canvas.obj
 0001:00009970       ?do_widen@?$ctype@D@std@@MEBAPEBDPEBD0PEAD@Z 000000018000a970 f i Canvas.obj
 0001:00009990       ?do_narrow@?$ctype@D@std@@MEBAPEBDPEBD0DPEAD@Z 000000018000a990 f i Canvas.obj
 0001:000099b0       ??_G?$ctype@D@std@@MEAAPEAXI@Z 000000018000a9b0 f i Canvas.obj
 0001:000099b0       ??_E?$ctype@D@std@@MEAAPEAXI@Z 000000018000a9b0 f i * CIL library *:* CIL module *
 0001:00009a20       ??0failure@ios_base@std@@QEAA@PEBDAEBVerror_code@2@@Z 000000018000aa20 f i Canvas.obj
 0001:00009a60       ??_Eios_base@std@@UEAAPEAXI@Z 000000018000aa60 f i * CIL library *:* CIL module *
 0001:00009a60       ??_Gios_base@std@@UEAAPEAXI@Z 000000018000aa60 f i Canvas.obj
 0001:00009aa0       ?SetProtoAccessor@@YAXV?$Local@VObjectTemplate@v8@@@v8@@V?$Local@VString@v8@@@2@P6AX1AEBV?$PropertyCallbackInfo@VValue@v8@@@Nan@@@ZP6AX1V?$Local@VValue@v8@@@2@AEBV?$PropertyCallbackInfo@X@5@@ZV?$Local@VFunctionTemplate@v8@@@2@@Z 000000018000aaa0 f i Canvas.obj
 0001:00009c60       ?empty_closure_output_buffer@@YAEPEAUjpeg_compress_struct@@@Z 000000018000ac60 f   Canvas.obj
 0001:00009ef0       ?term_closure_destination@@YAXPEAUjpeg_compress_struct@@@Z 000000018000aef0 f   Canvas.obj
 0001:0000a240       ?encode_jpeg@@YAXUjpeg_compress_struct@@PEAU_cairo_surface@@H_NHH@Z 000000018000b240 f   Canvas.obj
 0001:0000a430       ?write_to_jpeg_buffer@@YAXPEAU_cairo_surface@@PEAUJpegClosure@@@Z 000000018000b430 f   Canvas.obj
 0001:0000a570       ?Initialize@Canvas@@SAXV?$Local@VObject@v8@@@v8@@@Z 000000018000b570 f   Canvas.obj
 0001:0000aee0       ?New@Canvas@@SAXAEBV?$FunctionCallbackInfo@VValue@v8@@@Nan@@@Z 000000018000bee0 f   Canvas.obj
 0001:0000b590       ?GetType@Canvas@@SAXV?$Local@VString@v8@@@v8@@AEBV?$PropertyCallbackInfo@VValue@v8@@@Nan@@@Z 000000018000c590 f   Canvas.obj
 0001:0000b620       ?GetStride@Canvas@@SAXV?$Local@VString@v8@@@v8@@AEBV?$PropertyCallbackInfo@VValue@v8@@@Nan@@@Z 000000018000c620 f   Canvas.obj
 0001:0000b6b0       ?GetWidth@Canvas@@SAXV?$Local@VString@v8@@@v8@@AEBV?$PropertyCallbackInfo@VValue@v8@@@Nan@@@Z 000000018000c6b0 f   Canvas.obj
 0001:0000b730       ?SetWidth@Canvas@@SAXV?$Local@VString@v8@@@v8@@V?$Local@VValue@v8@@@3@AEBV?$PropertyCallbackInfo@X@Nan@@@Z 000000018000c730 f   Canvas.obj
 0001:0000b810       ?GetHeight@Canvas@@SAXV?$Local@VString@v8@@@v8@@AEBV?$PropertyCallbackInfo@VValue@v8@@@Nan@@@Z 000000018000c810 f   Canvas.obj
 0001:0000b890       ?SetHeight@Canvas@@SAXV?$Local@VString@v8@@@v8@@V?$Local@VValue@v8@@@3@AEBV?$PropertyCallbackInfo@X@Nan@@@Z 000000018000c890 f   Canvas.obj
 0001:0000b970       ?ToPngBufferAsync@Canvas@@SAXPEAUuv_work_s@@@Z 000000018000c970 f   Canvas.obj
 0001:0000ba00       ?ToJpegBufferAsync@Canvas@@SAXPEAUuv_work_s@@@Z 000000018000ca00 f   Canvas.obj
 0001:0000ba40       ?ToBufferAsyncAfter@Canvas@@SAXPEAUuv_work_s@@@Z 000000018000ca40 f   Canvas.obj
 0001:0000cb70       ?ToBuffer@Canvas@@SAXAEBV?$FunctionCallbackInfo@VValue@v8@@@Nan@@@Z 000000018000db70 f   Canvas.obj
 0001:0000d8a0       ??1PngClosure@@QEAA@XZ     000000018000e8a0 f i Canvas.obj
 0001:0000d8b0       ??1TryCatch@Nan@@QEAA@XZ   000000018000e8b0 f i Canvas.obj
 0001:0000db50       ?StreamPNGSync@Canvas@@SAXAEBV?$FunctionCallbackInfo@VValue@v8@@@Nan@@@Z 000000018000eb50 f   Canvas.obj
 0001:0000e1c0       ?StreamPDFSync@Canvas@@SAXAEBV?$FunctionCallbackInfo@VValue@v8@@@Nan@@@Z 000000018000f1c0 f   Canvas.obj
 0001:0000e5d0       ?StreamJPEGSync@Canvas@@SAXAEBV?$FunctionCallbackInfo@VValue@v8@@@Nan@@@Z 000000018000f5d0 f   Canvas.obj
 0001:0000e950       ?RegisterFont@Canvas@@SAXAEBV?$FunctionCallbackInfo@VValue@v8@@@Nan@@@Z 000000018000f950 f   Canvas.obj
 0001:0000ef40       ??_GCanvas@@EEAAPEAXI@Z    000000018000ff40 f i Canvas.obj
 0001:0000ef40       ??_ECanvas@@EEAAPEAXI@Z    000000018000ff40 f i * CIL library *:* CIL module *
 0001:0000efc0       ?GetStyleFromCSSString@Canvas@@SA?AW4PangoStyle@@PEBD@Z 000000018000ffc0 f   Canvas.obj
 0001:0000f050       ?GetWeightFromCSSString@Canvas@@SA?AW4PangoWeight@@PEBD@Z 0000000180010050 f   Canvas.obj
 0001:0000f260       ?ResolveFontDescription@Canvas@@SAPEAU_PangoFontDescription@@PEBU2@@Z 0000000180010260 f   Canvas.obj
 0001:0000fad0       ??_D?$basic_istringstream@DU?$char_traits@D@std@@V?$allocator@D@2@@std@@QEAAXXZ 0000000180010ad0 f i Canvas.obj
 0001:0000fb70       ??1?$unordered_set@V?$basic_string@DU?$char_traits@D@std@@V?$allocator@D@2@@std@@U?$hash@V?$basic_string@DU?$char_traits@D@std@@V?$allocator@D@2@@std@@@2@U?$equal_to@V?$basic_string@DU?$char_traits@D@std@@V?$allocator@D@2@@std@@@2@V?$allocator@V?$basic_string@DU?$char_traits@D@std@@V?$allocator@D@2@@std@@@2@@std@@QEAA@XZ 0000000180010b70 f i Canvas.obj
 0001:0000fb80       ??1?$_Hash@V?$_Uset_traits@V?$basic_string@DU?$char_traits@D@std@@V?$allocator@D@2@@std@@V?$_Uhash_compare@V?$basic_string@DU?$char_traits@D@std@@V?$allocator@D@2@@std@@U?$hash@V?$basic_string@DU?$char_traits@D@std@@V?$allocator@D@2@@std@@@2@U?$equal_to@V?$basic_string@DU?$char_traits@D@std@@V?$allocator@D@2@@std@@@2@@2@V?$allocator@V?$basic_string@DU?$char_traits@D@std@@V?$allocator@D@2@@std@@@2@$0A@@std@@@std@@QEAA@XZ 0000000180010b80 f i Canvas.obj
 0001:0000fbf0       ?resurface@Canvas@@QEAAXV?$Local@VObject@v8@@@v8@@@Z 0000000180010bf0 f   Canvas.obj
 0001:0000fde0       ??1?$_Hash_vec@V?$allocator@V?$_List_unchecked_const_iterator@V?$_List_val@U?$_List_simple_types@V?$basic_string@DU?$char_traits@D@std@@V?$allocator@D@2@@std@@@std@@@std@@U_Iterator_base0@2@@std@@@std@@@std@@QEAA@XZ 0000000180010de0 f i Canvas.obj
 0001:0000fe40       ??1?$list@V?$basic_string@DU?$char_traits@D@std@@V?$allocator@D@2@@std@@V?$allocator@V?$basic_string@DU?$char_traits@D@std@@V?$allocator@D@2@@std@@@2@@std@@QEAA@XZ 0000000180010e40 f i Canvas.obj
 0001:0000fe70       ?seekpos@?$basic_stringbuf@DU?$char_traits@D@std@@V?$allocator@D@2@@std@@MEAA?AV?$fpos@U_Mbstatet@@@2@V32@H@Z 0000000180010e70 f i Canvas.obj
 0001:0000ff60       ?seekoff@?$basic_stringbuf@DU?$char_traits@D@std@@V?$allocator@D@2@@std@@MEAA?AV?$fpos@U_Mbstatet@@@2@_JHH@Z 0000000180010f60 f i Canvas.obj
 0001:000100c0       ?underflow@?$basic_stringbuf@DU?$char_traits@D@std@@V?$allocator@D@2@@std@@MEAAHXZ 00000001800110c0 f i Canvas.obj
 0001:00010130       ?pbackfail@?$basic_stringbuf@DU?$char_traits@D@std@@V?$allocator@D@2@@std@@MEAAHH@Z 0000000180011130 f i Canvas.obj
 0001:00010190       ?overflow@?$basic_stringbuf@DU?$char_traits@D@std@@V?$allocator@D@2@@std@@MEAAHH@Z 0000000180011190 f i Canvas.obj
 0001:000103a0       ??1?$basic_stringbuf@DU?$char_traits@D@std@@V?$allocator@D@2@@std@@UEAA@XZ 00000001800113a0 f i Canvas.obj
 0001:000104a0       ?showmanyc@?$basic_streambuf@DU?$char_traits@D@std@@@std@@MEAA_JXZ 00000001800114a0 f i Canvas.obj
 0001:000104a0       ?sync@?$basic_streambuf@DU?$char_traits@D@std@@@std@@MEAAHXZ 00000001800114a0 f i Canvas.obj
 0001:000104b0       ?setbuf@?$basic_streambuf@DU?$char_traits@D@std@@@std@@MEAAPEAV12@PEAD_J@Z 00000001800114b0 f i Canvas.obj
 0001:000104c0       ?seekoff@?$basic_streambuf@DU?$char_traits@D@std@@@std@@MEAA?AV?$fpos@U_Mbstatet@@@2@_JHH@Z 00000001800114c0 f i Canvas.obj
 0001:000104c0       ?seekpos@?$basic_streambuf@DU?$char_traits@D@std@@@std@@MEAA?AV?$fpos@U_Mbstatet@@@2@V32@H@Z 00000001800114c0 f i Canvas.obj
 0001:000104e0       ?xsputn@?$basic_streambuf@DU?$char_traits@D@std@@@std@@MEAA_JPEBD_J@Z 00000001800114e0 f i Canvas.obj
 0001:000105a0       ?xsgetn@?$basic_streambuf@DU?$char_traits@D@std@@@std@@MEAA_JPEAD_J@Z 00000001800115a0 f i Canvas.obj
 0001:00010650       ?uflow@?$basic_streambuf@DU?$char_traits@D@std@@@std@@MEAAHXZ 0000000180011650 f i Canvas.obj
 0001:00010690       ??1?$basic_streambuf@DU?$char_traits@D@std@@@std@@UEAA@XZ 0000000180011690 f i Canvas.obj
 0001:000106f0       ??0?$basic_istringstream@DU?$char_traits@D@std@@V?$allocator@D@2@@std@@QEAA@AEBV?$basic_string@DU?$char_traits@D@std@@V?$allocator@D@2@@1@H@Z 00000001800116f0 f i Canvas.obj
 0001:000108c0       ??1?$basic_istream@DU?$char_traits@D@std@@@std@@UEAA@XZ 00000001800118c0 f i Canvas.obj
 0001:000108f0       ??1?$basic_ios@DU?$char_traits@D@std@@@std@@UEAA@XZ 00000001800118f0 f i Canvas.obj
 0001:00010910       ??1?$_Yarn@D@std@@QEAA@XZ  0000000180011910 f i Canvas.obj
 0001:00010910       ??1?$_Yarn@_W@std@@QEAA@XZ 0000000180011910 f i Canvas.obj
 0001:00010940       ??_G?$basic_stringbuf@DU?$char_traits@D@std@@V?$allocator@D@2@@std@@UEAAPEAXI@Z 0000000180011940 f i Canvas.obj
 0001:00010940       ??_E?$basic_stringbuf@DU?$char_traits@D@std@@V?$allocator@D@2@@std@@UEAAPEAXI@Z 0000000180011940 f i * CIL library *:* CIL module *
 0001:00010980       ??_E?$basic_streambuf@DU?$char_traits@D@std@@@std@@UEAAPEAXI@Z 0000000180011980 f i * CIL library *:* CIL module *
 0001:00010980       ??_G?$basic_streambuf@DU?$char_traits@D@std@@@std@@UEAAPEAXI@Z 0000000180011980 f i Canvas.obj
 0001:00010a00       ??_E?$basic_istringstream@DU?$char_traits@D@std@@V?$allocator@D@2@@std@@UEAAPEAXI@Z 0000000180011a00 f i * CIL library *:* CIL module *
 0001:00010a00       ??_G?$basic_istringstream@DU?$char_traits@D@std@@V?$allocator@D@2@@std@@UEAAPEAXI@Z 0000000180011a00 f i Canvas.obj
 0001:00010a40       ??_E?$basic_istream@DU?$char_traits@D@std@@@std@@UEAAPEAXI@Z 0000000180011a40 f i * CIL library *:* CIL module *
 0001:00010a40       ??_G?$basic_istream@DU?$char_traits@D@std@@@std@@UEAAPEAXI@Z 0000000180011a40 f i Canvas.obj
 0001:00010ab0       ??_G?$basic_ios@DU?$char_traits@D@std@@@std@@UEAAPEAXI@Z 0000000180011ab0 f i Canvas.obj
 0001:00010ab0       ??_E?$basic_ios@DU?$char_traits@D@std@@@std@@UEAAPEAXI@Z 0000000180011ab0 f i * CIL library *:* CIL module *
 0001:00010af0       ?_Pnavail@?$basic_streambuf@DU?$char_traits@D@std@@@std@@IEBA_JXZ 0000000180011af0 f i Canvas.obj
 0001:00010b10       ?_Gnavail@?$basic_streambuf@DU?$char_traits@D@std@@@std@@IEBA_JXZ 0000000180011b10 f i Canvas.obj
 0001:00010b30       ??0?$basic_istream@DU?$char_traits@D@std@@@std@@QEAA@PEAV?$basic_streambuf@DU?$char_traits@D@std@@@1@_N@Z 0000000180011b30 f i Canvas.obj
 0001:00010c90       ?_Assign_grow@?$_Hash_vec@V?$allocator@V?$_List_unchecked_const_iterator@V?$_List_val@U?$_List_simple_types@V?$basic_string@DU?$char_traits@D@std@@V?$allocator@D@2@@std@@@std@@@std@@U_Iterator_base0@2@@std@@@std@@@std@@QEAAX_KV?$_List_unchecked_const_iterator@V?$_List_val@U?$_List_simple_types@V?$basic_string@DU?$char_traits@D@std@@V?$allocator@D@2@@std@@@std@@@std@@U_Iterator_base0@2@@2@@Z 0000000180011c90 f i Canvas.obj
 0001:00010de0       ??$New@VString@v8@@V?$basic_string@DU?$char_traits@D@std@@V?$allocator@D@2@@std@@@Nan@@YA?AV?$MaybeLocal@VString@v8@@@v8@@V?$basic_string@DU?$char_traits@D@std@@V?$allocator@D@2@@std@@@Z 0000000180011de0 f i Canvas.obj
 0001:00010ed0       ??$use_facet@V?$ctype@D@std@@@std@@YAAEBV?$ctype@D@0@AEBVlocale@0@@Z 0000000180011ed0 f i Canvas.obj
 0001:00010fe0       ??$Unwrap@VContext2d@@@ObjectWrap@Nan@@SAPEAVContext2d@@V?$Local@VObject@v8@@@v8@@@Z 0000000180011fe0 f i Canvas.obj
 0001:00010fe0       ??$Unwrap@VCanvas@@@ObjectWrap@Nan@@SAPEAVCanvas@@V?$Local@VObject@v8@@@v8@@@Z 0000000180011fe0 f i Canvas.obj
 0001:00010fe0       ??$Unwrap@VPattern@@@ObjectWrap@Nan@@SAPEAVPattern@@V?$Local@VObject@v8@@@v8@@@Z 0000000180011fe0 f i CanvasRenderingContext2d.obj
 0001:00010fe0       ??$Unwrap@VImage@@@ObjectWrap@Nan@@SAPEAVImage@@V?$Local@VObject@v8@@@v8@@@Z 0000000180011fe0 f i CanvasPattern.obj
 0001:00010fe0       ??$Unwrap@VGradient@@@ObjectWrap@Nan@@SAPEAVGradient@@V?$Local@VObject@v8@@@v8@@@Z 0000000180011fe0 f i CanvasGradient.obj
 0001:00010fe0       ??$Unwrap@VImageData@@@ObjectWrap@Nan@@SAPEAVImageData@@V?$Local@VObject@v8@@@v8@@@Z 0000000180011fe0 f i CanvasRenderingContext2d.obj
 0001:00011070       ??$emplace@V?$basic_string@DU?$char_traits@D@std@@V?$allocator@D@2@@std@@@?$_Hash@V?$_Uset_traits@V?$basic_string@DU?$char_traits@D@std@@V?$allocator@D@2@@std@@V?$_Uhash_compare@V?$basic_string@DU?$char_traits@D@std@@V?$allocator@D@2@@std@@U?$hash@V?$basic_string@DU?$char_traits@D@std@@V?$allocator@D@2@@std@@@2@U?$equal_to@V?$basic_string@DU?$char_traits@D@std@@V?$allocator@D@2@@std@@@2@@2@V?$allocator@V?$basic_string@DU?$char_traits@D@std@@V?$allocator@D@2@@std@@@2@$0A@@std@@@std@@QEAA?AU?$pair@V?$_List_const_iterator@V?$_List_val@U?$_List_simple_types@V?$basic_string@DU?$char_traits@D@std@@V?$allocator@D@2@@std@@@std@@@std@@@std@@_N@1@$$QEAV?$basic_string@DU?$char_traits@D@std@@V?$allocator@D@2@@1@@Z 0000000180012070 f i Canvas.obj
 0001:000113d0       ??$_Emplace_reallocate@AEBVFontFace@@@?$vector@VFontFace@@V?$allocator@VFontFace@@@std@@@std@@QEAAPEAVFontFace@@QEAV2@AEBV2@@Z 00000001800123d0 f i Canvas.obj
 0001:000115c0       ??$_Free_non_head@V?$allocator@U?$_List_node@V?$basic_string@DU?$char_traits@D@std@@V?$allocator@D@2@@std@@PEAX@std@@@std@@@?$_List_node@V?$basic_string@DU?$char_traits@D@std@@V?$allocator@D@2@@std@@PEAX@std@@SAXAEAV?$allocator@U?$_List_node@V?$basic_string@DU?$char_traits@D@std@@V?$allocator@D@2@@std@@PEAX@std@@@1@PEAU01@@Z 00000001800125c0 f i Canvas.obj
 0001:00011660       ??1?$_List_node_emplace_op2@V?$allocator@U?$_List_node@V?$basic_string@DU?$char_traits@D@std@@V?$allocator@D@2@@std@@PEAX@std@@@std@@@std@@QEAA@XZ 0000000180012660 f i Canvas.obj
 0001:000116f0       ??1?$unique_ptr@V_Facet_base@std@@U?$default_delete@V_Facet_base@std@@@2@@std@@QEAA@XZ 00000001800126f0 f i Canvas.obj
 0001:00011710       ??1?$_Alloc_construct_ptr@V?$allocator@U?$_List_node@V?$basic_string@DU?$char_traits@D@std@@V?$allocator@D@2@@std@@PEAX@std@@@std@@@std@@QEAA@XZ 0000000180012710 f i Canvas.obj
 0001:00011730       ?_Forced_rehash@?$_Hash@V?$_Uset_traits@V?$basic_string@DU?$char_traits@D@std@@V?$allocator@D@2@@std@@V?$_Uhash_compare@V?$basic_string@DU?$char_traits@D@std@@V?$allocator@D@2@@std@@U?$hash@V?$basic_string@DU?$char_traits@D@std@@V?$allocator@D@2@@std@@@2@U?$equal_to@V?$basic_string@DU?$char_traits@D@std@@V?$allocator@D@2@@std@@@2@@2@V?$allocator@V?$basic_string@DU?$char_traits@D@std@@V?$allocator@D@2@@std@@@2@$0A@@std@@@std@@IEAAX_K@Z 0000000180012730 f i Canvas.obj
 0001:000119b0       ??$getline@DU?$char_traits@D@std@@V?$allocator@D@2@@std@@YAAEAV?$basic_istream@DU?$char_traits@D@std@@@0@$$QEAV10@AEAV?$basic_string@DU?$char_traits@D@std@@V?$allocator@D@2@@0@D@Z 00000001800129b0 f i Canvas.obj
 0001:00011ce0       ??1sentry@?$basic_istream@DU?$char_traits@D@std@@@std@@QEAA@XZ 0000000180012ce0 f i Canvas.obj
 0001:00011d10       ??1_Sentry_base@?$basic_istream@DU?$char_traits@D@std@@@std@@QEAA@XZ 0000000180012d10 f i Canvas.obj
 0001:00011d10       ??1_Sentry_base@?$basic_ostream@DU?$char_traits@D@std@@@std@@QEAA@XZ 0000000180012d10 f i Canvas.obj
 0001:00011d40       ?flush@?$basic_ostream@DU?$char_traits@D@std@@@std@@QEAAAEAV12@XZ 0000000180012d40 f i Canvas.obj
 0001:00011ed0       ??1sentry@?$basic_ostream@DU?$char_traits@D@std@@@std@@QEAA@XZ 0000000180012ed0 f i Canvas.obj
 0001:00011f88       ??_E?$basic_istream@DU?$char_traits@D@std@@@std@@$4PPPPPPPM@A@EAAPEAXI@Z 0000000180012f88 f i Canvas.obj
 0001:00011f94       ??_E?$basic_istringstream@DU?$char_traits@D@std@@V?$allocator@D@2@@std@@$4PPPPPPPM@A@EAAPEAXI@Z 0000000180012f94 f i Canvas.obj
 0001:00011fa0       ?New@Gradient@@SAXAEBV?$FunctionCallbackInfo@VValue@v8@@@Nan@@@Z 0000000180012fa0 f   CanvasGradient.obj
 0001:000125f0       ?AddColorStop@Gradient@@SAXAEBV?$FunctionCallbackInfo@VValue@v8@@@Nan@@@Z 00000001800135f0 f   CanvasGradient.obj
 0001:00012860       ??_EGradient@@EEAAPEAXI@Z  0000000180013860 f i * CIL library *:* CIL module *
 0001:00012860       ??_GGradient@@EEAAPEAXI@Z  0000000180013860 f i CanvasGradient.obj
 0001:000128e0       ?Initialize@Pattern@@SAXV?$Local@VObject@v8@@@v8@@@Z 00000001800138e0 f   CanvasPattern.obj
 0001:00012af0       ?New@Pattern@@SAXAEBV?$FunctionCallbackInfo@VValue@v8@@@Nan@@@Z 0000000180013af0 f   CanvasPattern.obj
 0001:00012e60       ??_EPattern@@EEAAPEAXI@Z   0000000180013e60 f i * CIL library *:* CIL module *
 0001:00012e60       ??_GPattern@@EEAAPEAXI@Z   0000000180013e60 f i CanvasPattern.obj
 0001:00012ee0       ?_Throw_tree_length_error@std@@YAXXZ 0000000180013ee0 f i CanvasRenderingContext2d.obj
 0001:00013060       ?Initialize@Context2d@@SAXV?$Local@VObject@v8@@@v8@@@Z 0000000180014060 f   CanvasRenderingContext2d.obj
 0001:00013fa0       ??_GContext2d@@EEAAPEAXI@Z 0000000180014fa0 f i CanvasRenderingContext2d.obj
 0001:00013fa0       ??_EContext2d@@EEAAPEAXI@Z 0000000180014fa0 f i * CIL library *:* CIL module *
 0001:00014070       ?resetState@Context2d@@QEAAX_N@Z 0000000180015070 f   CanvasRenderingContext2d.obj
 0001:000141f0       ?_resetPersistentHandles@Context2d@@AEAAXXZ 00000001800151f0 f   CanvasRenderingContext2d.obj
 0001:00014290       ?create_transparent_gradient@@YAPEAU_cairo_pattern@@PEAU1@M@Z 0000000180015290 f   CanvasRenderingContext2d.obj
 0001:00014420       ?create_transparent_pattern@@YAPEAU_cairo_pattern@@PEAU1@M@Z 0000000180015420 f   CanvasRenderingContext2d.obj
 0001:000144f0       ?setFillRule@Context2d@@QEAAXV?$Local@VValue@v8@@@v8@@@Z 00000001800154f0 f i CanvasRenderingContext2d.obj
 0001:000145c0       ?fill@Context2d@@QEAAX_N@Z 00000001800155c0 f   CanvasRenderingContext2d.obj
 0001:00014820       ?stroke@Context2d@@QEAAX_N@Z 0000000180015820 f   CanvasRenderingContext2d.obj
 0001:00014a80       ?shadow@Context2d@@QEAAXP6AXPEAU_cairo@@@Z@Z 0000000180015a80 f   CanvasRenderingContext2d.obj
 0001:00014f90       ?blur@Context2d@@QEAAXPEAU_cairo_surface@@H@Z 0000000180015f90 f   CanvasRenderingContext2d.obj
 0001:00015500       ?New@Context2d@@SAXAEBV?$FunctionCallbackInfo@VValue@v8@@@Nan@@@Z 0000000180016500 f   CanvasRenderingContext2d.obj
 0001:00015b90       ?SaveExternalModules@Context2d@@SAXAEBV?$FunctionCallbackInfo@VValue@v8@@@Nan@@@Z 0000000180016b90 f   CanvasRenderingContext2d.obj
 0001:00015ca0       ?GetFormat@Context2d@@SAXV?$Local@VString@v8@@@v8@@AEBV?$PropertyCallbackInfo@VValue@v8@@@Nan@@@Z 0000000180016ca0 f   CanvasRenderingContext2d.obj
 0001:00015ef0       ?AddPage@Context2d@@SAXAEBV?$FunctionCallbackInfo@VValue@v8@@@Nan@@@Z 0000000180016ef0 f   CanvasRenderingContext2d.obj
 0001:00016150       ?PutImageData@Context2d@@SAXAEBV?$FunctionCallbackInfo@VValue@v8@@@Nan@@@Z 0000000180017150 f   CanvasRenderingContext2d.obj
 0001:00016c40       ?GetImageData@Context2d@@SAXAEBV?$FunctionCallbackInfo@VValue@v8@@@Nan@@@Z 0000000180017c40 f   CanvasRenderingContext2d.obj
 0001:000177e0       ?CreateImageData@Context2d@@SAXAEBV?$FunctionCallbackInfo@VValue@v8@@@Nan@@@Z 00000001800187e0 f   CanvasRenderingContext2d.obj
 0001:00017e60       ?DrawImage@Context2d@@SAXAEBV?$FunctionCallbackInfo@VValue@v8@@@Nan@@@Z 0000000180018e60 f   CanvasRenderingContext2d.obj
 0001:000187c0       ?GetGlobalAlpha@Context2d@@SAXV?$Local@VString@v8@@@v8@@AEBV?$PropertyCallbackInfo@VValue@v8@@@Nan@@@Z 00000001800197c0 f   CanvasRenderingContext2d.obj
 0001:00018840       ?SetGlobalAlpha@Context2d@@SAXV?$Local@VString@v8@@@v8@@V?$Local@VValue@v8@@@3@AEBV?$PropertyCallbackInfo@X@Nan@@@Z 0000000180019840 f   CanvasRenderingContext2d.obj
 0001:00018910       ?GetGlobalCompositeOperation@Context2d@@SAXV?$Local@VString@v8@@@v8@@AEBV?$PropertyCallbackInfo@VValue@v8@@@Nan@@@Z 0000000180019910 f   CanvasRenderingContext2d.obj
 0001:00018b60       ?SetPatternQuality@Context2d@@SAXV?$Local@VString@v8@@@v8@@V?$Local@VValue@v8@@@3@AEBV?$PropertyCallbackInfo@X@Nan@@@Z 0000000180019b60 f   CanvasRenderingContext2d.obj
 0001:00018d30       ?GetPatternQuality@Context2d@@SAXV?$Local@VString@v8@@@v8@@AEBV?$PropertyCallbackInfo@VValue@v8@@@Nan@@@Z 0000000180019d30 f   CanvasRenderingContext2d.obj
 0001:00018e00       ?SetImageSmoothingEnabled@Context2d@@SAXV?$Local@VString@v8@@@v8@@V?$Local@VValue@v8@@@3@AEBV?$PropertyCallbackInfo@X@Nan@@@Z 0000000180019e00 f   CanvasRenderingContext2d.obj
 0001:00018ea0       ?GetImageSmoothingEnabled@Context2d@@SAXV?$Local@VString@v8@@@v8@@AEBV?$PropertyCallbackInfo@VValue@v8@@@Nan@@@Z 0000000180019ea0 f   CanvasRenderingContext2d.obj
 0001:00018f20       ?SetGlobalCompositeOperation@Context2d@@SAXV?$Local@VString@v8@@@v8@@V?$Local@VValue@v8@@@3@AEBV?$PropertyCallbackInfo@X@Nan@@@Z 0000000180019f20 f   CanvasRenderingContext2d.obj
 0001:00019960       ??1?$map@V?$basic_string@DU?$char_traits@D@std@@V?$allocator@D@2@@std@@HU?$less@V?$basic_string@DU?$char_traits@D@std@@V?$allocator@D@2@@std@@@2@V?$allocator@U?$pair@$$CBV?$basic_string@DU?$char_traits@D@std@@V?$allocator@D@2@@std@@H@std@@@2@@std@@QEAA@XZ 000000018001a960 f i CanvasRenderingContext2d.obj
 0001:00019960       ??1?$_Tree@V?$_Tmap_traits@V?$basic_string@DU?$char_traits@D@std@@V?$allocator@D@2@@std@@W4_cairo_operator@@U?$less@V?$basic_string@DU?$char_traits@D@std@@V?$allocator@D@2@@std@@@2@V?$allocator@U?$pair@$$CBV?$basic_string@DU?$char_traits@D@std@@V?$allocator@D@2@@std@@W4_cairo_operator@@@std@@@2@$0A@@std@@@std@@QEAA@XZ 000000018001a960 f i CanvasRenderingContext2d.obj
 0001:00019960       ??1?$_Tree@V?$_Tmap_traits@V?$basic_string@DU?$char_traits@D@std@@V?$allocator@D@2@@std@@HU?$less@V?$basic_string@DU?$char_traits@D@std@@V?$allocator@D@2@@std@@@2@V?$allocator@U?$pair@$$CBV?$basic_string@DU?$char_traits@D@std@@V?$allocator@D@2@@std@@H@std@@@2@$0A@@std@@@std@@QEAA@XZ 000000018001a960 f i CanvasRenderingContext2d.obj
 0001:00019960       ??1?$_Tree@V?$_Tmap_traits@V?$basic_string@DU?$char_traits@D@std@@V?$allocator@D@2@@std@@IU?$less@V?$basic_string@DU?$char_traits@D@std@@V?$allocator@D@2@@std@@@2@V?$allocator@U?$pair@$$CBV?$basic_string@DU?$char_traits@D@std@@V?$allocator@D@2@@std@@I@std@@@2@$0A@@std@@@std@@QEAA@XZ 000000018001a960 f i color.obj
 0001:00019960       ??1?$map@V?$basic_string@DU?$char_traits@D@std@@V?$allocator@D@2@@std@@W4_cairo_operator@@U?$less@V?$basic_string@DU?$char_traits@D@std@@V?$allocator@D@2@@std@@@2@V?$allocator@U?$pair@$$CBV?$basic_string@DU?$char_traits@D@std@@V?$allocator@D@2@@std@@W4_cairo_operator@@@std@@@2@@std@@QEAA@XZ 000000018001a960 f i CanvasRenderingContext2d.obj
 0001:00019990       ?GetShadowOffsetX@Context2d@@SAXV?$Local@VString@v8@@@v8@@AEBV?$PropertyCallbackInfo@VValue@v8@@@Nan@@@Z 000000018001a990 f   CanvasRenderingContext2d.obj
 0001:00019a10       ?SetShadowOffsetX@Context2d@@SAXV?$Local@VString@v8@@@v8@@V?$Local@VValue@v8@@@3@AEBV?$PropertyCallbackInfo@X@Nan@@@Z 000000018001aa10 f   CanvasRenderingContext2d.obj
 0001:00019ad0       ?GetShadowOffsetY@Context2d@@SAXV?$Local@VString@v8@@@v8@@AEBV?$PropertyCallbackInfo@VValue@v8@@@Nan@@@Z 000000018001aad0 f   CanvasRenderingContext2d.obj
 0001:00019b50       ?SetShadowOffsetY@Context2d@@SAXV?$Local@VString@v8@@@v8@@V?$Local@VValue@v8@@@3@AEBV?$PropertyCallbackInfo@X@Nan@@@Z 000000018001ab50 f   CanvasRenderingContext2d.obj
 0001:00019c10       ?GetShadowBlur@Context2d@@SAXV?$Local@VString@v8@@@v8@@AEBV?$PropertyCallbackInfo@VValue@v8@@@Nan@@@Z 000000018001ac10 f   CanvasRenderingContext2d.obj
 0001:00019c90       ?SetShadowBlur@Context2d@@SAXV?$Local@VString@v8@@@v8@@V?$Local@VValue@v8@@@3@AEBV?$PropertyCallbackInfo@X@Nan@@@Z 000000018001ac90 f   CanvasRenderingContext2d.obj
 0001:00019d50       ?GetAntiAlias@Context2d@@SAXV?$Local@VString@v8@@@v8@@AEBV?$PropertyCallbackInfo@VValue@v8@@@Nan@@@Z 000000018001ad50 f   CanvasRenderingContext2d.obj
 0001:00019e20       ?SetAntiAlias@Context2d@@SAXV?$Local@VString@v8@@@v8@@V?$Local@VValue@v8@@@3@AEBV?$PropertyCallbackInfo@X@Nan@@@Z 000000018001ae20 f   CanvasRenderingContext2d.obj
 0001:00019fc0       ?GetTextDrawingMode@Context2d@@SAXV?$Local@VString@v8@@@v8@@AEBV?$PropertyCallbackInfo@VValue@v8@@@Nan@@@Z 000000018001afc0 f   CanvasRenderingContext2d.obj
 0001:0001a080       ?SetTextDrawingMode@Context2d@@SAXV?$Local@VString@v8@@@v8@@V?$Local@VValue@v8@@@3@AEBV?$PropertyCallbackInfo@X@Nan@@@Z 000000018001b080 f   CanvasRenderingContext2d.obj
 0001:0001a1e0       ?GetQuality@Context2d@@SAXV?$Local@VString@v8@@@v8@@AEBV?$PropertyCallbackInfo@VValue@v8@@@Nan@@@Z 000000018001b1e0 f   CanvasRenderingContext2d.obj
 0001:0001a2c0       ?SetQuality@Context2d@@SAXV?$Local@VString@v8@@@v8@@V?$Local@VValue@v8@@@3@AEBV?$PropertyCallbackInfo@X@Nan@@@Z 000000018001b2c0 f   CanvasRenderingContext2d.obj
 0001:0001a450       ?get_current_transform@@YA?AV?$Local@VObject@v8@@@v8@@PEAVContext2d@@@Z 000000018001b450 f   CanvasRenderingContext2d.obj
 0001:0001a670       ?parse_matrix_from_object@@YAXAEAU_cairo_matrix@@V?$Local@VObject@v8@@@v8@@@Z 000000018001b670 f   CanvasRenderingContext2d.obj
 0001:0001ad00       ?GetCurrentTransform@Context2d@@SAXV?$Local@VString@v8@@@v8@@AEBV?$PropertyCallbackInfo@VValue@v8@@@Nan@@@Z 000000018001bd00 f   CanvasRenderingContext2d.obj
 0001:0001ad50       ?SetCurrentTransform@Context2d@@SAXV?$Local@VString@v8@@@v8@@V?$Local@VValue@v8@@@3@AEBV?$PropertyCallbackInfo@X@Nan@@@Z 000000018001bd50 f   CanvasRenderingContext2d.obj
 0001:0001aea0       ?GetFillStyle@Context2d@@SAXV?$Local@VString@v8@@@v8@@AEBV?$PropertyCallbackInfo@VValue@v8@@@Nan@@@Z 000000018001bea0 f   CanvasRenderingContext2d.obj
 0001:0001af90       ?SetFillStyle@Context2d@@SAXV?$Local@VString@v8@@@v8@@V?$Local@VValue@v8@@@3@AEBV?$PropertyCallbackInfo@X@Nan@@@Z 000000018001bf90 f   CanvasRenderingContext2d.obj
 0001:0001b2e0       ?GetStrokeStyle@Context2d@@SAXV?$Local@VString@v8@@@v8@@AEBV?$PropertyCallbackInfo@VValue@v8@@@Nan@@@Z 000000018001c2e0 f   CanvasRenderingContext2d.obj
 0001:0001b3e0       ?SetStrokeStyle@Context2d@@SAXV?$Local@VString@v8@@@v8@@V?$Local@VValue@v8@@@3@AEBV?$PropertyCallbackInfo@X@Nan@@@Z 000000018001c3e0 f   CanvasRenderingContext2d.obj
 0001:0001b730       ?GetMiterLimit@Context2d@@SAXV?$Local@VString@v8@@@v8@@AEBV?$PropertyCallbackInfo@VValue@v8@@@Nan@@@Z 000000018001c730 f   CanvasRenderingContext2d.obj
 0001:0001b7b0       ?SetMiterLimit@Context2d@@SAXV?$Local@VString@v8@@@v8@@V?$Local@VValue@v8@@@3@AEBV?$PropertyCallbackInfo@X@Nan@@@Z 000000018001c7b0 f   CanvasRenderingContext2d.obj
 0001:0001b870       ?GetLineWidth@Context2d@@SAXV?$Local@VString@v8@@@v8@@AEBV?$PropertyCallbackInfo@VValue@v8@@@Nan@@@Z 000000018001c870 f   CanvasRenderingContext2d.obj
 0001:0001b8f0       ?SetLineWidth@Context2d@@SAXV?$Local@VString@v8@@@v8@@V?$Local@VValue@v8@@@3@AEBV?$PropertyCallbackInfo@X@Nan@@@Z 000000018001c8f0 f   CanvasRenderingContext2d.obj
 0001:0001b9c0       ?GetLineJoin@Context2d@@SAXV?$Local@VString@v8@@@v8@@AEBV?$PropertyCallbackInfo@VValue@v8@@@Nan@@@Z 000000018001c9c0 f   CanvasRenderingContext2d.obj
 0001:0001ba80       ?SetLineJoin@Context2d@@SAXV?$Local@VString@v8@@@v8@@V?$Local@VValue@v8@@@3@AEBV?$PropertyCallbackInfo@X@Nan@@@Z 000000018001ca80 f   CanvasRenderingContext2d.obj
 0001:0001bbc0       ?GetLineCap@Context2d@@SAXV?$Local@VString@v8@@@v8@@AEBV?$PropertyCallbackInfo@VValue@v8@@@Nan@@@Z 000000018001cbc0 f   CanvasRenderingContext2d.obj
 0001:0001bc80       ?SetLineCap@Context2d@@SAXV?$Local@VString@v8@@@v8@@V?$Local@VValue@v8@@@3@AEBV?$PropertyCallbackInfo@X@Nan@@@Z 000000018001cc80 f   CanvasRenderingContext2d.obj
 0001:0001bdc0       ?IsPointInPath@Context2d@@SAXAEBV?$FunctionCallbackInfo@VValue@v8@@@Nan@@@Z 000000018001cdc0 f   CanvasRenderingContext2d.obj
 0001:0001c010       ?SetShadowColor@Context2d@@SAXV?$Local@VString@v8@@@v8@@V?$Local@VValue@v8@@@3@AEBV?$PropertyCallbackInfo@X@Nan@@@Z 000000018001d010 f   CanvasRenderingContext2d.obj
 0001:0001c180       ?GetShadowColor@Context2d@@SAXV?$Local@VString@v8@@@v8@@AEBV?$PropertyCallbackInfo@VValue@v8@@@Nan@@@Z 000000018001d180 f   CanvasRenderingContext2d.obj
 0001:0001c250       ?CreatePattern@Context2d@@SAXAEBV?$FunctionCallbackInfo@VValue@v8@@@Nan@@@Z 000000018001d250 f   CanvasRenderingContext2d.obj
 0001:0001c480       ?CreateLinearGradient@Context2d@@SAXAEBV?$FunctionCallbackInfo@VValue@v8@@@Nan@@@Z 000000018001d480 f   CanvasRenderingContext2d.obj
 0001:0001c690       ?CreateRadialGradient@Context2d@@SAXAEBV?$FunctionCallbackInfo@VValue@v8@@@Nan@@@Z 000000018001d690 f   CanvasRenderingContext2d.obj
 0001:0001c8f0       ?BezierCurveTo@Context2d@@SAXAEBV?$FunctionCallbackInfo@VValue@v8@@@Nan@@@Z 000000018001d8f0 f   CanvasRenderingContext2d.obj
 0001:0001c980       ?QuadraticCurveTo@Context2d@@SAXAEBV?$FunctionCallbackInfo@VValue@v8@@@Nan@@@Z 000000018001d980 f   CanvasRenderingContext2d.obj
 0001:0001cae0       ?Save@Context2d@@SAXAEBV?$FunctionCallbackInfo@VValue@v8@@@Nan@@@Z 000000018001dae0 f   CanvasRenderingContext2d.obj
 0001:0001cc00       ?Restore@Context2d@@SAXAEBV?$FunctionCallbackInfo@VValue@v8@@@Nan@@@Z 000000018001dc00 f   CanvasRenderingContext2d.obj
 0001:0001cca0       ?BeginPath@Context2d@@SAXAEBV?$FunctionCallbackInfo@VValue@v8@@@Nan@@@Z 000000018001dca0 f   CanvasRenderingContext2d.obj
 0001:0001ccd0       ?ClosePath@Context2d@@SAXAEBV?$FunctionCallbackInfo@VValue@v8@@@Nan@@@Z 000000018001dcd0 f   CanvasRenderingContext2d.obj
 0001:0001cd00       ?Rotate@Context2d@@SAXAEBV?$FunctionCallbackInfo@VValue@v8@@@Nan@@@Z 000000018001dd00 f   CanvasRenderingContext2d.obj
 0001:0001cd50       ?Transform@Context2d@@SAXAEBV?$FunctionCallbackInfo@VValue@v8@@@Nan@@@Z 000000018001dd50 f   CanvasRenderingContext2d.obj
 0001:0001ce00       ?GetTransform@Context2d@@SAXAEBV?$FunctionCallbackInfo@VValue@v8@@@Nan@@@Z 000000018001de00 f   CanvasRenderingContext2d.obj
 0001:0001ce60       ?ResetTransform@Context2d@@SAXAEBV?$FunctionCallbackInfo@VValue@v8@@@Nan@@@Z 000000018001de60 f   CanvasRenderingContext2d.obj
 0001:0001ce90       ?SetTransform@Context2d@@SAXAEBV?$FunctionCallbackInfo@VValue@v8@@@Nan@@@Z 000000018001de90 f   CanvasRenderingContext2d.obj
 0001:0001d010       ?Translate@Context2d@@SAXAEBV?$FunctionCallbackInfo@VValue@v8@@@Nan@@@Z 000000018001e010 f   CanvasRenderingContext2d.obj
 0001:0001d070       ?Scale@Context2d@@SAXAEBV?$FunctionCallbackInfo@VValue@v8@@@Nan@@@Z 000000018001e070 f   CanvasRenderingContext2d.obj
 0001:0001d0d0       ?Clip@Context2d@@SAXAEBV?$FunctionCallbackInfo@VValue@v8@@@Nan@@@Z 000000018001e0d0 f   CanvasRenderingContext2d.obj
 0001:0001d130       ?Fill@Context2d@@SAXAEBV?$FunctionCallbackInfo@VValue@v8@@@Nan@@@Z 000000018001e130 f   CanvasRenderingContext2d.obj
 0001:0001d190       ?Stroke@Context2d@@SAXAEBV?$FunctionCallbackInfo@VValue@v8@@@Nan@@@Z 000000018001e190 f   CanvasRenderingContext2d.obj
 0001:0001d1c0       ?paintText@@YAXAEBV?$FunctionCallbackInfo@VValue@v8@@@Nan@@_N@Z 000000018001e1c0 f   CanvasRenderingContext2d.obj
 0001:0001d4b0       ?FillText@Context2d@@SAXAEBV?$FunctionCallbackInfo@VValue@v8@@@Nan@@@Z 000000018001e4b0 f   CanvasRenderingContext2d.obj
 0001:0001d4c0       ?StrokeText@Context2d@@SAXAEBV?$FunctionCallbackInfo@VValue@v8@@@Nan@@@Z 000000018001e4c0 f   CanvasRenderingContext2d.obj
 0001:0001d4d0       ?getBaselineAdjustment@@YANPEAU_PangoLayout@@F@Z 000000018001e4d0 f i CanvasRenderingContext2d.obj
 0001:0001d580       ?setTextPath@Context2d@@QEAAXNN@Z 000000018001e580 f   CanvasRenderingContext2d.obj
 0001:0001d690       ?LineTo@Context2d@@SAXAEBV?$FunctionCallbackInfo@VValue@v8@@@Nan@@@Z 000000018001e690 f   CanvasRenderingContext2d.obj
 0001:0001d6f0       ?MoveTo@Context2d@@SAXAEBV?$FunctionCallbackInfo@VValue@v8@@@Nan@@@Z 000000018001e6f0 f   CanvasRenderingContext2d.obj
 0001:0001d750       ?GetFont@Context2d@@SAXV?$Local@VString@v8@@@v8@@AEBV?$PropertyCallbackInfo@VValue@v8@@@Nan@@@Z 000000018001e750 f   CanvasRenderingContext2d.obj
 0001:0001d800       ?SetFont@Context2d@@SAXV?$Local@VString@v8@@@v8@@V?$Local@VValue@v8@@@3@AEBV?$PropertyCallbackInfo@X@Nan@@@Z 000000018001e800 f   CanvasRenderingContext2d.obj
 0001:0001e0d0       ?GetTextBaseline@Context2d@@SAXV?$Local@VString@v8@@@v8@@AEBV?$PropertyCallbackInfo@VValue@v8@@@Nan@@@Z 000000018001f0d0 f   CanvasRenderingContext2d.obj
 0001:0001e180       ?SetTextBaseline@Context2d@@SAXV?$Local@VString@v8@@@v8@@V?$Local@VValue@v8@@@3@AEBV?$PropertyCallbackInfo@X@Nan@@@Z 000000018001f180 f   CanvasRenderingContext2d.obj
 0001:0001e5c0       ?GetTextAlign@Context2d@@SAXV?$Local@VString@v8@@@v8@@AEBV?$PropertyCallbackInfo@VValue@v8@@@Nan@@@Z 000000018001f5c0 f   CanvasRenderingContext2d.obj
 0001:0001e670       ?SetTextAlign@Context2d@@SAXV?$Local@VString@v8@@@v8@@V?$Local@VValue@v8@@@3@AEBV?$PropertyCallbackInfo@X@Nan@@@Z 000000018001f670 f   CanvasRenderingContext2d.obj
 0001:0001ea90       ?MeasureText@Context2d@@SAXAEBV?$FunctionCallbackInfo@VValue@v8@@@Nan@@@Z 000000018001fa90 f   CanvasRenderingContext2d.obj
 0001:0001f340       ?SetLineDash@Context2d@@SAXAEBV?$FunctionCallbackInfo@VValue@v8@@@Nan@@@Z 0000000180020340 f   CanvasRenderingContext2d.obj
 0001:0001f660       ?GetLineDash@Context2d@@SAXAEBV?$FunctionCallbackInfo@VValue@v8@@@Nan@@@Z 0000000180020660 f   CanvasRenderingContext2d.obj
 0001:0001f900       ?SetLineDashOffset@Context2d@@SAXV?$Local@VString@v8@@@v8@@V?$Local@VValue@v8@@@3@AEBV?$PropertyCallbackInfo@X@Nan@@@Z 0000000180020900 f   CanvasRenderingContext2d.obj
 0001:0001fac0       ?GetLineDashOffset@Context2d@@SAXV?$Local@VString@v8@@@v8@@AEBV?$PropertyCallbackInfo@VValue@v8@@@Nan@@@Z 0000000180020ac0 f   CanvasRenderingContext2d.obj
 0001:0001fb50       ?FillRect@Context2d@@SAXAEBV?$FunctionCallbackInfo@VValue@v8@@@Nan@@@Z 0000000180020b50 f   CanvasRenderingContext2d.obj
 0001:0001fc70       ?StrokeRect@Context2d@@SAXAEBV?$FunctionCallbackInfo@VValue@v8@@@Nan@@@Z 0000000180020c70 f   CanvasRenderingContext2d.obj
 0001:0001fd80       ?ClearRect@Context2d@@SAXAEBV?$FunctionCallbackInfo@VValue@v8@@@Nan@@@Z 0000000180020d80 f   CanvasRenderingContext2d.obj
 0001:0001fec0       ?Rect@Context2d@@SAXAEBV?$FunctionCallbackInfo@VValue@v8@@@Nan@@@Z 0000000180020ec0 f   CanvasRenderingContext2d.obj
 0001:0001ffd0       ?Arc@Context2d@@SAXAEBV?$FunctionCallbackInfo@VValue@v8@@@Nan@@@Z 0000000180020fd0 f   CanvasRenderingContext2d.obj
 0001:00020730       ?ArcTo@Context2d@@SAXAEBV?$FunctionCallbackInfo@VValue@v8@@@Nan@@@Z 0000000180021730 f   CanvasRenderingContext2d.obj
 0001:00020cf0       ?Ellipse@Context2d@@SAXAEBV?$FunctionCallbackInfo@VValue@v8@@@Nan@@@Z 0000000180021cf0 f   CanvasRenderingContext2d.obj
 0001:00020f30       ??0?$map@V?$basic_string@DU?$char_traits@D@std@@V?$allocator@D@2@@std@@HU?$less@V?$basic_string@DU?$char_traits@D@std@@V?$allocator@D@2@@std@@@2@V?$allocator@U?$pair@$$CBV?$basic_string@DU?$char_traits@D@std@@V?$allocator@D@2@@std@@H@std@@@2@@std@@QEAA@V?$initializer_list@U?$pair@$$CBV?$basic_string@DU?$char_traits@D@std@@V?$allocator@D@2@@std@@H@std@@@1@@Z 0000000180021f30 f i CanvasRenderingContext2d.obj
 0001:00021080       ??1?$vector@NV?$allocator@N@std@@@std@@QEAA@XZ 0000000180022080 f i CanvasRenderingContext2d.obj
 0001:000210e0       ??$_Erase_tree@V?$allocator@U?$_Tree_node@U?$pair@$$CBV?$basic_string@DU?$char_traits@D@std@@V?$allocator@D@2@@std@@I@std@@PEAX@std@@@std@@@?$_Tree_val@U?$_Tree_simple_types@U?$pair@$$CBV?$basic_string@DU?$char_traits@D@std@@V?$allocator@D@2@@std@@I@std@@@std@@@std@@QEAAXAEAV?$allocator@U?$_Tree_node@U?$pair@$$CBV?$basic_string@DU?$char_traits@D@std@@V?$allocator@D@2@@std@@I@std@@PEAX@std@@@1@PEAU?$_Tree_node@U?$pair@$$CBV?$basic_string@DU?$char_traits@D@std@@V?$allocator@D@2@@std@@I@std@@PEAX@1@@Z 00000001800220e0 f i color.obj
 0001:000210e0       ??$_Erase_tree@V?$allocator@U?$_Tree_node@U?$pair@$$CBV?$basic_string@DU?$char_traits@D@std@@V?$allocator@D@2@@std@@H@std@@PEAX@std@@@std@@@?$_Tree_val@U?$_Tree_simple_types@U?$pair@$$CBV?$basic_string@DU?$char_traits@D@std@@V?$allocator@D@2@@std@@H@std@@@std@@@std@@QEAAXAEAV?$allocator@U?$_Tree_node@U?$pair@$$CBV?$basic_string@DU?$char_traits@D@std@@V?$allocator@D@2@@std@@H@std@@PEAX@std@@@1@PEAU?$_Tree_node@U?$pair@$$CBV?$basic_string@DU?$char_traits@D@std@@V?$allocator@D@2@@std@@H@std@@PEAX@1@@Z 00000001800220e0 f i CanvasRenderingContext2d.obj
 0001:000210e0       ??$_Erase_tree@V?$allocator@U?$_Tree_node@U?$pair@$$CBV?$basic_string@DU?$char_traits@D@std@@V?$allocator@D@2@@std@@W4_cairo_operator@@@std@@PEAX@std@@@std@@@?$_Tree_val@U?$_Tree_simple_types@U?$pair@$$CBV?$basic_string@DU?$char_traits@D@std@@V?$allocator@D@2@@std@@W4_cairo_operator@@@std@@@std@@@std@@QEAAXAEAV?$allocator@U?$_Tree_node@U?$pair@$$CBV?$basic_string@DU?$char_traits@D@std@@V?$allocator@D@2@@std@@W4_cairo_operator@@@std@@PEAX@std@@@1@PEAU?$_Tree_node@U?$pair@$$CBV?$basic_string@DU?$char_traits@D@std@@V?$allocator@D@2@@std@@W4_cairo_operator@@@std@@PEAX@1@@Z 00000001800220e0 f i CanvasRenderingContext2d.obj
 0001:000211a0       ?_Insert_node@?$_Tree_val@U?$_Tree_simple_types@U?$pair@$$CBV?$basic_string@DU?$char_traits@D@std@@V?$allocator@D@2@@std@@H@std@@@std@@@std@@QEAAPEAU?$_Tree_node@U?$pair@$$CBV?$basic_string@DU?$char_traits@D@std@@V?$allocator@D@2@@std@@H@std@@PEAX@2@U?$_Tree_id@PEAU?$_Tree_node@U?$pair@$$CBV?$basic_string@DU?$char_traits@D@std@@V?$allocator@D@2@@std@@H@std@@PEAX@std@@@2@QEAU32@@Z 00000001800221a0 f i CanvasRenderingContext2d.obj
 0001:000211a0       ?_Insert_node@?$_Tree_val@U?$_Tree_simple_types@U?$pair@$$CBV?$basic_string@DU?$char_traits@D@std@@V?$allocator@D@2@@std@@I@std@@@std@@@std@@QEAAPEAU?$_Tree_node@U?$pair@$$CBV?$basic_string@DU?$char_traits@D@std@@V?$allocator@D@2@@std@@I@std@@PEAX@2@U?$_Tree_id@PEAU?$_Tree_node@U?$pair@$$CBV?$basic_string@DU?$char_traits@D@std@@V?$allocator@D@2@@std@@I@std@@PEAX@std@@@2@QEAU32@@Z 00000001800221a0 f i color.obj
 0001:000211a0       ?_Insert_node@?$_Tree_val@U?$_Tree_simple_types@U?$pair@$$CBV?$basic_string@DU?$char_traits@D@std@@V?$allocator@D@2@@std@@W4_cairo_operator@@@std@@@std@@@std@@QEAAPEAU?$_Tree_node@U?$pair@$$CBV?$basic_string@DU?$char_traits@D@std@@V?$allocator@D@2@@std@@W4_cairo_operator@@@std@@PEAX@2@U?$_Tree_id@PEAU?$_Tree_node@U?$pair@$$CBV?$basic_string@DU?$char_traits@D@std@@V?$allocator@D@2@@std@@W4_cairo_operator@@@std@@PEAX@std@@@2@QEAU32@@Z 00000001800221a0 f i CanvasRenderingContext2d.obj
 0001:00021420       ??1?$_Tree_temp_node_alloc@V?$allocator@U?$_Tree_node@U?$pair@$$CBV?$basic_string@DU?$char_traits@D@std@@V?$allocator@D@2@@std@@W4_cairo_operator@@@std@@PEAX@std@@@std@@@std@@QEAA@XZ 0000000180022420 f i CanvasRenderingContext2d.obj
 0001:00021420       ??1?$_Alloc_construct_ptr@V?$allocator@U?$_Tree_node@U?$pair@$$CBV?$basic_string@DU?$char_traits@D@std@@V?$allocator@D@2@@std@@W4_cairo_operator@@@std@@PEAX@std@@@std@@@std@@QEAA@XZ 0000000180022420 f i CanvasRenderingContext2d.obj
 0001:00021420       ??1?$_Alloc_construct_ptr@V?$allocator@U?$_Tree_node@U?$pair@$$CBV?$basic_string@DU?$char_traits@D@std@@V?$allocator@D@2@@std@@I@std@@PEAX@std@@@std@@@std@@QEAA@XZ 0000000180022420 f i color.obj
 0001:00021420       ??1?$_Alloc_construct_ptr@V?$allocator@U?$_Tree_node@U?$pair@$$CBV?$basic_string@DU?$char_traits@D@std@@V?$allocator@D@2@@std@@H@std@@PEAX@std@@@std@@@std@@QEAA@XZ 0000000180022420 f i CanvasRenderingContext2d.obj
 0001:00021420       ??1?$_Tree_temp_node_alloc@V?$allocator@U?$_Tree_node@U?$pair@$$CBV?$basic_string@DU?$char_traits@D@std@@V?$allocator@D@2@@std@@I@std@@PEAX@std@@@std@@@std@@QEAA@XZ 0000000180022420 f i color.obj
 0001:00021420       ??1?$_Tree_temp_node_alloc@V?$allocator@U?$_Tree_node@U?$pair@$$CBV?$basic_string@DU?$char_traits@D@std@@V?$allocator@D@2@@std@@H@std@@PEAX@std@@@std@@@std@@QEAA@XZ 0000000180022420 f i CanvasRenderingContext2d.obj
 0001:00021440       ??$_Find_hint@V?$basic_string@DU?$char_traits@D@std@@V?$allocator@D@2@@std@@@?$_Tree@V?$_Tmap_traits@V?$basic_string@DU?$char_traits@D@std@@V?$allocator@D@2@@std@@HU?$less@V?$basic_string@DU?$char_traits@D@std@@V?$allocator@D@2@@std@@@2@V?$allocator@U?$pair@$$CBV?$basic_string@DU?$char_traits@D@std@@V?$allocator@D@2@@std@@H@std@@@2@$0A@@std@@@std@@IEBA?AU?$_Tree_find_hint_result@PEAU?$_Tree_node@U?$pair@$$CBV?$basic_string@DU?$char_traits@D@std@@V?$allocator@D@2@@std@@H@std@@PEAX@std@@@1@QEAU?$_Tree_node@U?$pair@$$CBV?$basic_string@DU?$char_traits@D@std@@V?$allocator@D@2@@std@@H@std@@PEAX@1@AEBV?$basic_string@DU?$char_traits@D@std@@V?$allocator@D@2@@1@@Z 0000000180022440 f i CanvasRenderingContext2d.obj
 0001:00021440       ??$_Find_hint@V?$basic_string@DU?$char_traits@D@std@@V?$allocator@D@2@@std@@@?$_Tree@V?$_Tmap_traits@V?$basic_string@DU?$char_traits@D@std@@V?$allocator@D@2@@std@@W4_cairo_operator@@U?$less@V?$basic_string@DU?$char_traits@D@std@@V?$allocator@D@2@@std@@@2@V?$allocator@U?$pair@$$CBV?$basic_string@DU?$char_traits@D@std@@V?$allocator@D@2@@std@@W4_cairo_operator@@@std@@@2@$0A@@std@@@std@@IEBA?AU?$_Tree_find_hint_result@PEAU?$_Tree_node@U?$pair@$$CBV?$basic_string@DU?$char_traits@D@std@@V?$allocator@D@2@@std@@W4_cairo_operator@@@std@@PEAX@std@@@1@QEAU?$_Tree_node@U?$pair@$$CBV?$basic_string@DU?$char_traits@D@std@@V?$allocator@D@2@@std@@W4_cairo_operator@@@std@@PEAX@1@AEBV?$basic_string@DU?$char_traits@D@std@@V?$allocator@D@2@@1@@Z 0000000180022440 f i CanvasRenderingContext2d.obj
 0001:00021880       ?init_destination@JpegClosure@@SAXPEAUjpeg_compress_struct@@@Z 0000000180022880 f   closure.obj
 0001:000218c0       ?empty_output_buffer@JpegClosure@@SAEPEAUjpeg_compress_struct@@@Z 00000001800228c0 f   closure.obj
 0001:00021970       ?term_destination@JpegClosure@@SAXPEAUjpeg_compress_struct@@@Z 0000000180022970 f   closure.obj
 0001:00021990       ?resize@?$vector@EV?$allocator@E@std@@@std@@QEAAX_K@Z 0000000180022990 f i closure.obj
 0001:00021ae0       __local_stdio_printf_options 0000000180022ae0 f i color.obj
 0001:00021af0       snprintf                   0000000180022af0 f i color.obj
 0001:00021be0       ?rgba_to_string@@YAXUrgba_t@@PEAD_K@Z 0000000180022be0 f   color.obj
 0001:00022a50       ?rgba_from_string@@YAHPEBDPEAF@Z 0000000180023a50 f   color.obj
 0001:00022ca0       ??0?$map@V?$basic_string@DU?$char_traits@D@std@@V?$allocator@D@2@@std@@IU?$less@V?$basic_string@DU?$char_traits@D@std@@V?$allocator@D@2@@std@@@2@V?$allocator@U?$pair@$$CBV?$basic_string@DU?$char_traits@D@std@@V?$allocator@D@2@@std@@I@std@@@2@@std@@QEAA@V?$initializer_list@U?$pair@$$CBV?$basic_string@DU?$char_traits@D@std@@V?$allocator@D@2@@std@@I@std@@@1@@Z 0000000180023ca0 f i color.obj
 0001:00022ff0       ??$?0AEAY0M@$$CBDH$0A@@?$pair@$$CBV?$basic_string@DU?$char_traits@D@std@@V?$allocator@D@2@@std@@I@std@@QEAA@AEAY0M@$$CBD$$QEAH@Z 0000000180023ff0 f i color.obj
 0001:00022ff0       ??$?0AEAY04$$CBDH$0A@@?$pair@$$CBV?$basic_string@DU?$char_traits@D@std@@V?$allocator@D@2@@std@@I@std@@QEAA@AEAY04$$CBD$$QEAH@Z 0000000180023ff0 f i color.obj
 0001:00022ff0       ??$?0AEAY06$$CBDI$0A@@?$pair@$$CBV?$basic_string@DU?$char_traits@D@std@@V?$allocator@D@2@@std@@I@std@@QEAA@AEAY06$$CBD$$QEAI@Z 0000000180023ff0 f i color.obj
 0001:00022ff0       ??$?0AEAY0N@$$CBDI$0A@@?$pair@$$CBV?$basic_string@DU?$char_traits@D@std@@V?$allocator@D@2@@std@@I@std@@QEAA@AEAY0N@$$CBD$$QEAI@Z 0000000180023ff0 f i color.obj
 0001:00022ff0       ??$?0AEAY09$$CBDH$0A@@?$pair@$$CBV?$basic_string@DU?$char_traits@D@std@@V?$allocator@D@2@@std@@I@std@@QEAA@AEAY09$$CBD$$QEAH@Z 0000000180023ff0 f i color.obj
 0001:00022ff0       ??$?0AEAY04$$CBDI$0A@@?$pair@$$CBV?$basic_string@DU?$char_traits@D@std@@V?$allocator@D@2@@std@@I@std@@QEAA@AEAY04$$CBD$$QEAI@Z 0000000180023ff0 f i color.obj
 0001:00022ff0       ??$?0AEAY0O@$$CBDI$0A@@?$pair@$$CBV?$basic_string@DU?$char_traits@D@std@@V?$allocator@D@2@@std@@I@std@@QEAA@AEAY0O@$$CBD$$QEAI@Z 0000000180023ff0 f i color.obj
 0001:00022ff0       ??$?0AEAY0L@$$CBDH$0A@@?$pair@$$CBV?$basic_string@DU?$char_traits@D@std@@V?$allocator@D@2@@std@@I@std@@QEAA@AEAY0L@$$CBD$$QEAH@Z 0000000180023ff0 f i color.obj
 0001:00022ff0       ??$?0AEAY0BA@$$CBDH$0A@@?$pair@$$CBV?$basic_string@DU?$char_traits@D@std@@V?$allocator@D@2@@std@@I@std@@QEAA@AEAY0BA@$$CBD$$QEAH@Z 0000000180023ff0 f i color.obj
 0001:00022ff0       ??$?0AEAY07$$CBDI$0A@@?$pair@$$CBV?$basic_string@DU?$char_traits@D@std@@V?$allocator@D@2@@std@@I@std@@QEAA@AEAY07$$CBD$$QEAI@Z 0000000180023ff0 f i color.obj
 0001:00022ff0       ??$?0AEAY0P@$$CBDH$0A@@?$pair@$$CBV?$basic_string@DU?$char_traits@D@std@@V?$allocator@D@2@@std@@I@std@@QEAA@AEAY0P@$$CBD$$QEAH@Z 0000000180023ff0 f i color.obj
 0001:00022ff0       ??$?0AEAY08$$CBDH$0A@@?$pair@$$CBV?$basic_string@DU?$char_traits@D@std@@V?$allocator@D@2@@std@@I@std@@QEAA@AEAY08$$CBD$$QEAH@Z 0000000180023ff0 f i color.obj
 0001:00022ff0       ??$?0AEAY03$$CBDI$0A@@?$pair@$$CBV?$basic_string@DU?$char_traits@D@std@@V?$allocator@D@2@@std@@I@std@@QEAA@AEAY03$$CBD$$QEAI@Z 0000000180023ff0 f i color.obj
 0001:00022ff0       ??$?0AEAY0M@$$CBDI$0A@@?$pair@$$CBV?$basic_string@DU?$char_traits@D@std@@V?$allocator@D@2@@std@@I@std@@QEAA@AEAY0M@$$CBD$$QEAI@Z 0000000180023ff0 f i color.obj
 0001:00022ff0       ??$?0AEAY0L@$$CBDI$0A@@?$pair@$$CBV?$basic_string@DU?$char_traits@D@std@@V?$allocator@D@2@@std@@I@std@@QEAA@AEAY0L@$$CBD$$QEAI@Z 0000000180023ff0 f i color.obj
 0001:00022ff0       ??$?0AEAY08$$CBDI$0A@@?$pair@$$CBV?$basic_string@DU?$char_traits@D@std@@V?$allocator@D@2@@std@@I@std@@QEAA@AEAY08$$CBD$$QEAI@Z 0000000180023ff0 f i color.obj
 0001:00022ff0       ??$?0AEAY0O@$$CBDH$0A@@?$pair@$$CBV?$basic_string@DU?$char_traits@D@std@@V?$allocator@D@2@@std@@I@std@@QEAA@AEAY0O@$$CBD$$QEAH@Z 0000000180023ff0 f i color.obj
 0001:00022ff0       ??$?0AEAY05$$CBDI$0A@@?$pair@$$CBV?$basic_string@DU?$char_traits@D@std@@V?$allocator@D@2@@std@@I@std@@QEAA@AEAY05$$CBD$$QEAI@Z 0000000180023ff0 f i color.obj
 0001:00022ff0       ??$?0AEAY09$$CBDI$0A@@?$pair@$$CBV?$basic_string@DU?$char_traits@D@std@@V?$allocator@D@2@@std@@I@std@@QEAA@AEAY09$$CBD$$QEAI@Z 0000000180023ff0 f i color.obj
 0001:00023050       ??$?0AEAY0BB@$$CBDH$0A@@?$pair@$$CBV?$basic_string@DU?$char_traits@D@std@@V?$allocator@D@2@@std@@I@std@@QEAA@AEAY0BB@$$CBD$$QEAH@Z 0000000180024050 f i color.obj
 0001:000230a0       ??$?0AEAY0BC@$$CBDH$0A@@?$pair@$$CBV?$basic_string@DU?$char_traits@D@std@@V?$allocator@D@2@@std@@I@std@@QEAA@AEAY0BC@$$CBD$$QEAH@Z 00000001800240a0 f i color.obj
 0001:000230f0       ??$?0AEAY0BA@$$CBDI$0A@@?$pair@$$CBV?$basic_string@DU?$char_traits@D@std@@V?$allocator@D@2@@std@@I@std@@QEAA@AEAY0BA@$$CBD$$QEAI@Z 00000001800240f0 f i color.obj
 0001:00023140       ??$?0AEAY0N@$$CBDH$0A@@?$pair@$$CBV?$basic_string@DU?$char_traits@D@std@@V?$allocator@D@2@@std@@I@std@@QEAA@AEAY0N@$$CBD$$QEAH@Z 0000000180024140 f i color.obj
 0001:00023190       ??$_Find_hint@V?$basic_string@DU?$char_traits@D@std@@V?$allocator@D@2@@std@@@?$_Tree@V?$_Tmap_traits@V?$basic_string@DU?$char_traits@D@std@@V?$allocator@D@2@@std@@IU?$less@V?$basic_string@DU?$char_traits@D@std@@V?$allocator@D@2@@std@@@2@V?$allocator@U?$pair@$$CBV?$basic_string@DU?$char_traits@D@std@@V?$allocator@D@2@@std@@I@std@@@2@$0A@@std@@@std@@IEBA?AU?$_Tree_find_hint_result@PEAU?$_Tree_node@U?$pair@$$CBV?$basic_string@DU?$char_traits@D@std@@V?$allocator@D@2@@std@@I@std@@PEAX@std@@@1@QEAU?$_Tree_node@U?$pair@$$CBV?$basic_string@DU?$char_traits@D@std@@V?$allocator@D@2@@std@@I@std@@PEAX@1@AEBV?$basic_string@DU?$char_traits@D@std@@V?$allocator@D@2@@1@@Z 0000000180024190 f i color.obj
 0001:000235e0       ?Export@Nan@@YAXV?$Local@VObject@v8@@@v8@@PEBDP6AXAEBV?$FunctionCallbackInfo@VValue@v8@@@1@@Z@Z 00000001800245e0 f i Image.obj
 0001:00023740       ?Initialize@Image@@SAXV?$Local@VObject@v8@@@v8@@@Z 0000000180024740 f   Image.obj
 0001:00023c00       ?New@Image@@SAXAEBV?$FunctionCallbackInfo@VValue@v8@@@Nan@@@Z 0000000180024c00 f   Image.obj
 0001:00023e90       ?GetComplete@Image@@SAXV?$Local@VString@v8@@@v8@@AEBV?$PropertyCallbackInfo@VValue@v8@@@Nan@@@Z 0000000180024e90 f   Image.obj
 0001:00023ed0       ?GetDataMode@Image@@SAXV?$Local@VString@v8@@@v8@@AEBV?$PropertyCallbackInfo@VValue@v8@@@Nan@@@Z 0000000180024ed0 f   Image.obj
 0001:00023f50       ?SetDataMode@Image@@SAXV?$Local@VString@v8@@@v8@@V?$Local@VValue@v8@@@3@AEBV?$PropertyCallbackInfo@X@Nan@@@Z 0000000180024f50 f   Image.obj
 0001:00024000       ?GetNaturalWidth@Image@@SAXV?$Local@VString@v8@@@v8@@AEBV?$PropertyCallbackInfo@VValue@v8@@@Nan@@@Z 0000000180025000 f   Image.obj
 0001:00024080       ?GetWidth@Image@@SAXV?$Local@VString@v8@@@v8@@AEBV?$PropertyCallbackInfo@VValue@v8@@@Nan@@@Z 0000000180025080 f   Image.obj
 0001:00024100       ?SetWidth@Image@@SAXV?$Local@VString@v8@@@v8@@V?$Local@VValue@v8@@@3@AEBV?$PropertyCallbackInfo@X@Nan@@@Z 0000000180025100 f   Image.obj
 0001:000241b0       ?GetNaturalHeight@Image@@SAXV?$Local@VString@v8@@@v8@@AEBV?$PropertyCallbackInfo@VValue@v8@@@Nan@@@Z 00000001800251b0 f   Image.obj
 0001:00024230       ?GetHeight@Image@@SAXV?$Local@VString@v8@@@v8@@AEBV?$PropertyCallbackInfo@VValue@v8@@@Nan@@@Z 0000000180025230 f   Image.obj
 0001:000242b0       ?SetHeight@Image@@SAXV?$Local@VString@v8@@@v8@@V?$Local@VValue@v8@@@3@AEBV?$PropertyCallbackInfo@X@Nan@@@Z 00000001800252b0 f   Image.obj
 0001:00024360       ?GetSource@Image@@SAXAEBV?$FunctionCallbackInfo@VValue@v8@@@Nan@@@Z 0000000180025360 f   Image.obj
 0001:00024450       ?clearData@Image@@QEAAXXZ  0000000180025450 f   Image.obj
 0001:000244e0       ?SetSource@Image@@SAXAEBV?$FunctionCallbackInfo@VValue@v8@@@Nan@@@Z 00000001800254e0 f   Image.obj
 0001:00024b50       ??1CanvasError@@QEAA@XZ    0000000180025b50 f i Image.obj
 0001:00024c50       ?loadFromBuffer@Image@@QEAA?AW4_cairo_status@@PEAEI@Z 0000000180025c50 f   Image.obj
 0001:00024e50       ?readPNG@Image@@SA?AW4_cairo_status@@PEAXPEAEI@Z 0000000180025e50 f   Image.obj
 0001:00024e90       ??_EImage@@EEAAPEAXI@Z     0000000180025e90 f i * CIL library *:* CIL module *
 0001:00024e90       ??_GImage@@EEAAPEAXI@Z     0000000180025e90 f i Image.obj
 0001:00024f10       ?surface@Image@@QEAAPEAU_cairo_surface@@XZ 0000000180025f10 f   Image.obj
 0001:00025010       ?loadSurface@Image@@QEAA?AW4_cairo_status@@XZ 0000000180026010 f   Image.obj
 0001:00025440       ?read_gif_from_memory@@YAHPEAUGifFileType@@PEAEH@Z 0000000180026440 f   Image.obj
 0001:00025490       ?loadGIFFromBuffer@Image@@QEAA?AW4_cairo_status@@PEAEI@Z 0000000180026490 f   Image.obj
 0001:00025a20       ?jpegToARGB@Image@@QEAAXPEAUjpeg_decompress_struct@@PEAE1V?$function@$$A6AIPEAE@Z@std@@@Z 0000000180026a20 f   Image.obj
 0001:00025b10       ??1?$function@$$A6AIPEAE@Z@std@@QEAA@XZ 0000000180026b10 f i Image.obj
 0001:00025b40       ?decodeJPEGIntoSurface@Image@@QEAA?AW4_cairo_status@@PEAUjpeg_decompress_struct@@@Z 0000000180026b40 f   Image.obj
 0001:00025d20       ?decodeJPEGBufferIntoMimeSurface@Image@@QEAA?AW4_cairo_status@@PEAEI@Z 0000000180026d20 f   Image.obj
 0001:00025ed0       ?clearMimeData@@YAXPEAX@Z  0000000180026ed0 f   Image.obj
 0001:00025f00       ?assignDataAsMime@Image@@QEAA?AW4_cairo_status@@PEAEHPEBD@Z 0000000180026f00 f   Image.obj
 0001:00026000       ?loadJPEGFromBuffer@Image@@QEAA?AW4_cairo_status@@PEAEI@Z 0000000180027000 f   Image.obj
 0001:00026100       ?loadJPEG@Image@@QEAA?AW4_cairo_status@@PEAU_iobuf@@@Z 0000000180027100 f   Image.obj
 0001:00026220       ?loadSVGFromBuffer@Image@@QEAA?AW4_cairo_status@@PEAEI@Z 0000000180027220 f   Image.obj
 0001:000262e0       ?renderSVGToSurface@Image@@QEAA?AW4_cairo_status@@XZ 00000001800272e0 f   Image.obj
 0001:00026410       ?loadBMPFromBuffer@Image@@QEAA?AW4_cairo_status@@PEAEI@Z 0000000180027410 f   Image.obj
 0001:000266f0       ?isSVG@Image@@SAHPEAEI@Z   00000001800276f0 f   Image.obj
 0001:00026770       ?isBMP@Image@@SAHPEAEI@Z   0000000180027770 f   Image.obj
 0001:00026ac0       ?ThrowRangeError@Nan@@YAXPEBD@Z 0000000180027ac0 f i ImageData.obj
 0001:00026b50       ??_GImageData@@UEAAPEAXI@Z 0000000180027b50 f i ImageData.obj
 0001:00026b50       ??_EImageData@@UEAAPEAXI@Z 0000000180027b50 f i * CIL library *:* CIL module *
 0001:00026bb0       ?Initialize@ImageData@@SAXV?$Local@VObject@v8@@@v8@@@Z 0000000180027bb0 f   ImageData.obj
 0001:00026e20       ?New@ImageData@@SAXAEBV?$FunctionCallbackInfo@VValue@v8@@@Nan@@@Z 0000000180027e20 f   ImageData.obj
 0001:000274e0       ?GetWidth@ImageData@@SAXV?$Local@VString@v8@@@v8@@AEBV?$PropertyCallbackInfo@VValue@v8@@@Nan@@@Z 00000001800284e0 f   ImageData.obj
 0001:00027560       ?GetHeight@ImageData@@SAXV?$Local@VString@v8@@@v8@@AEBV?$PropertyCallbackInfo@VValue@v8@@@Nan@@@Z 0000000180028560 f   ImageData.obj
 0001:000275e0       ?init@@YAXV?$Local@VObject@v8@@@v8@@@Z 00000001800285e0 f   init.obj
 0001:00027d10       ?_name_def_compare@@YAHPEBX0@Z 0000000180028d10 f   register_font.obj
 0001:00027d30       ?_free_g_list_item@@YAXPEAX0@Z 0000000180028d30 f   register_font.obj
 0001:00027d40       ?get_family_name@@YAPEADPEAUFT_FaceRec_@@@Z 0000000180028d40 f   register_font.obj
 0001:00027f60       ?get_pango_font_description@@YAPEAU_PangoFontDescription@@PEAE@Z 0000000180028f60 f   register_font.obj
 0001:000281b4       __imp_load_?GetCurrentContext@Isolate@v8@@QEAA?AV?$Local@VContext@v8@@@2@XZ 00000001800291b4 f   node:node.exe
 0001:000281c0       __tailMerge_node_exe       00000001800291c0     node:node.exe
 0001:00028239       __imp_load_?GetCurrent@Isolate@v8@@SAPEAV12@XZ 0000000180029239 f   node:node.exe
 0001:00028245       __imp_load_??1HandleScope@v8@@QEAA@XZ 0000000180029245 f   node:node.exe
 0001:00028251       ??1HandleScope@v8@@QEAA@XZ 0000000180029251 f   node:node.exe
 0001:00028257       __imp_load_??0HandleScope@v8@@QEAA@PEAVIsolate@1@@Z 0000000180029257 f   node:node.exe
 0001:00028263       __imp_load_?ClearWeak@V8@v8@@CAPEAXPEAPEAVObject@internal@2@@Z 0000000180029263 f   node:node.exe
 0001:0002826f       __imp_load_?MakeWeak@V8@v8@@CAXPEAPEAVObject@internal@2@PEAXP6AXAEBV?$WeakCallbackInfo@X@2@@ZW4WeakCallbackType@2@@Z 000000018002926f f   node:node.exe
 0001:0002827b       __imp_load_?DisposeGlobal@V8@v8@@CAXPEAPEAVObject@internal@2@@Z 000000018002927b f   node:node.exe
 0001:00028287       __imp_load_?GlobalizeReference@V8@v8@@CAPEAPEAVObject@internal@2@PEAVIsolate@42@PEAPEAV342@@Z 0000000180029287 f   node:node.exe
 0001:00028293       __imp_load_?Uint32Value@Value@v8@@QEBA?AV?$Maybe@I@2@V?$Local@VContext@v8@@@2@@Z 0000000180029293 f   node:node.exe
 0001:0002829f       __imp_load_?IsNumber@Value@v8@@QEBA_NXZ 000000018002929f f   node:node.exe
 0001:000282ab       __imp_load_?SetAlignedPointerInInternalField@Object@v8@@QEAAXHPEAX@Z 00000001800292ab f   node:node.exe
 0001:000282b7       __imp_load_?InternalFieldCount@Object@v8@@QEAAHXZ 00000001800292b7 f   node:node.exe
 0001:000282c3       __imp_load_?Value@External@v8@@QEBAPEAXXZ 00000001800292c3 f   node:node.exe
 0001:000282cf       __imp_load_?New@External@v8@@SA?AV?$Local@VExternal@v8@@@2@PEAVIsolate@2@PEAX@Z 00000001800292cf f   node:node.exe
 0001:000282db       __imp_load_?CheckMemoryPressure@Isolate@v8@@AEAAXXZ 00000001800292db f   node:node.exe
 0001:000282e7       __imp_load_?ReportExternalAllocationLimitReached@Isolate@v8@@AEAAXXZ 00000001800292e7 f   node:node.exe
 0001:000282f3       __imp_load_?CreateHandle@HandleScope@v8@@KAPEAPEAVObject@internal@2@PEAVIsolate@42@PEAV342@@Z 00000001800292f3 f   node:node.exe
 0001:000282ff       __imp_load_?CreateHandle@HandleScope@v8@@CAPEAPEAVObject@internal@2@PEAVHeapObject@42@PEAV342@@Z 00000001800292ff f   node:node.exe
 0001:0002830b       __imp_load_?SetClassName@FunctionTemplate@v8@@QEAAXV?$Local@VString@v8@@@2@@Z 000000018002930b f   node:node.exe
 0001:00028317       __imp_load_?InstanceTemplate@FunctionTemplate@v8@@QEAA?AV?$Local@VObjectTemplate@v8@@@2@XZ 0000000180029317 f   node:node.exe
 0001:00028323       __imp_load_?GetFunction@FunctionTemplate@v8@@QEAA?AV?$MaybeLocal@VFunction@v8@@@2@V?$Local@VContext@v8@@@2@@Z 0000000180029323 f   node:node.exe
 0001:0002832f       __imp_load_?New@FunctionTemplate@v8@@SA?AV?$Local@VFunctionTemplate@v8@@@2@PEAVIsolate@2@P6AXAEBV?$FunctionCallbackInfo@VValue@v8@@@2@@ZV?$Local@VValue@v8@@@2@V?$Local@VSignature@v8@@@2@HW4ConstructorBehavior@2@W4SideEffectType@2@@Z 000000018002932f f   node:node.exe
 0001:0002833b       __imp_load_?ToLocalEmpty@V8@v8@@CAXXZ 000000018002933b f   node:node.exe
 0001:00028347       __imp_load_?Escape@EscapableHandleScope@v8@@AEAAPEAPEAVObject@internal@2@PEAPEAV342@@Z 0000000180029347 f   node:node.exe
 0001:00028353       __imp_load_??0EscapableHandleScope@v8@@QEAA@PEAVIsolate@1@@Z 0000000180029353 f   node:node.exe
 0001:0002835f       __imp_load_?NewFromUtf8@String@v8@@SA?AV?$MaybeLocal@VString@v8@@@2@PEAVIsolate@2@PEBDW4NewStringType@2@H@Z 000000018002935f f   node:node.exe
 0001:0002836b       __imp_load_?SlowGetInternalField@Object@v8@@AEAA?AV?$Local@VValue@v8@@@2@H@Z 000000018002936b f   node:node.exe
 0001:00028377       __imp_load_?SetInternalField@Object@v8@@QEAAXHV?$Local@VValue@v8@@@2@@Z 0000000180029377 f   node:node.exe
 0001:00028383       __imp_load_?Set@Object@v8@@QEAA?AV?$Maybe@_N@2@V?$Local@VContext@v8@@@2@V?$Local@VValue@v8@@@2@1@Z 0000000180029383 f   node:node.exe
 0001:0002838f       __imp_load_?SetInternalFieldCount@ObjectTemplate@v8@@QEAAXH@Z 000000018002938f f   node:node.exe
 0001:0002839b       __imp_load_?NewInstance@ObjectTemplate@v8@@QEAA?AV?$MaybeLocal@VObject@v8@@@2@V?$Local@VContext@v8@@@2@@Z 000000018002939b f   node:node.exe
 0001:000283a7       __imp_load_?New@ObjectTemplate@v8@@SA?AV?$Local@VObjectTemplate@v8@@@2@PEAVIsolate@2@V?$Local@VFunctionTemplate@v8@@@2@@Z 00000001800293a7 f   node:node.exe
 0001:000283b3       __imp_load_??1EscapableHandleScope@v8@@QEAA@XZ 00000001800293b3 f   node:node.exe
 0001:000283bf       ??1EscapableHandleScope@v8@@QEAA@XZ 00000001800293bf f   node:node.exe
 0001:000283c5       __imp_load_?New@Object@v8@@SA?AV?$Local@VObject@v8@@@2@PEAVIsolate@2@@Z 00000001800293c5 f   node:node.exe
 0001:000283d1       __imp_load_uv_queue_work   00000001800293d1 f   node:node.exe
 0001:000283dd       __imp_load_?GetIsolate@Context@v8@@QEAAPEAVIsolate@2@XZ 00000001800293dd f   node:node.exe
 0001:000283e9       __imp_load_?Global@Context@v8@@QEAA?AV?$Local@VObject@v8@@@2@XZ 00000001800293e9 f   node:node.exe
 0001:000283f5       __imp_load_?NewFromUnsigned@Integer@v8@@SA?AV?$Local@VInteger@v8@@@2@PEAVIsolate@2@I@Z 00000001800293f5 f   node:node.exe
 0001:00028401       __imp_load_?New@Signature@v8@@SA?AV?$Local@VSignature@v8@@@2@PEAVIsolate@2@V?$Local@VFunctionTemplate@v8@@@2@@Z 0000000180029401 f   node:node.exe
 0001:0002840d       __imp_load_?ThrowException@Isolate@v8@@QEAA?AV?$Local@VValue@v8@@@2@V32@@Z 000000018002940d f   node:node.exe
 0001:00028419       __imp_load_?Length@TypedArray@v8@@QEAA_KXZ 0000000180029419 f   node:node.exe
 0001:00028425       __imp_load_?Set@Template@v8@@QEAAXV?$Local@VName@v8@@@2@V?$Local@VData@v8@@@2@W4PropertyAttribute@2@@Z 0000000180029425 f   node:node.exe
 0001:00028431       __imp_load_?ByteLength@ArrayBufferView@v8@@QEAA_KXZ 0000000180029431 f   node:node.exe
 0001:0002843d       __imp_load_?ByteOffset@ArrayBufferView@v8@@QEAA_KXZ 000000018002943d f   node:node.exe
 0001:00028449       __imp_load_?Buffer@ArrayBufferView@v8@@QEAA?AV?$Local@VArrayBuffer@v8@@@2@XZ 0000000180029449 f   node:node.exe
 0001:00028455       __imp_load_?Error@Exception@v8@@SA?AV?$Local@VValue@v8@@@2@V?$Local@VString@v8@@@2@@Z 0000000180029455 f   node:node.exe
 0001:00028461       __imp_load_?TypeError@Exception@v8@@SA?AV?$Local@VValue@v8@@@2@V?$Local@VString@v8@@@2@@Z 0000000180029461 f   node:node.exe
 0001:0002846d       __imp_load_?New@AccessorSignature@v8@@SA?AV?$Local@VAccessorSignature@v8@@@2@PEAVIsolate@2@V?$Local@VFunctionTemplate@v8@@@2@@Z 000000018002946d f   node:node.exe
 0001:00028479       __imp_load_?ValueOf@Date@v8@@QEBANXZ 0000000180029479 f   node:node.exe
 0001:00028485       __imp_load_?HasInstance@FunctionTemplate@v8@@QEAA_NV?$Local@VValue@v8@@@2@@Z 0000000180029485 f   node:node.exe
 0001:00028491       __imp_load_?PrototypeTemplate@FunctionTemplate@v8@@QEAA?AV?$Local@VObjectTemplate@v8@@@2@XZ 0000000180029491 f   node:node.exe
 0001:0002849d       __imp_load_?GetContents@ArrayBuffer@v8@@QEAA?AVContents@12@XZ 000000018002949d f   node:node.exe
 0001:000284a9       __imp_load_?StrictEquals@Value@v8@@QEBA_NV?$Local@VValue@v8@@@2@@Z 00000001800294a9 f   node:node.exe
 0001:000284b5       __imp_load_?NumberValue@Value@v8@@QEBA?AV?$Maybe@N@2@V?$Local@VContext@v8@@@2@@Z 00000001800294b5 f   node:node.exe
 0001:000284c1       __imp_load_?BooleanValue@Value@v8@@QEBA?AV?$Maybe@_N@2@V?$Local@VContext@v8@@@2@@Z 00000001800294c1 f   node:node.exe
 0001:000284cd       __imp_load_?ToUint32@Value@v8@@QEBA?AV?$MaybeLocal@VUint32@v8@@@2@V?$Local@VContext@v8@@@2@@Z 00000001800294cd f   node:node.exe
 0001:000284d9       __imp_load_?ToObject@Value@v8@@QEBA?AV?$MaybeLocal@VObject@v8@@@2@V?$Local@VContext@v8@@@2@@Z 00000001800294d9 f   node:node.exe
 0001:000284e5       __imp_load_?ToString@Value@v8@@QEBA?AV?$MaybeLocal@VString@v8@@@2@V?$Local@VContext@v8@@@2@@Z 00000001800294e5 f   node:node.exe
 0001:000284f1       __imp_load_?IsUint8ClampedArray@Value@v8@@QEBA_NXZ 00000001800294f1 f   node:node.exe
 0001:000284fd       __imp_load_?IsArrayBufferView@Value@v8@@QEBA_NXZ 00000001800294fd f   node:node.exe
 0001:00028509       __imp_load_?IsDate@Value@v8@@QEBA_NXZ 0000000180029509 f   node:node.exe
 0001:00028515       __imp_load_?IsUint32@Value@v8@@QEBA_NXZ 0000000180029515 f   node:node.exe
 0001:00028521       __imp_load_?IsBoolean@Value@v8@@QEBA_NXZ 0000000180029521 f   node:node.exe
 0001:0002852d       __imp_load_?IsObject@Value@v8@@QEBA_NXZ 000000018002952d f   node:node.exe
 0001:00028539       __imp_load_?IsFunction@Value@v8@@QEBA_NXZ 0000000180029539 f   node:node.exe
 0001:00028545       __imp_load_?ReThrow@TryCatch@v8@@QEAA?AV?$Local@VValue@v8@@@2@XZ 0000000180029545 f   node:node.exe
 0001:00028551       __imp_load_?HasCaught@TryCatch@v8@@QEBA_NXZ 0000000180029551 f   node:node.exe
 0001:0002855d       __imp_load_??1TryCatch@v8@@QEAA@XZ 000000018002955d f   node:node.exe
 0001:00028569       __imp_load_??0TryCatch@v8@@QEAA@PEAVIsolate@1@@Z 0000000180029569 f   node:node.exe
 0001:00028575       __imp_load_?WriteUtf8@String@v8@@QEBAHPEADHPEAHH@Z 0000000180029575 f   node:node.exe
 0001:00028581       __imp_load_?Length@String@v8@@QEBAHXZ 0000000180029581 f   node:node.exe
 0001:0002858d       __imp_load_?New@Number@v8@@SA?AV?$Local@VNumber@v8@@@2@PEAVIsolate@2@N@Z 000000018002958d f   node:node.exe
 0001:00028599       __imp_load_?SlowGetAlignedPointerFromInternalField@Object@v8@@AEAAPEAXH@Z 0000000180029599 f   node:node.exe
 0001:000285a5       __imp_load_?Get@Object@v8@@QEAA?AV?$MaybeLocal@VValue@v8@@@2@V?$Local@VContext@v8@@@2@V?$Local@VValue@v8@@@2@@Z 00000001800295a5 f   node:node.exe
 0001:000285b1       __imp_load_?Call@Function@v8@@QEAA?AV?$MaybeLocal@VValue@v8@@@2@V?$Local@VContext@v8@@@2@V?$Local@VValue@v8@@@2@HQEAV52@@Z 00000001800295b1 f   node:node.exe
 0001:000285bd       __imp_load_?SetAccessor@ObjectTemplate@v8@@QEAAXV?$Local@VName@v8@@@2@P6AX0AEBV?$PropertyCallbackInfo@VValue@v8@@@2@@ZP6AX0V?$Local@VValue@v8@@@2@AEBV?$PropertyCallbackInfo@X@2@@Z3W4AccessControl@2@W4PropertyAttribute@2@V?$Local@VAccessorSignature@v8@@@2@@Z 00000001800295bd f   node:node.exe
 0001:000285c9       __imp_load_?EmitAsyncDestroy@node@@YAXPEAVIsolate@v8@@Uasync_context@1@@Z 00000001800295c9 f   node:node.exe
 0001:000285d5       __imp_load_?New@Buffer@node@@YA?AV?$MaybeLocal@VObject@v8@@@v8@@PEAVIsolate@4@PEAD_KP6AX1PEAX@Z3@Z 00000001800295d5 f   node:node.exe
 0001:000285e1       __imp_load_?New@Buffer@node@@YA?AV?$MaybeLocal@VObject@v8@@@v8@@PEAVIsolate@4@PEAD_K@Z 00000001800295e1 f   node:node.exe
 0001:000285ed       __imp_load_?Copy@Buffer@node@@YA?AV?$MaybeLocal@VObject@v8@@@v8@@PEAVIsolate@4@PEBD_K@Z 00000001800295ed f   node:node.exe
 0001:000285f9       __imp_load_?MakeCallback@node@@YA?AV?$MaybeLocal@VValue@v8@@@v8@@PEAVIsolate@3@V?$Local@VObject@v8@@@3@V?$Local@VFunction@v8@@@3@HPEAV?$Local@VValue@v8@@@3@Uasync_context@1@@Z 00000001800295f9 f   node:node.exe
 0001:00028605       __imp_load_?EmitAsyncInit@node@@YA?AUasync_context@1@PEAVIsolate@v8@@V?$Local@VObject@v8@@@4@V?$Local@VString@v8@@@4@N@Z 0000000180029605 f   node:node.exe
 0001:00028611       __imp_load_uv_default_loop 0000000180029611 f   node:node.exe
 0001:0002861d       __imp_load_?New@Uint8ClampedArray@v8@@SA?AV?$Local@VUint8ClampedArray@v8@@@2@V?$Local@VArrayBuffer@v8@@@2@_K1@Z 000000018002961d f   node:node.exe
 0001:00028629       __imp_load_?New@Integer@v8@@SA?AV?$Local@VInteger@v8@@@2@PEAVIsolate@2@H@Z 0000000180029629 f   node:node.exe
 0001:00028635       __imp_load_?New@Array@v8@@SA?AV?$Local@VArray@v8@@@2@PEAVIsolate@2@H@Z 0000000180029635 f   node:node.exe
 0001:00028641       __imp_load_?Length@Array@v8@@QEBAIXZ 0000000180029641 f   node:node.exe
 0001:0002864d       __imp_load_?New@ArrayBuffer@v8@@SA?AV?$Local@VArrayBuffer@v8@@@2@PEAVIsolate@2@_K@Z 000000018002964d f   node:node.exe
 0001:00028659       __imp_load_?FromJustIsNothing@V8@v8@@CAXXZ 0000000180029659 f   node:node.exe
 0001:00028665       __imp_load_?InstanceOf@Value@v8@@QEAA?AV?$Maybe@_N@2@V?$Local@VContext@v8@@@2@V?$Local@VObject@v8@@@2@@Z 0000000180029665 f   node:node.exe
 0001:00028671       __imp_load_?Int32Value@Value@v8@@QEBA?AV?$Maybe@H@2@V?$Local@VContext@v8@@@2@@Z 0000000180029671 f   node:node.exe
 0001:0002867d       __imp_load_?ToInt32@Value@v8@@QEBA?AV?$MaybeLocal@VInt32@v8@@@2@V?$Local@VContext@v8@@@2@@Z 000000018002967d f   node:node.exe
 0001:00028689       __imp_load_?IsArray@Value@v8@@QEBA_NXZ 0000000180029689 f   node:node.exe
 0001:00028695       __imp_load_?New@Float64Array@v8@@SA?AV?$Local@VFloat64Array@v8@@@2@V?$Local@VArrayBuffer@v8@@@2@_K1@Z 0000000180029695 f   node:node.exe
 0001:000286a1       __imp_load_?New@Uint16Array@v8@@SA?AV?$Local@VUint16Array@v8@@@2@V?$Local@VArrayBuffer@v8@@@2@_K1@Z 00000001800296a1 f   node:node.exe
 0001:000286ad       __imp_load_?Get@Object@v8@@QEAA?AV?$MaybeLocal@VValue@v8@@@2@V?$Local@VContext@v8@@@2@I@Z 00000001800296ad f   node:node.exe
 0001:000286b9       __imp_load_?NewInstance@Function@v8@@QEBA?AV?$MaybeLocal@VObject@v8@@@2@V?$Local@VContext@v8@@@2@HQEAV?$Local@VValue@v8@@@2@@Z 00000001800296b9 f   node:node.exe
 0001:000286c5       __imp_load_?New@Function@v8@@SA?AV?$MaybeLocal@VFunction@v8@@@2@V?$Local@VContext@v8@@@2@P6AXAEBV?$FunctionCallbackInfo@VValue@v8@@@2@@ZV?$Local@VValue@v8@@@2@HW4ConstructorBehavior@2@W4SideEffectType@2@@Z 00000001800296c5 f   node:node.exe
 0001:000286d1       __imp_load_?HasInstance@Buffer@node@@YA_NV?$Local@VValue@v8@@@v8@@@Z 00000001800296d1 f   node:node.exe
 0001:000286dd       __imp_load_?Data@Buffer@node@@YAPEADV?$Local@VObject@v8@@@v8@@@Z 00000001800296dd f   node:node.exe
 0001:000286e9       __imp_load_?Length@Buffer@node@@YA_KV?$Local@VObject@v8@@@v8@@@Z 00000001800296e9 f   node:node.exe
 0001:000286f5       __imp_load_?ErrnoException@node@@YA?AV?$Local@VValue@v8@@@v8@@PEAVIsolate@3@HPEBD11@Z 00000001800296f5 f   node:node.exe
 0001:00028701       __imp_load_?RangeError@Exception@v8@@SA?AV?$Local@VValue@v8@@@2@V?$Local@VString@v8@@@2@@Z 0000000180029701 f   node:node.exe
 0001:0002870d       __imp_load_?IsUint16Array@Value@v8@@QEBA_NXZ 000000018002970d f   node:node.exe
 0001:00028719       __imp_load_node_module_register 0000000180029719 f   node:node.exe
 0001:00028728       ??0bad_alloc@std@@QEAA@AEBV01@@Z 0000000180029728 f i libcpmt:xthrow.obj
 0001:00028764       ??0bad_alloc@std@@QEAA@XZ  0000000180029764 f i libcpmt:xthrow.obj
 0001:00028784       ??0bad_function_call@std@@QEAA@AEBV01@@Z 0000000180029784 f i libcpmt:xthrow.obj
 0001:000287c0       ??0bad_function_call@std@@QEAA@XZ 00000001800297c0 f i libcpmt:xthrow.obj
 0001:000287d8       ??0exception@std@@QEAA@AEBV01@@Z 00000001800297d8 f i libcpmt:xthrow.obj
 0001:0002880c       ??0length_error@std@@QEAA@AEBV01@@Z 000000018002980c f i libcpmt:xthrow.obj
 0001:00028848       ??0length_error@std@@QEAA@PEBD@Z 0000000180029848 f i libcpmt:xthrow.obj
 0001:00028890       ??0logic_error@std@@QEAA@AEBV01@@Z 0000000180029890 f i libcpmt:xthrow.obj
 0001:000288cc       ??0runtime_error@std@@QEAA@AEBV01@@Z 00000001800298cc f i libcpmt:xthrow.obj
 0001:00028908       ??0runtime_error@std@@QEAA@PEBD@Z 0000000180029908 f i libcpmt:xthrow.obj
 0001:00028950       ??1bad_exception@std@@UEAA@XZ 0000000180029950 f i libvcruntime:frame.obj
 0001:00028950       ??1bad_alloc@std@@UEAA@XZ  0000000180029950 f i libcpmt:xthrow.obj
 0001:00028950       ??1bad_array_new_length@std@@UEAA@XZ 0000000180029950 f i libcpmt:locale.obj
 0001:00028950       ??1bad_function_call@std@@UEAA@XZ 0000000180029950 f i libcpmt:xthrow.obj
 0001:00028950       ??1length_error@std@@UEAA@XZ 0000000180029950 f i libcpmt:xthrow.obj
 0001:00028964       ??_Gbad_array_new_length@std@@UEAAPEAXI@Z 0000000180029964 f i libcpmt:locale.obj
 0001:00028964       ??_Ebad_function_call@std@@UEAAPEAXI@Z 0000000180029964 f i libcpmt:xthrow.obj
 0001:00028964       ??_Gbad_exception@std@@UEAAPEAXI@Z 0000000180029964 f i libvcruntime:frame.obj
 0001:00028964       ??_Eexception@std@@UEAAPEAXI@Z 0000000180029964 f i libcpmt:xthrow.obj
 0001:00028964       ??_Gexception@std@@UEAAPEAXI@Z 0000000180029964 f i libcpmt:xthrow.obj
 0001:00028964       ??_Ebad_array_new_length@std@@UEAAPEAXI@Z 0000000180029964 f i libcpmt:locale.obj
 0001:00028964       ??_Gbad_function_call@std@@UEAAPEAXI@Z 0000000180029964 f i libcpmt:xthrow.obj
 0001:00028964       ??_Ebad_alloc@std@@UEAAPEAXI@Z 0000000180029964 f i libcpmt:xthrow.obj
 0001:00028964       ??_Glength_error@std@@UEAAPEAXI@Z 0000000180029964 f i libcpmt:xthrow.obj
 0001:00028964       ??_Glogic_error@std@@UEAAPEAXI@Z 0000000180029964 f i libcpmt:xthrow.obj
 0001:00028964       ??_Elogic_error@std@@UEAAPEAXI@Z 0000000180029964 f i libcpmt:xthrow.obj
 0001:00028964       ??_Elength_error@std@@UEAAPEAXI@Z 0000000180029964 f i libcpmt:xthrow.obj
 0001:00028964       ??_Gbad_alloc@std@@UEAAPEAXI@Z 0000000180029964 f i libcpmt:xthrow.obj
 0001:00028964       ??_Ebad_exception@std@@UEAAPEAXI@Z 0000000180029964 f i libvcruntime:frame.obj
 0001:000289a8       ?_Xbad_alloc@std@@YAXXZ    00000001800299a8 f   libcpmt:xthrow.obj
 0001:000289a8       ?__scrt_throw_std_bad_alloc@@YAXXZ 00000001800299a8 f   LIBCMT:throw_bad_alloc.obj
 0001:000289c8       ?_Xbad_function_call@std@@YAXXZ 00000001800299c8 f   libcpmt:xthrow.obj
 0001:000289e8       ?_Xlength_error@std@@YAXPEBD@Z 00000001800299e8 f   libcpmt:xthrow.obj
 0001:00028a0c       ?_Xruntime_error@std@@YAXPEBD@Z 0000000180029a0c f   libcpmt:xthrow.obj
 0001:00028a30       ?what@bad_function_call@std@@UEBAPEBDXZ 0000000180029a30 f i libcpmt:xthrow.obj
 0001:00028a38       ?what@exception@std@@UEBAPEBDXZ 0000000180029a38 f i libcpmt:xthrow.obj
 0001:00028a4c       ??0_Init_locks@std@@QEAA@XZ 0000000180029a4c f   libcpmt:xlock.obj
 0001:00028a90       ??0_Lockit@std@@QEAA@H@Z   0000000180029a90 f   libcpmt:xlock.obj
 0001:00028acc       ??1_Init_locks@std@@QEAA@XZ 0000000180029acc f   libcpmt:xlock.obj
 0001:00028b08       ??1_Lockit@std@@QEAA@XZ    0000000180029b08 f   libcpmt:xlock.obj
 0001:00028b3c       ??0_Locimp@locale@std@@AEAA@_N@Z 0000000180029b3c f i libcpmt:locale0.obj
 0001:00028bc4       ??4?$_Yarn@D@std@@QEAAAEAV01@PEBD@Z 0000000180029bc4 f i libcpmt:locale0.obj
 0001:00028c3c       ??_G_Locimp@locale@std@@MEAAPEAXI@Z 0000000180029c3c f i libcpmt:locale0.obj
 0001:00028c3c       ??_E_Locimp@locale@std@@MEAAPEAXI@Z 0000000180029c3c f i libcpmt:locale0.obj
 0001:00028c98       ?_Facet_Register@std@@YAXPEAV_Facet_base@1@@Z 0000000180029c98 f   libcpmt:locale0.obj
 0001:00028cd0       ?_Getgloballocale@locale@std@@CAPEAV_Locimp@12@XZ 0000000180029cd0 f   libcpmt:locale0.obj
 0001:00028cd8       ?_Init@locale@std@@CAPEAV_Locimp@12@_N@Z 0000000180029cd8 f   libcpmt:locale0.obj
 0001:00028dd0       ?_Locimp_dtor@_Locimp@locale@std@@CAXPEAV123@@Z 0000000180029dd0 f   libcpmt:locale0.obj
 0001:00028e4c       ?_Locinfo_ctor@_Locinfo@std@@SAXPEAV12@PEBD@Z 0000000180029e4c f   libcpmt:locale0.obj
 0001:00028eb8       ?_Locinfo_dtor@_Locinfo@std@@SAXPEAV12@@Z 0000000180029eb8 f   libcpmt:locale0.obj
 0001:00028ed4       ?_New_Locimp@_Locimp@locale@std@@CAPEAV123@_N@Z 0000000180029ed4 f   libcpmt:locale0.obj
 0001:00028f04       ?_Setgloballocale@locale@std@@CAXPEAX@Z 0000000180029f04 f   libcpmt:locale0.obj
 0001:00028f38       _Deletegloballocale        0000000180029f38 f   libcpmt:locale0.obj
 0001:00028fa8       ?_Ios_base_dtor@ios_base@std@@CAXPEAV12@@Z 0000000180029fa8 f   libcpmt:ios.obj
 0001:00029020       ?_Tidy@ios_base@std@@AEAAXXZ 000000018002a020 f i libcpmt:ios.obj
 0001:000290a0       ?_Syserror_map@std@@YAPEBDH@Z 000000018002a0a0 f   libcpmt:syserror.obj
 0001:000290c8       _Getctype                  000000018002a0c8 f   libcpmt:_tolower.obj
 0001:00029188       _Tolower                   000000018002a188 f   libcpmt:_tolower.obj
 0001:000292b8       _Toupper                   000000018002a2b8 f   libcpmt:_toupper.obj
 0001:000293f8       _Mtxdst                    000000018002a3f8 f   libcpmt:xmtx.obj
 0001:00029400       _Mtxinit                   000000018002a400 f   libcpmt:xmtx.obj
 0001:00029410       _Mtxlock                   000000018002a410 f   libcpmt:xmtx.obj
 0001:00029418       _Mtxunlock                 000000018002a418 f   libcpmt:xmtx.obj
 0001:00029420       ??0bad_array_new_length@std@@QEAA@AEBV01@@Z 000000018002a420 f i libcpmt:locale.obj
 0001:0002945c       ??0bad_array_new_length@std@@QEAA@XZ 000000018002a45c f i libcpmt:locale.obj
 0001:0002947c       ?_Atexit@@YAXP6AXXZ@Z      000000018002a47c f   libcpmt:iosptrs.obj
 0001:000294b8       __crtLCMapStringA          000000018002a4b8 f   libcpmt:StlLCMapStringA.obj
 0001:000297d0       __security_check_cookie    000000018002a7d0 f   LIBCMT:amdsecgs.obj
 0001:000297f4       ??2@YAPEAX_K@Z             000000018002a7f4 f   LIBCMT:new_scalar.obj
 0001:00029830       ??3@YAXPEAX_K@Z            000000018002a830 f   LIBCMT:delete_scalar_size.obj
 0001:00029830       ??_V@YAXPEAX@Z             000000018002a830 f   LIBCMT:delete_array.obj
 0001:00029838       __scrt_acquire_startup_lock 000000018002a838 f   LIBCMT:utility.obj
 0001:00029874       __scrt_dllmain_after_initialize_c 000000018002a874 f   LIBCMT:utility.obj
 0001:000298a8       __scrt_dllmain_before_initialize_c 000000018002a8a8 f   LIBCMT:utility.obj
 0001:000298c0       __scrt_dllmain_crt_thread_attach 000000018002a8c0 f   LIBCMT:utility.obj
 0001:000298e8       __scrt_dllmain_crt_thread_detach 000000018002a8e8 f   LIBCMT:utility.obj
 0001:00029900       __scrt_dllmain_exception_filter 000000018002a900 f   LIBCMT:utility.obj
 0001:00029960       __scrt_dllmain_uninitialize_c 000000018002a960 f   LIBCMT:utility.obj
 0001:00029990       __scrt_dllmain_uninitialize_critical 000000018002a990 f   LIBCMT:utility.obj
 0001:000299a4       __scrt_initialize_crt      000000018002a9a4 f   LIBCMT:utility.obj
 0001:000299f0       __scrt_initialize_onexit_tables 000000018002a9f0 f   LIBCMT:utility.obj
 0001:00029a7c       __scrt_is_nonwritable_in_current_image 000000018002aa7c f   LIBCMT:utility.obj
 0001:00029b14       __scrt_release_startup_lock 000000018002ab14 f   LIBCMT:utility.obj
 0001:00029b38       __scrt_uninitialize_crt    000000018002ab38 f   LIBCMT:utility.obj
 0001:00029b64       _onexit                    000000018002ab64 f   LIBCMT:utility.obj
 0001:00029ba0       atexit                     000000018002aba0 f   LIBCMT:utility.obj
 0001:00029bb8       ??_Etype_info@@UEAAPEAXI@Z 000000018002abb8 f i LIBCMT:std_type_info_static.obj
 0001:00029bb8       ??_Gtype_info@@UEAAPEAXI@Z 000000018002abb8 f i LIBCMT:std_type_info_static.obj
 0001:00029be4       ??_U@YAPEAX_KAEBUnothrow_t@std@@@Z 000000018002abe4 f   LIBCMT:new_array_nothrow.obj
 0001:00029bec       ??_M@YAXPEAX_K1P6AX0@Z@Z   000000018002abec f   LIBCMT:ehvecdtr.obj
 0001:00029c58       ?__ArrayUnwind@@YAXPEAX_K1P6AX0@Z@Z 000000018002ac58 f   LIBCMT:ehvecdtr.obj
 0001:00029cbc       ??_U@YAPEAX_K@Z            000000018002acbc f   LIBCMT:new_array.obj
 0001:00029fe4       _DllMainCRTStartup         000000018002afe4 f   LIBCMT:dll_dllmain.obj
 0001:0002a024       __GSHandlerCheck           000000018002b024 f   LIBCMT:gshandler.obj
 0001:0002a044       __GSHandlerCheckCommon     000000018002b044 f   LIBCMT:gshandler.obj
 0001:0002a0a0       __GSHandlerCheck_EH4       000000018002b0a0 f   LIBCMT:gshandlereh4.obj
 0001:0002a130       _alloca_probe              000000018002b130 f   LIBCMT:chkstk.obj
 0001:0002a130       __chkstk                   000000018002b130 f   LIBCMT:chkstk.obj
 0001:0002a184       __raise_securityfailure    000000018002b184 f   LIBCMT:gs_report.obj
 0001:0002a1b8       __report_gsfailure         000000018002b1b8 f   LIBCMT:gs_report.obj
 0001:0002a28c       __report_rangecheckfailure 000000018002b28c f   LIBCMT:gs_report.obj
 0001:0002a2a0       __report_securityfailure   000000018002b2a0 f   LIBCMT:gs_report.obj
 0001:0002a420       ?__scrt_throw_std_bad_array_new_length@@YAXXZ 000000018002b420 f   LIBCMT:throw_bad_alloc.obj
 0001:0002a440       ??3@YAXPEAX@Z              000000018002b440 f   LIBCMT:delete_scalar.obj
 0001:0002a448       __isa_available_init       000000018002b448 f   LIBCMT:cpu_disp.obj
 0001:0002a5ec       _get_startup_argv_mode     000000018002b5ec f   LIBCMT:argv_mode.obj
 0001:0002a5ec       DllMain                    000000018002b5ec f   LIBCMT:dll_dllmain_stub.obj
 0001:0002a5f4       __scrt_is_ucrt_dll_in_use  000000018002b5f4 f   LIBCMT:ucrt_detection.obj
 0001:0002a600       __crt_debugger_hook        000000018002b600 f   LIBCMT:utility_desktop.obj
 0001:0002a608       __scrt_fastfail            000000018002b608 f   LIBCMT:utility_desktop.obj
 0001:0002a754       ??2@YAPEAX_KAEBUnothrow_t@std@@@Z 000000018002b754 f   LIBCMT:new_scalar_nothrow.obj
 0001:0002a768       __security_init_cookie     000000018002b768 f   LIBCMT:gs_support.obj
 0001:0002a814       ?__scrt_initialize_type_info@@YAXXZ 000000018002b814 f   LIBCMT:tncleanup.obj
 0001:0002a824       ?__scrt_uninitialize_type_info@@YAXXZ 000000018002b824 f   LIBCMT:tncleanup.obj
 0001:0002a830       __local_stdio_scanf_options 000000018002b830 f i LIBCMT:default_local_stdio_options.obj
 0001:0002a838       __scrt_initialize_default_local_stdio_options 000000018002b838 f   LIBCMT:default_local_stdio_options.obj
 0001:0002a854       __scrt_get_dyn_tls_init_callback 000000018002b854 f   LIBCMT:dyn_tls_init.obj
 0001:0002a85c       _RTC_Initialize            000000018002b85c f   LIBCMT:initsect.obj
 0001:0002a898       _RTC_Terminate             000000018002b898 f   LIBCMT:initsect.obj
 0001:0002a8e0       ??$_CallSETranslator@V__FrameHandler3@@@@YAHPEAUEHExceptionRecord@@PEA_KPEAU_CONTEXT@@PEAU_xDISPATCHER_CONTEXT@@PEBU_s_FuncInfo@@K1H@Z 000000018002b8e0 f i libvcruntime:risctrnsctrl.obj
 0001:0002a934       ??$_CallSETranslator@V__FrameHandler4@@@@YAHPEAUEHExceptionRecord@@PEA_KPEAU_CONTEXT@@PEAU_xDISPATCHER_CONTEXT@@PEAUFuncInfo4@FH4@@K1H@Z 000000018002b934 f i libvcruntime:risctrnsctrl.obj
 0001:0002a988       ?CatchTryBlock@__FrameHandler3@@SAPEBU_s_TryBlockMapEntry@@PEBU_s_FuncInfo@@H@Z 000000018002b988 f   libvcruntime:risctrnsctrl.obj
 0001:0002a9dc       ?DecompFuncInfo@FH4@@YA_JPEAEAEAUFuncInfo4@1@_KH_N@Z 000000018002b9dc f i libvcruntime:risctrnsctrl.obj
 0001:0002ab00       ?ExecutionInCatch@__FrameHandler3@@SA_NPEAU_xDISPATCHER_CONTEXT@@PEBU_s_FuncInfo@@@Z 000000018002bb00 f   libvcruntime:risctrnsctrl.obj
 0001:0002ab2c       ?ExecutionInCatch@__FrameHandler4@@SA_NPEAU_xDISPATCHER_CONTEXT@@PEAUFuncInfo4@FH4@@@Z 000000018002bb2c f   libvcruntime:risctrnsctrl.obj
 0001:0002ab34       ?FrameUnwindToEmptyState@__FrameHandler3@@SAXPEA_KPEAU_xDISPATCHER_CONTEXT@@PEBU_s_FuncInfo@@@Z 000000018002bb34 f   libvcruntime:risctrnsctrl.obj
 0001:0002ab98       ?FrameUnwindToEmptyState@__FrameHandler4@@SAXPEA_KPEAU_xDISPATCHER_CONTEXT@@PEAUFuncInfo4@FH4@@@Z 000000018002bb98 f   libvcruntime:risctrnsctrl.obj
 0001:0002abcc       ?GetEstablisherFrame@__FrameHandler3@@SAPEA_KPEA_KPEAU_xDISPATCHER_CONTEXT@@PEBU_s_FuncInfo@@0@Z 000000018002bbcc f   libvcruntime:risctrnsctrl.obj
 0001:0002ac98       ?GetEstablisherFrame@__FrameHandler4@@SAPEA_KPEA_KPEAU_xDISPATCHER_CONTEXT@@PEAUFuncInfo4@FH4@@0@Z 000000018002bc98 f   libvcruntime:risctrnsctrl.obj
 0001:0002acbc       ?GetRangeOfTrysToCheck@__FrameHandler3@@SA?AU?$pair@Viterator@TryBlockMap@__FrameHandler3@@V123@@std@@AEAVTryBlockMap@1@HPEAU_xDISPATCHER_CONTEXT@@PEBU_s_FuncInfo@@H@Z 000000018002bcbc f   libvcruntime:risctrnsctrl.obj
 0001:0002adfc       ?GetRangeOfTrysToCheck@__FrameHandler4@@SA?AU?$pair@Viterator@TryBlockMap4@FH4@@V123@@std@@AEAVTryBlockMap4@FH4@@HPEAU_xDISPATCHER_CONTEXT@@PEAUFuncInfo4@5@H@Z 000000018002bdfc f   libvcruntime:risctrnsctrl.obj
 0001:0002af64       ?UnwindNestedFrames@__FrameHandler3@@SAXPEA_KPEAUEHExceptionRecord@@PEAU_CONTEXT@@0PEAXPEBU_s_FuncInfo@@HHPEBU_s_HandlerType@@PEAU_xDISPATCHER_CONTEXT@@E@Z 000000018002bf64 f   libvcruntime:risctrnsctrl.obj
 0001:0002b068       ?UnwindNestedFrames@__FrameHandler4@@SAXPEA_KPEAUEHExceptionRecord@@PEAU_CONTEXT@@0PEAXPEAUFuncInfo4@FH4@@HHPEAUHandlerType4@5@PEAU_xDISPATCHER_CONTEXT@@E@Z 000000018002c068 f   libvcruntime:risctrnsctrl.obj
 0001:0002b188       ?setBuffer@TryBlockMap4@FH4@@QEAAXViterator@12@@Z 000000018002c188 f i libvcruntime:risctrnsctrl.obj
 0001:0002b348       _CreateFrameInfo           000000018002c348 f   libvcruntime:risctrnsctrl.obj
 0001:0002b384       _FindAndUnlinkFrame        000000018002c384 f   libvcruntime:risctrnsctrl.obj
 0001:0002b3d8       _GetImageBase              000000018002c3d8 f   libvcruntime:risctrnsctrl.obj
 0001:0002b3ec       _GetThrowImageBase         000000018002c3ec f   libvcruntime:risctrnsctrl.obj
 0001:0002b400       _SetImageBase              000000018002c400 f   libvcruntime:risctrnsctrl.obj
 0001:0002b418       _SetThrowImageBase         000000018002c418 f   libvcruntime:risctrnsctrl.obj
 0001:0002b430       __CxxFrameHandler3         000000018002c430 f   libvcruntime:risctrnsctrl.obj
 0001:0002b4b8       __CxxFrameHandler4         000000018002c4b8 f   libvcruntime:risctrnsctrl.obj
 0001:0002b578       _get_purecall_handler      000000018002c578 f   libvcruntime:purevirt.obj
 0001:0002b580       _purecall                  000000018002c580 f   libvcruntime:purevirt.obj
 0001:0002b59c       __DestructExceptionObject  000000018002c59c f   libvcruntime:ehhelpers.obj
 0001:0002b60c       ?_CallMemberFunction0@@YAXQEAX0@Z 000000018002c60c f i libvcruntime:ehhelpers.obj
 0001:0002b610       _IsExceptionObjectToBeDestroyed 000000018002c610 f   libvcruntime:ehhelpers.obj
 0001:0002b640       __AdjustPointer            000000018002c640 f   libvcruntime:ehhelpers.obj
 0001:0002b664       __FrameUnwindFilter        000000018002c664 f   libvcruntime:ehhelpers.obj
 0001:0002b6cc       __current_exception        000000018002c6cc f   libvcruntime:ehhelpers.obj
 0001:0002b6e0       __current_exception_context 000000018002c6e0 f   libvcruntime:ehhelpers.obj
 0001:0002b6f4       __std_terminate            000000018002c6f4 f   libvcruntime:ehhelpers.obj
 0001:0002b700       longjmp                    000000018002c700 f   libvcruntime:longjmpc.obj
 0001:0002b728       strstr                     000000018002c728 f   libvcruntime:strstr.obj
 0001:0002b924       __std_exception_copy       000000018002c924 f   libvcruntime:std_exception.obj
 0001:0002b9b4       __std_exception_destroy    000000018002c9b4 f   libvcruntime:std_exception.obj
 0001:0002b9dc       _CxxThrowException         000000018002c9dc f   libvcruntime:throw.obj
 0001:0002ba90       memcpy_repmovs             000000018002ca90 f   libvcruntime:memcpy.obj
 0001:0002bab0       memmove                    000000018002cab0 f   libvcruntime:memcpy.obj
 0001:0002bab0       memcpy                     000000018002cab0 f   libvcruntime:memcpy.obj
 0001:0002c140       memchr                     000000018002d140 f   libvcruntime:memchr.obj
 0001:0002c1c0       memset_repmovs             000000018002d1c0 f   libvcruntime:memset.obj
 0001:0002c1e0       memset                     000000018002d1e0 f   libvcruntime:memset.obj
 0001:0002c380       memcmp                     000000018002d380 f   libvcruntime:memcmp.obj
 0001:0002c448       __vcrt_initialize          000000018002d448 f   libvcruntime:initialization.obj
 0001:0002c470       __vcrt_thread_attach       000000018002d470 f   libvcruntime:initialization.obj
 0001:0002c484       __vcrt_thread_detach       000000018002d484 f   libvcruntime:initialization.obj
 0001:0002c498       __vcrt_uninitialize        000000018002d498 f   libvcruntime:initialization.obj
 0001:0002c4b4       __vcrt_uninitialize_critical 000000018002d4b4 f   libvcruntime:initialization.obj
 0001:0002c4c4       __C_specific_handler       000000018002d4c4 f   libvcruntime:riscchandler.obj
 0001:0002c6d0       __std_type_info_compare    000000018002d6d0 f   libvcruntime:std_type_info.obj
 0001:0002c6f8       __std_type_info_destroy_list 000000018002d6f8 f   libvcruntime:std_type_info.obj
 0001:0002c724       __vcrt_freefls             000000018002d724 f   libvcruntime:per_thread_data.obj
 0001:0002c744       __vcrt_freeptd             000000018002d744 f   libvcruntime:per_thread_data.obj
 0001:0002c794       __vcrt_getptd              000000018002d794 f   libvcruntime:per_thread_data.obj
 0001:0002c7b0       __vcrt_getptd_noexit       000000018002d7b0 f   libvcruntime:per_thread_data.obj
 0001:0002c870       __vcrt_initialize_ptd      000000018002d870 f   libvcruntime:per_thread_data.obj
 0001:0002c8b8       __vcrt_uninitialize_ptd    000000018002d8b8 f   libvcruntime:per_thread_data.obj
 0001:0002c8dc       ?GetCurrentState@__FrameHandler3@@SAHPEA_KPEAU_xDISPATCHER_CONTEXT@@PEBU_s_FuncInfo@@@Z 000000018002d8dc f   libvcruntime:ehstate.obj
 0001:0002c904       ?GetUnwindTryBlock@__FrameHandler3@@SAHPEA_KPEAU_xDISPATCHER_CONTEXT@@PEBU_s_FuncInfo@@@Z 000000018002d904 f   libvcruntime:ehstate.obj
 0001:0002c930       ?SetState@__FrameHandler3@@SAXPEA_KPEBU_s_FuncInfo@@H@Z 000000018002d930 f   libvcruntime:ehstate.obj
 0001:0002c93c       ?SetUnwindTryBlock@__FrameHandler3@@SAXPEA_KPEAU_xDISPATCHER_CONTEXT@@PEBU_s_FuncInfo@@H@Z 000000018002d93c f   libvcruntime:ehstate.obj
 0001:0002c978       ?StateFromControlPc@__FrameHandler3@@SAHPEBU_s_FuncInfo@@PEAU_xDISPATCHER_CONTEXT@@@Z 000000018002d978 f   libvcruntime:ehstate.obj
 0001:0002c980       ?StateFromControlPc@__FrameHandler4@@SAHPEAUFuncInfo4@FH4@@PEAU_xDISPATCHER_CONTEXT@@@Z 000000018002d980 f   libvcruntime:ehstate.obj
 0001:0002c988       ?StateFromIp@__FrameHandler3@@SAHPEBU_s_FuncInfo@@PEAU_xDISPATCHER_CONTEXT@@_K@Z 000000018002d988 f   libvcruntime:ehstate.obj
 0001:0002c9f0       ?StateFromIp@__FrameHandler4@@SAHPEAUFuncInfo4@FH4@@PEAU_xDISPATCHER_CONTEXT@@_K@Z 000000018002d9f0 f   libvcruntime:ehstate.obj
 0001:0002e0d4       ??$TypeMatchHelper@V__FrameHandler3@@@@YAHPEBU_s_HandlerType@@PEBU_s_CatchableType@@PEBU_s_ThrowInfo@@@Z 000000018002f0d4 f i libvcruntime:frame.obj
 0001:0002e214       ??$TypeMatchHelper@V__FrameHandler4@@@@YAHPEAUHandlerType4@FH4@@PEBU_s_CatchableType@@PEBU_s_ThrowInfo@@@Z 000000018002f214 f i libvcruntime:frame.obj
 0001:0002e358       ??$__InternalCxxFrameHandler@V__FrameHandler3@@@@YA?AW4_EXCEPTION_DISPOSITION@@PEAUEHExceptionRecord@@PEA_KPEAU_CONTEXT@@PEAU_xDISPATCHER_CONTEXT@@PEBU_s_FuncInfo@@H1E@Z 000000018002f358 f i libvcruntime:frame.obj
 0001:0002e590       ??$__InternalCxxFrameHandler@V__FrameHandler4@@@@YA?AW4_EXCEPTION_DISPOSITION@@PEAUEHExceptionRecord@@PEA_KPEAU_CONTEXT@@PEAU_xDISPATCHER_CONTEXT@@PEAUFuncInfo4@FH4@@H1E@Z 000000018002f590 f i libvcruntime:frame.obj
 0001:0002e824       ??0HandlerMap4@FH4@@QEAA@PEBUTryBlockMapEntry4@1@_KH@Z 000000018002f824 f i libvcruntime:frame.obj
 0001:0002e8a0       ??0TryBlockMap4@FH4@@QEAA@PEBUFuncInfo4@1@_K@Z 000000018002f8a0 f i libvcruntime:frame.obj
 0001:0002e978       ??0bad_exception@std@@QEAA@AEBV01@@Z 000000018002f978 f i libvcruntime:frame.obj
 0001:0002e9b4       ??0bad_exception@std@@QEAA@XZ 000000018002f9b4 f i libvcruntime:frame.obj
 0001:0002e9d4       ?CxxCallCatchBlock@__FrameHandler3@@SAPEAXPEAU_EXCEPTION_RECORD@@@Z 000000018002f9d4 f   libvcruntime:frame.obj
 0001:0002ebc0       ?CxxCallCatchBlock@__FrameHandler4@@SAPEAXPEAU_EXCEPTION_RECORD@@@Z 000000018002fbc0 f   libvcruntime:frame.obj
 0001:0002ee10       ?DecompHandler@HandlerMap4@FH4@@AEAAXXZ 000000018002fe10 f i libvcruntime:frame.obj
 0001:0002f050       ?FrameUnwindToState@__FrameHandler3@@SAXPEA_KPEAU_xDISPATCHER_CONTEXT@@PEBU_s_FuncInfo@@H@Z 0000000180030050 f   libvcruntime:frame.obj
 0001:0002f1dc       ?FrameUnwindToState@__FrameHandler4@@SAXPEA_KPEAU_xDISPATCHER_CONTEXT@@PEAUFuncInfo4@FH4@@H@Z 00000001800301dc f   libvcruntime:frame.obj
 0001:0002f4c4       ?GetHandlerSearchState@__FrameHandler3@@SAHPEA_KPEAU_xDISPATCHER_CONTEXT@@PEBU_s_FuncInfo@@@Z 00000001800304c4 f i libvcruntime:frame.obj
 0001:0002f6d4       ?ReadEntry@UWMap4@FH4@@AEAAXPEAPEAE@Z 00000001800306d4 f i libvcruntime:frame.obj
 0001:0002f774       ?_CallMemberFunction1@@YAXQEAX00@Z 0000000180030774 f i libvcruntime:frame.obj
 0001:0002f780       ?_CallMemberFunction2@@YAXQEAX00H@Z 0000000180030780 f i libvcruntime:frame.obj
 0001:0002f790       ?getStartStop@UWMap4@FH4@@QEAAXHHAEAViterator@12@0@Z 0000000180030790 f i libvcruntime:frame.obj
 0001:0002f860       ?getStateFromIterators@UWMap4@FH4@@SAHAEBViterator@12@H0H0@Z 0000000180030860 f i libvcruntime:frame.obj
 0001:0002f930       __except_validate_context_record 0000000180030930 f   libvcruntime:jbcxrval.obj
 0001:0002f968       __except_validate_jump_buffer 0000000180030968 f   libvcruntime:jbcxrval.obj
 0001:0002f9a8       __vcrt_initialize_locks    00000001800309a8 f   libvcruntime:locks.obj
 0001:0002f9dc       __vcrt_uninitialize_locks  00000001800309dc f   libvcruntime:locks.obj
 0001:0002fa30       _NLG_Notify                0000000180030a30 f   libvcruntime:notify.obj
 0001:0002fa50       __NLG_Dispatch2            0000000180030a50 f   libvcruntime:notify.obj
 0001:0002fa60       __NLG_Return2              0000000180030a60 f   libvcruntime:notify.obj
 0001:0002fbb0       __vcrt_FlsAlloc            0000000180030bb0 f   libvcruntime:winapi_downlevel.obj
 0001:0002fbf8       __vcrt_FlsFree             0000000180030bf8 f   libvcruntime:winapi_downlevel.obj
 0001:0002fc40       __vcrt_FlsGetValue         0000000180030c40 f   libvcruntime:winapi_downlevel.obj
 0001:0002fc88       __vcrt_FlsSetValue         0000000180030c88 f   libvcruntime:winapi_downlevel.obj
 0001:0002fcdc       __vcrt_InitializeCriticalSectionEx 0000000180030cdc f   libvcruntime:winapi_downlevel.obj
 0001:0002fd50       _CallSettingFrame          0000000180030d50 f   libvcruntime:handlers.obj
 0001:0002fda0       _CallSettingFrame_LookupContinuationIndex 0000000180030da0 f   libvcruntime:handlers.obj
 0001:0002fdd0       _CallSettingFrame_NotifyContinuationAddr 0000000180030dd0 f   libvcruntime:handlers.obj
 0001:0002fe00       _CallSettingFrameEncoded   0000000180030e00 f   libvcruntime:handlers.obj
 0001:0002fe48       __acrt_call_reportfault    0000000180030e48 f   libucrt:invalid_parameter.obj
 0001:0002ffa4       __acrt_initialize_invalid_parameter_handler 0000000180030fa4 f   libucrt:invalid_parameter.obj
 0001:0002ffac       _invalid_parameter         0000000180030fac f   libucrt:invalid_parameter.obj
 0001:0003005c       _invalid_parameter_noinfo  000000018003105c f   libucrt:invalid_parameter.obj
 0001:0003007c       _invalid_parameter_noinfo_noreturn 000000018003107c f   libucrt:invalid_parameter.obj
 0001:000300ac       _invoke_watson             00000001800310ac f   libucrt:invalid_parameter.obj
 0001:0003080c       ??$ftprintf@PEAU_iobuf@@PEB_WAEBQEB_WAEBQEB_WAEBI@?$__crt_char_traits@_W@@SAH$$QEAPEAU_iobuf@@$$QEAPEB_WAEBQEB_W2AEBI@Z 000000018003180c f i libucrt:assert.obj
 0001:00030834       _wassert                   0000000180031834 f   libucrt:assert.obj
 0001:000308a8       fwprintf                   00000001800318a8 f i libucrt:assert.obj
 0001:000308ec       swprintf                   00000001800318ec f i libucrt:assert.obj
 0001:00030940       abort                      0000000180031940 f   libucrt:abort.obj
 0001:00030998       ??0_LocaleUpdate@@QEAA@QEAU__crt_locale_pointers@@@Z 0000000180031998 f i libucrt:tolower_toupper.obj
 0001:00030a34       ??1_LocaleUpdate@@QEAA@XZ  0000000180031a34 f i libucrt:tolower_toupper.obj
 0001:00030a48       _tolower_l                 0000000180031a48 f   libucrt:tolower_toupper.obj
 0001:00030b84       _toupper_l                 0000000180031b84 f   libucrt:tolower_toupper.obj
 0001:00030cc0       tolower                    0000000180031cc0 f   libucrt:tolower_toupper.obj
 0001:00030cec       toupper                    0000000180031cec f   libucrt:tolower_toupper.obj
 0001:00030d18       ??$__acrt_mbs_to_wcs_cp@U__crt_win32_buffer_internal_dynamic_resizing@@@@YAHQEBDAEAV?$__crt_win32_buffer@_WU__crt_win32_buffer_internal_dynamic_resizing@@@@I@Z 0000000180031d18 f i libucrt:strftime.obj
 0001:00030e90       ??$__acrt_wcs_to_mbs_cp@U__crt_win32_buffer_no_resizing@@@@YAHQEB_WAEAV?$__crt_win32_buffer@DU__crt_win32_buffer_no_resizing@@@@I@Z 0000000180031e90 f i libucrt:strftime.obj
 0001:00030fa4       _Strftime_l                0000000180031fa4 f   libucrt:strftime.obj
 0001:00031108       strftime                   0000000180032108 f   libucrt:strftime.obj
 0001:00031124       ??$__crt_time_is_leap_year@H@@YA_NH@Z 0000000180032124 f i libucrt:gmtime.obj
 0001:0003140c       __getgmtimebuf             000000018003240c f   libucrt:gmtime.obj
 0001:00031458       _gmtime64                  0000000180032458 f   libucrt:gmtime.obj
 0001:000314a0       free                       00000001800324a0 f   libucrt:free.obj
 0001:000314b4       round                      00000001800324b4 f   libucrt:round.obj
 0001:0003151c       malloc                     000000018003251c f   libucrt:malloc.obj
 0001:00031524       _isnan                     0000000180032524 f   libucrt:ieeemisc.obj
 0001:00031550       _finite                    0000000180032550 f   libucrt:_finite.obj
 0001:0003157c       __acrt_initialize_stdio    000000018003257c f   libucrt:_file.obj
 0001:0003169c       __acrt_iob_func            000000018003269c f   libucrt:_file.obj
 0001:000316b0       __acrt_uninitialize_stdio  00000001800326b0 f   libucrt:_file.obj
 0001:0003170c       _lock_file                 000000018003270c f   libucrt:_file.obj
 0001:00031718       _unlock_file               0000000180032718 f   libucrt:_file.obj
 0001:00031b04       ??$ensure_buffer_is_big_enough@D@formatting_buffer@__crt_stdio_output@@QEAA_N_K@Z 0000000180032b04 f i libucrt:output.obj
 0001:00031bac       ??$ensure_buffer_is_big_enough@_W@formatting_buffer@__crt_stdio_output@@QEAA_N_K@Z 0000000180032bac f i libucrt:output.obj
 0001:00031c58       ??$is_wide_character_specifier@_W@__crt_stdio_output@@YA_N_K_WW4length_modifier@0@@Z 0000000180032c58 f i libucrt:output.obj
 0001:00031c98       ??$type_case_integer_parse_into_buffer@I@?$output_processor@DV?$string_output_adapter@D@__crt_stdio_output@@V?$standard_base@DV?$string_output_adapter@D@__crt_stdio_output@@@2@@__crt_stdio_output@@AEAAXII_N@Z 0000000180032c98 f i libucrt:output.obj
 0001:00031d20       ??$type_case_integer_parse_into_buffer@I@?$output_processor@_WV?$stream_output_adapter@_W@__crt_stdio_output@@V?$standard_base@_WV?$stream_output_adapter@_W@__crt_stdio_output@@@2@@__crt_stdio_output@@AEAAXII_N@Z 0000000180032d20 f i libucrt:output.obj
 0001:00031d20       ??$type_case_integer_parse_into_buffer@I@?$output_processor@_WV?$string_output_adapter@_W@__crt_stdio_output@@V?$standard_base@_WV?$string_output_adapter@_W@__crt_stdio_output@@@2@@__crt_stdio_output@@AEAAXII_N@Z 0000000180032d20 f i libucrt:output.obj
 0001:00031dc4       ??$type_case_integer_parse_into_buffer@_K@?$output_processor@DV?$string_output_adapter@D@__crt_stdio_output@@V?$standard_base@DV?$string_output_adapter@D@__crt_stdio_output@@@2@@__crt_stdio_output@@AEAAX_KI_N@Z 0000000180032dc4 f i libucrt:output.obj
 0001:00031e54       ??$type_case_integer_parse_into_buffer@_K@?$output_processor@_WV?$string_output_adapter@_W@__crt_stdio_output@@V?$standard_base@_WV?$string_output_adapter@_W@__crt_stdio_output@@@2@@__crt_stdio_output@@AEAAX_KI_N@Z 0000000180032e54 f i libucrt:output.obj
 0001:00031e54       ??$type_case_integer_parse_into_buffer@_K@?$output_processor@_WV?$stream_output_adapter@_W@__crt_stdio_output@@V?$standard_base@_WV?$stream_output_adapter@_W@__crt_stdio_output@@@2@@__crt_stdio_output@@AEAAX_KI_N@Z 0000000180032e54 f i libucrt:output.obj
 0001:00031ef8       ??$write_multiple_characters@V?$stream_output_adapter@_W@__crt_stdio_output@@D@__crt_stdio_output@@YAXAEBV?$stream_output_adapter@_W@0@DHQEAH@Z 0000000180032ef8 f i libucrt:output.obj
 0001:00031f8c       ??$write_multiple_characters@V?$string_output_adapter@D@__crt_stdio_output@@D@__crt_stdio_output@@YAXAEBV?$string_output_adapter@D@0@DHQEAH@Z 0000000180032f8c f i libucrt:output.obj
 0001:00032004       ??$write_multiple_characters@V?$string_output_adapter@_W@__crt_stdio_output@@D@__crt_stdio_output@@YAXAEBV?$string_output_adapter@_W@0@DHQEAH@Z 0000000180033004 f i libucrt:output.obj
 0001:000321b0       ?crop_zeroes@__crt_stdio_output@@YAXPEADQEAU__crt_locale_pointers@@@Z 00000001800331b0 f i libucrt:output.obj
 0001:00032250       ?force_decimal_point@__crt_stdio_output@@YAXPEADQEAU__crt_locale_pointers@@@Z 0000000180033250 f i libucrt:output.obj
 0001:000322c8       ?parse_int_from_format_string@?$output_processor@DV?$string_output_adapter@D@__crt_stdio_output@@V?$standard_base@DV?$string_output_adapter@D@__crt_stdio_output@@@2@@__crt_stdio_output@@AEAA_NQEAH@Z 00000001800332c8 f i libucrt:output.obj
 0001:0003236c       ?parse_int_from_format_string@?$output_processor@_WV?$string_output_adapter@_W@__crt_stdio_output@@V?$standard_base@_WV?$string_output_adapter@_W@__crt_stdio_output@@@2@@__crt_stdio_output@@AEAA_NQEAH@Z 000000018003336c f i libucrt:output.obj
 0001:0003236c       ?parse_int_from_format_string@?$output_processor@_WV?$stream_output_adapter@_W@__crt_stdio_output@@V?$standard_base@_WV?$stream_output_adapter@_W@__crt_stdio_output@@@2@@__crt_stdio_output@@AEAA_NQEAH@Z 000000018003336c f i libucrt:output.obj
 0001:00032410       ?process@?$output_processor@DV?$string_output_adapter@D@__crt_stdio_output@@V?$standard_base@DV?$string_output_adapter@D@__crt_stdio_output@@@2@@__crt_stdio_output@@QEAAHXZ 0000000180033410 f i libucrt:output.obj
 0001:00032618       ?process@?$output_processor@_WV?$stream_output_adapter@_W@__crt_stdio_output@@V?$standard_base@_WV?$stream_output_adapter@_W@__crt_stdio_output@@@2@@__crt_stdio_output@@QEAAHXZ 0000000180033618 f i libucrt:output.obj
 0001:00032890       ?process@?$output_processor@_WV?$string_output_adapter@_W@__crt_stdio_output@@V?$standard_base@_WV?$string_output_adapter@_W@__crt_stdio_output@@@2@@__crt_stdio_output@@QEAAHXZ 0000000180033890 f i libucrt:output.obj
 0001:00032afc       ?state_case_normal@?$output_processor@DV?$string_output_adapter@D@__crt_stdio_output@@V?$standard_base@DV?$string_output_adapter@D@__crt_stdio_output@@@2@@__crt_stdio_output@@AEAA_NXZ 0000000180033afc f i libucrt:output.obj
 0001:00032b70       ?state_case_normal_tchar@?$output_processor@DV?$string_output_adapter@D@__crt_stdio_output@@V?$standard_base@DV?$string_output_adapter@D@__crt_stdio_output@@@2@@__crt_stdio_output@@AEAA_ND@Z 0000000180033b70 f i libucrt:output.obj
 0001:00032c18       ?state_case_size@?$output_processor@DV?$string_output_adapter@D@__crt_stdio_output@@V?$standard_base@DV?$string_output_adapter@D@__crt_stdio_output@@@2@@__crt_stdio_output@@AEAA_NXZ 0000000180033c18 f i libucrt:output.obj
 0001:00032d88       ?state_case_size@?$output_processor@_WV?$stream_output_adapter@_W@__crt_stdio_output@@V?$standard_base@_WV?$stream_output_adapter@_W@__crt_stdio_output@@@2@@__crt_stdio_output@@AEAA_NXZ 0000000180033d88 f i libucrt:output.obj
 0001:00032f1c       ?state_case_size@?$output_processor@_WV?$string_output_adapter@_W@__crt_stdio_output@@V?$standard_base@_WV?$string_output_adapter@_W@__crt_stdio_output@@@2@@__crt_stdio_output@@AEAA_NXZ 0000000180033f1c f i libucrt:output.obj
 0001:000330b0       ?state_case_type@?$output_processor@DV?$string_output_adapter@D@__crt_stdio_output@@V?$standard_base@DV?$string_output_adapter@D@__crt_stdio_output@@@2@@__crt_stdio_output@@AEAA_NXZ 00000001800340b0 f i libucrt:output.obj
 0001:00033318       ?state_case_type@?$output_processor@_WV?$stream_output_adapter@_W@__crt_stdio_output@@V?$standard_base@_WV?$stream_output_adapter@_W@__crt_stdio_output@@@2@@__crt_stdio_output@@AEAA_NXZ 0000000180034318 f i libucrt:output.obj
 0001:000335f8       ?state_case_type@?$output_processor@_WV?$string_output_adapter@_W@__crt_stdio_output@@V?$standard_base@_WV?$string_output_adapter@_W@__crt_stdio_output@@@2@@__crt_stdio_output@@AEAA_NXZ 00000001800345f8 f i libucrt:output.obj
 0001:000338d0       ?to_integer_size@__crt_stdio_output@@YA_KW4length_modifier@1@@Z 00000001800348d0 f i libucrt:output.obj
 0001:00033938       ?type_case_Z@?$output_processor@DV?$string_output_adapter@D@__crt_stdio_output@@V?$standard_base@DV?$string_output_adapter@D@__crt_stdio_output@@@2@@__crt_stdio_output@@AEAA_NXZ 0000000180034938 f i libucrt:output.obj
 0001:000339ac       ?type_case_Z@?$output_processor@_WV?$string_output_adapter@_W@__crt_stdio_output@@V?$standard_base@_WV?$string_output_adapter@_W@__crt_stdio_output@@@2@@__crt_stdio_output@@AEAA_NXZ 00000001800349ac f i libucrt:output.obj
 0001:000339ac       ?type_case_Z@?$output_processor@_WV?$stream_output_adapter@_W@__crt_stdio_output@@V?$standard_base@_WV?$stream_output_adapter@_W@__crt_stdio_output@@@2@@__crt_stdio_output@@AEAA_NXZ 00000001800349ac f i libucrt:output.obj
 0001:00033a28       ?type_case_a@?$output_processor@DV?$string_output_adapter@D@__crt_stdio_output@@V?$standard_base@DV?$string_output_adapter@D@__crt_stdio_output@@@2@@__crt_stdio_output@@AEAA_NXZ 0000000180034a28 f i libucrt:output.obj
 0001:00033be4       ?type_case_a@?$output_processor@_WV?$stream_output_adapter@_W@__crt_stdio_output@@V?$standard_base@_WV?$stream_output_adapter@_W@__crt_stdio_output@@@2@@__crt_stdio_output@@AEAA_NXZ 0000000180034be4 f i libucrt:output.obj
 0001:00033be4       ?type_case_a@?$output_processor@_WV?$string_output_adapter@_W@__crt_stdio_output@@V?$standard_base@_WV?$string_output_adapter@_W@__crt_stdio_output@@@2@@__crt_stdio_output@@AEAA_NXZ 0000000180034be4 f i libucrt:output.obj
 0001:00033dc4       ?type_case_c_tchar@?$output_processor@DV?$string_output_adapter@D@__crt_stdio_output@@V?$standard_base@DV?$string_output_adapter@D@__crt_stdio_output@@@2@@__crt_stdio_output@@AEAA_ND@Z 0000000180034dc4 f i libucrt:output.obj
 0001:00033e8c       ?type_case_c_tchar@?$output_processor@_WV?$stream_output_adapter@_W@__crt_stdio_output@@V?$standard_base@_WV?$stream_output_adapter@_W@__crt_stdio_output@@@2@@__crt_stdio_output@@AEAA_N_W@Z 0000000180034e8c f i libucrt:output.obj
 0001:00033e8c       ?type_case_c_tchar@?$output_processor@_WV?$string_output_adapter@_W@__crt_stdio_output@@V?$standard_base@_WV?$string_output_adapter@_W@__crt_stdio_output@@@2@@__crt_stdio_output@@AEAA_N_W@Z 0000000180034e8c f i libucrt:output.obj
 0001:00033f34       ?type_case_integer@?$output_processor@DV?$string_output_adapter@D@__crt_stdio_output@@V?$standard_base@DV?$string_output_adapter@D@__crt_stdio_output@@@2@@__crt_stdio_output@@AEAA_NI_N@Z 0000000180034f34 f i libucrt:output.obj
 0001:000340b4       ?type_case_integer@?$output_processor@_WV?$string_output_adapter@_W@__crt_stdio_output@@V?$standard_base@_WV?$string_output_adapter@_W@__crt_stdio_output@@@2@@__crt_stdio_output@@AEAA_NI_N@Z 00000001800350b4 f i libucrt:output.obj
 0001:000340b4       ?type_case_integer@?$output_processor@_WV?$stream_output_adapter@_W@__crt_stdio_output@@V?$standard_base@_WV?$stream_output_adapter@_W@__crt_stdio_output@@@2@@__crt_stdio_output@@AEAA_NI_N@Z 00000001800350b4 f i libucrt:output.obj
 0001:0003423c       ?type_case_n@?$output_processor@DV?$string_output_adapter@D@__crt_stdio_output@@V?$standard_base@DV?$string_output_adapter@D@__crt_stdio_output@@@2@@__crt_stdio_output@@AEAA_NXZ 000000018003523c f i libucrt:output.obj
 0001:0003423c       ?type_case_n@?$output_processor@_WV?$stream_output_adapter@_W@__crt_stdio_output@@V?$standard_base@_WV?$stream_output_adapter@_W@__crt_stdio_output@@@2@@__crt_stdio_output@@AEAA_NXZ 000000018003523c f i libucrt:output.obj
 0001:0003423c       ?type_case_n@?$output_processor@_WV?$string_output_adapter@_W@__crt_stdio_output@@V?$standard_base@_WV?$string_output_adapter@_W@__crt_stdio_output@@@2@@__crt_stdio_output@@AEAA_NXZ 000000018003523c f i libucrt:output.obj
 0001:000342c4       ?type_case_s@?$output_processor@DV?$string_output_adapter@D@__crt_stdio_output@@V?$standard_base@DV?$string_output_adapter@D@__crt_stdio_output@@@2@@__crt_stdio_output@@AEAA_NXZ 00000001800352c4 f i libucrt:output.obj
 0001:0003435c       ?type_case_s@?$output_processor@_WV?$stream_output_adapter@_W@__crt_stdio_output@@V?$standard_base@_WV?$stream_output_adapter@_W@__crt_stdio_output@@@2@@__crt_stdio_output@@AEAA_NXZ 000000018003535c f i libucrt:output.obj
 0001:0003435c       ?type_case_s@?$output_processor@_WV?$string_output_adapter@_W@__crt_stdio_output@@V?$standard_base@_WV?$string_output_adapter@_W@__crt_stdio_output@@@2@@__crt_stdio_output@@AEAA_NXZ 000000018003535c f i libucrt:output.obj
 0001:00034424       ?write_stored_string_tchar@?$output_processor@DV?$string_output_adapter@D@__crt_stdio_output@@V?$standard_base@DV?$string_output_adapter@D@__crt_stdio_output@@@2@@__crt_stdio_output@@AEAA_ND@Z 0000000180035424 f i libucrt:output.obj
 0001:00034500       ?write_stored_string_tchar@?$output_processor@_WV?$stream_output_adapter@_W@__crt_stdio_output@@V?$standard_base@_WV?$stream_output_adapter@_W@__crt_stdio_output@@@2@@__crt_stdio_output@@AEAA_N_W@Z 0000000180035500 f i libucrt:output.obj
 0001:00034604       ?write_stored_string_tchar@?$output_processor@_WV?$string_output_adapter@_W@__crt_stdio_output@@V?$standard_base@_WV?$string_output_adapter@_W@__crt_stdio_output@@@2@@__crt_stdio_output@@AEAA_N_W@Z 0000000180035604 f i libucrt:output.obj
 0001:000346ec       ?write_string@?$string_output_adapter@D@__crt_stdio_output@@QEBAXQEBDHQEAHAEAV__crt_deferred_errno_cache@@@Z 00000001800356ec f i libucrt:output.obj
 0001:00034790       ?write_string@?$string_output_adapter@_W@__crt_stdio_output@@QEBAXQEB_WHQEAHAEAV__crt_deferred_errno_cache@@@Z 0000000180035790 f i libucrt:output.obj
 0001:00034838       ?write_string_impl@?$output_adapter_common@_WV?$stream_output_adapter@_W@__crt_stdio_output@@@__crt_stdio_output@@IEBAXQEB_WHQEAHAEAV__crt_deferred_errno_cache@@@Z 0000000180035838 f i libucrt:output.obj
 0001:00034938       __stdio_common_vfwprintf   0000000180035938 f   libucrt:output.obj
 0001:000349c4       __stdio_common_vsprintf    00000001800359c4 f   libucrt:output.obj
 0001:000349cc       __stdio_common_vswprintf   00000001800359cc f   libucrt:output.obj
 0001:00034ec0       _ftelli64_nolock           0000000180035ec0 f   libucrt:ftell.obj
 0001:00034ec8       ftell                      0000000180035ec8 f   libucrt:ftell.obj
 0001:00034f8c       fopen                      0000000180035f8c f   libucrt:fopen.obj
 0001:00034f98       _fclose_nolock             0000000180035f98 f   libucrt:fclose.obj
 0001:0003501c       fclose                     000000018003601c f   libucrt:fclose.obj
 0001:00035288       fseek                      0000000180036288 f   libucrt:fseek.obj
 0001:00035290       rewind                     0000000180036290 f   libucrt:rewind.obj
 0001:00035354       __acrt_errno_from_os_error 0000000180036354 f   libucrt:errno.obj
 0001:0003539c       __acrt_errno_map_os_error  000000018003639c f   libucrt:errno.obj
 0001:000353ec       __doserrno                 00000001800363ec f   libucrt:errno.obj
 0001:0003540c       _errno                     000000018003640c f   libucrt:errno.obj
 0001:0003542c       _fread_nolock_s            000000018003642c f   libucrt:fread.obj
 0001:0003568c       fread                      000000018003668c f   libucrt:fread.obj
 0001:000356ac       fread_s                    00000001800366ac f   libucrt:fread.obj
 0001:00035bd8       _fstat64i32                0000000180036bd8 f   libucrt:stat.obj
 0001:00035cb0       __ascii_stricmp            0000000180036cb0 f   libucrt:stricmp.obj
 0001:00035cec       _stricmp                   0000000180036cec f   libucrt:stricmp.obj
 0001:00035d34       _stricmp_l                 0000000180036d34 f   libucrt:stricmp.obj
 0001:00035dbc       __acrt_initialize_locks    0000000180036dbc f   libucrt:locks.obj
 0001:00035e04       __acrt_lock                0000000180036e04 f   libucrt:locks.obj
 0001:00035e20       __acrt_uninitialize_locks  0000000180036e20 f   libucrt:locks.obj
 0001:00035e58       __acrt_unlock              0000000180036e58 f   libucrt:locks.obj
 0001:00035e74       _lock_locales              0000000180036e74 f   libucrt:locks.obj
 0001:00035e90       _unlock_locales            0000000180036e90 f   libucrt:locks.obj
 0001:0003617c       setlocale                  000000018003717c f   libucrt:setlocale.obj
 0001:000361c8       __pctype_func              00000001800371c8 f   libucrt:ctype.obj
 0001:00036200       islower                    0000000180037200 f   libucrt:_ctype.obj
 0001:000362b0       isupper                    00000001800372b0 f   libucrt:_ctype.obj
 0001:00036358       ___lc_codepage_func        0000000180037358 f   libucrt:initctype.obj
 0001:00036388       ___lc_locale_name_func     0000000180037388 f   libucrt:initctype.obj
 0001:000363bc       __acrt_locale_initialize_ctype 00000001800373bc f   libucrt:initctype.obj
 0001:00036a20       calloc                     0000000180037a20 f   libucrt:calloc.obj
 0001:00036a28       _wcsdup                    0000000180037a28 f   libucrt:wcsdup.obj
 0001:00036ab0       ?divide@__crt_strtox@@YA_KAEAUbig_integer@1@AEBU21@@Z 0000000180037ab0 f i libucrt:strtod.obj
 0001:00036edc       _ischartype_l              0000000180037edc f i libucrt:strtod.obj
 0001:00036fe0       pow                        0000000180037fe0 f   libucrt:pow.obj
 0001:00038680       powf                       0000000180039680 f   libucrt:powf.obj
 0001:00039548       __strncnt                  000000018003a548 f   libucrt:strncnt.obj
 0001:0003aba4       _Wcsftime_l                000000018003bba4 f   libucrt:wcsftime.obj
 0001:0003ad4c       strnlen                    000000018003bd4c f   libucrt:strnlen.obj
 0001:0003ae9c       wcsnlen                    000000018003be9c f   libucrt:strnlen.obj
 0001:0003b074       __acrt_initialize_new_handler 000000018003c074 f   libucrt:new_handler.obj
 0001:0003b07c       _callnewh                  000000018003c07c f   libucrt:new_handler.obj
 0001:0003b0ac       _query_new_handler         000000018003c0ac f   libucrt:new_handler.obj
 0001:0003b0e0       _seh_filter_dll            000000018003c0e0 f   libucrt:exception_filter.obj
 0001:0003b0f4       _seh_filter_exe            000000018003c0f4 f   libucrt:exception_filter.obj
 0001:0003b4e4       __acrt_initialize_thread_local_exit_callback 000000018003c4e4 f   libucrt:exit.obj
 0001:0003b4ec       _cexit                     000000018003c4ec f   libucrt:exit.obj
 0001:0003b4fc       _exit                      000000018003c4fc f   libucrt:exit.obj
 0001:0003b508       _is_c_termination_complete 000000018003c508 f   libucrt:exit.obj
 0001:0003b6d0       __acrt_allocate_buffer_for_argv 000000018003c6d0 f   libucrt:argv_parsing.obj
 0001:0003b730       _configure_narrow_argv     000000018003c730 f   libucrt:argv_parsing.obj
 0001:0003bcd8       __dcrt_get_or_create_wide_environment_nolock 000000018003ccd8 f   libucrt:environment_initialization.obj
 0001:0003bd14       __dcrt_uninitialize_environments_nolock 000000018003cd14 f   libucrt:environment_initialization.obj
 0001:0003bd4c       _initialize_narrow_environment 000000018003cd4c f   libucrt:environment_initialization.obj
 0001:0003c094       _crt_atexit                000000018003d094 f   libucrt:onexit.obj
 0001:0003c0a4       _execute_onexit_table      000000018003d0a4 f   libucrt:onexit.obj
 0001:0003c0e0       _initialize_onexit_table   000000018003d0e0 f   libucrt:onexit.obj
 0001:0003c108       _register_onexit_function  000000018003d108 f   libucrt:onexit.obj
 0001:0003c188       __acrt_uninitialize_command_line 000000018003d188 f   libucrt:argv_data.obj
 0001:0003c280       __acrt_initialize          000000018003d280 f   libucrt:initialization.obj
 0001:0003c294       __acrt_thread_attach       000000018003d294 f   libucrt:initialization.obj
 0001:0003c2a8       __acrt_thread_detach       000000018003d2a8 f   libucrt:initialization.obj
 0001:0003c2b8       __acrt_uninitialize        000000018003d2b8 f   libucrt:initialization.obj
 0001:0003c2f0       __acrt_uninitialize_critical 000000018003d2f0 f   libucrt:initialization.obj
 0001:0003c300       terminate                  000000018003d300 f   libucrt:terminate.obj
 0001:0003c320       _initterm                  000000018003d320 f   libucrt:initterm.obj
 0001:0003c384       _initterm_e                000000018003d384 f   libucrt:initterm.obj
 0001:0003c3c4       _fileno                    000000018003d3c4 f   libucrt:fileno.obj
 0001:0003c3c4       fileno                     000000018003d3c4 f   libucrt:fileno.obj
 0001:0003c3ec       _strdup                    000000018003d3ec f   libucrt:strdup.obj
 0001:0003c3ec       strdup                     000000018003d3ec f   libucrt:strdup.obj
 0001:0003c464       strcpy_s                   000000018003d464 f   libucrt:strcpy_s.obj
 0001:0003c4c4       ??$parse_integer@KV?$c_string_character_source@D@__crt_strtox@@@__crt_strtox@@YAKQEAU__crt_locale_pointers@@V?$c_string_character_source@D@0@H_N@Z 000000018003d4c4 f i libucrt:atox.obj
 0001:0003c7c8       ??$parse_integer@KV?$c_string_character_source@_W@__crt_strtox@@@__crt_strtox@@YAKQEAU__crt_locale_pointers@@V?$c_string_character_source@_W@0@H_N@Z 000000018003d7c8 f i libucrt:atox.obj
 0001:0003ce70       _wtol                      000000018003de70 f   libucrt:atox.obj
 0001:0003ceb0       strncmp                    000000018003deb0 f   libucrt:strncmp.obj
 0001:0003cf30       wcsncmp                    000000018003df30 f   libucrt:wcsncmp.obj
 0001:0003d2d4       __acrt_freeptd             000000018003e2d4 f   libucrt:per_thread_data.obj
 0001:0003d318       __acrt_getptd              000000018003e318 f   libucrt:per_thread_data.obj
 0001:0003d3ec       __acrt_getptd_head         000000018003e3ec f   libucrt:per_thread_data.obj
 0001:0003d494       __acrt_getptd_noexit       000000018003e494 f   libucrt:per_thread_data.obj
 0001:0003d560       __acrt_initialize_ptd      000000018003e560 f   libucrt:per_thread_data.obj
 0001:0003d59c       __acrt_uninitialize_ptd    000000018003e59c f   libucrt:per_thread_data.obj
 0001:0003d5c0       _query_app_type            000000018003e5c0 f   libucrt:report_runtime_error.obj
 0001:0003d708       _itow_s                    000000018003e708 f   libucrt:xtoa.obj
 0001:0003d728       _set_error_mode            000000018003e728 f   libucrt:set_error_mode.obj
 0001:0003d768       wcscat_s                   000000018003e768 f   libucrt:wcscat_s.obj
 0001:0003d7e8       wcscpy_s                   000000018003e7e8 f   libucrt:wcscpy_s.obj
 0001:0003d850       wcsncat_s                  000000018003e850 f   libucrt:wcsncat_s.obj
 0001:0003d950       __acrt_GetModuleFileNameA  000000018003e950 f   libucrt:getmodulefilenamea.obj
 0001:0003da70       __acrt_show_wide_message_box 000000018003ea70 f   libucrt:crtmbox.obj
 0001:0003dd30       __acrt_stdio_flush_nolock  000000018003ed30 f   libucrt:fflush.obj
 0001:0003ddac       _fflush_nolock             000000018003edac f   libucrt:fflush.obj
 0001:0003ddf8       _flushall                  000000018003edf8 f   libucrt:fflush.obj
 0001:0003de00       fflush                     000000018003ee00 f   libucrt:fflush.obj
 0001:0003df8c       setvbuf                    000000018003ef8c f   libucrt:setvbuf.obj
 0001:0003e070       __acrt_get_sigabrt_handler 000000018003f070 f   libucrt:signal.obj
 0001:0003e0a0       __acrt_initialize_signal_handlers 000000018003f0a0 f   libucrt:signal.obj
 0001:0003e0c0       raise                      000000018003f0c0 f   libucrt:signal.obj
 0001:0003e32c       _isleadbyte_l              000000018003f32c f i libucrt:_wctype.obj
 0001:0003e690       __acrt_LCMapStringA        000000018003f690 f   libucrt:lcmapstringa.obj
 0001:0003e728       __acrt_update_locale_info  000000018003f728 f   libucrt:locale_update.obj
 0001:0003e75c       __acrt_update_multibyte_info 000000018003f75c f   libucrt:locale_update.obj
 0001:0003e9f8       ?commit_locale_name@_expandlocale_locale_name_cache@@QEAAXQEB_W_K@Z 000000018003f9f8 f i libucrt:wsetlocale.obj
 0001:0003ea70       __acrt_copy_locale_name    000000018003fa70 f   libucrt:wsetlocale.obj
 0001:0003eaf4       __acrt_set_locale_changed  000000018003faf4 f   libucrt:wsetlocale.obj
 0001:0003eb00       __acrt_uninitialize_locale 000000018003fb00 f   libucrt:wsetlocale.obj
 0001:0003eb30       __lc_lctowcs               000000018003fb30 f   libucrt:wsetlocale.obj
 0001:0003ebd4       __lc_wcstolc               000000018003fbd4 f   libucrt:wsetlocale.obj
 0001:0003f27c       _wcscats                   000000018004027c f   libucrt:wsetlocale.obj
 0001:0003f2e4       _wsetlocale                00000001800402e4 f   libucrt:wsetlocale.obj
 0001:00040034       _free_base                 0000000180041034 f   libucrt:free_base.obj
 0001:00040074       _malloc_base               0000000180041074 f   libucrt:malloc_base.obj
 0001:000400d4       __acrt_MultiByteToWideChar 00000001800410d4 f   libucrt:multibytetowidechar.obj
 0001:00040130       __acrt_WideCharToMultiByte 0000000180041130 f   libucrt:widechartomultibyte.obj
 0001:000401e0       _d_int                     00000001800411e0 f   libucrt:_test.obj
 0001:0004041c       _handle_error              000000018004141c f   libucrt:libm_error.obj
 0001:00040544       _handle_errorf             0000000180041544 f   libucrt:libm_error.obj
 0001:00040678       _handle_nan                0000000180041678 f   libucrt:libm_error.obj
 0001:00040694       _handle_nanf               0000000180041694 f   libucrt:libm_error.obj
 0001:000406a4       _calloc_base               00000001800416a4 f   libucrt:calloc_base.obj
 0001:00040998       __acrt_AppPolicyGetProcessTerminationMethodInternal 0000000180041998 f   libucrt:winapi_thunks.obj
 0001:000409e8       __acrt_AppPolicyGetShowDeveloperDiagnosticInternal 00000001800419e8 f   libucrt:winapi_thunks.obj
 0001:00040a38       __acrt_AppPolicyGetWindowingModelInternal 0000000180041a38 f   libucrt:winapi_thunks.obj
 0001:00040a88       __acrt_AreFileApisANSI     0000000180041a88 f   libucrt:winapi_thunks.obj
 0001:00040ac4       __acrt_CompareStringEx     0000000180041ac4 f   libucrt:winapi_thunks.obj
 0001:00040ba0       __acrt_EnumSystemLocalesEx 0000000180041ba0 f   libucrt:winapi_thunks.obj
 0001:00040c38       __acrt_FlsAlloc            0000000180041c38 f   libucrt:winapi_thunks.obj
 0001:00040c80       __acrt_FlsFree             0000000180041c80 f   libucrt:winapi_thunks.obj
 0001:00040cc8       __acrt_FlsGetValue         0000000180041cc8 f   libucrt:winapi_thunks.obj
 0001:00040d10       __acrt_FlsSetValue         0000000180041d10 f   libucrt:winapi_thunks.obj
 0001:00040d64       __acrt_GetDateFormatEx     0000000180041d64 f   libucrt:winapi_thunks.obj
 0001:00040e1c       __acrt_GetLocaleInfoEx     0000000180041e1c f   libucrt:winapi_thunks.obj
 0001:00040ea0       __acrt_GetTimeFormatEx     0000000180041ea0 f   libucrt:winapi_thunks.obj
 0001:00040f4c       __acrt_GetUserDefaultLocaleName 0000000180041f4c f   libucrt:winapi_thunks.obj
 0001:00040fb0       __acrt_InitializeCriticalSectionEx 0000000180041fb0 f   libucrt:winapi_thunks.obj
 0001:00041014       __acrt_IsValidLocaleName   0000000180042014 f   libucrt:winapi_thunks.obj
 0001:0004106c       __acrt_LCIDToLocaleName    000000018004206c f   libucrt:winapi_thunks.obj
 0001:000410dc       __acrt_LCMapStringEx       00000001800420dc f   libucrt:winapi_thunks.obj
 0001:000411b8       __acrt_LocaleNameToLCID    00000001800421b8 f   libucrt:winapi_thunks.obj
 0001:00041208       __acrt_MessageBoxW         0000000180042208 f   libucrt:winapi_thunks.obj
 0001:0004127c       __acrt_can_show_message_box 000000018004227c f   libucrt:winapi_thunks.obj
 0001:000412ec       __acrt_can_use_vista_locale_apis 00000001800422ec f   libucrt:winapi_thunks.obj
 0001:0004131c       __acrt_eagerly_load_locale_apis 000000018004231c f   libucrt:winapi_thunks.obj
 0001:00041478       __acrt_get_parent_window   0000000180042478 f   libucrt:winapi_thunks.obj
 0001:000414f0       __acrt_initialize_winapi_thunks 00000001800424f0 f   libucrt:winapi_thunks.obj
 0001:00041524       __acrt_is_interactive      0000000180042524 f   libucrt:winapi_thunks.obj
 0001:000415ec       __acrt_uninitialize_winapi_thunks 00000001800425ec f   libucrt:winapi_thunks.obj
 0001:00041630       _fcloseall                 0000000180042630 f   libucrt:closeall.obj
 0001:000416e4       __acrt_stdio_free_buffer_nolock 00000001800426e4 f   libucrt:_freebuf.obj
 0001:00041920       __acrt_initialize_lowio    0000000180042920 f   libucrt:ioinit.obj
 0001:0004195c       __acrt_uninitialize_lowio  000000018004295c f   libucrt:ioinit.obj
 0001:0004199c       strtol                     000000018004299c f   libucrt:strtox.obj
 0001:000419c8       wcstol                     00000001800429c8 f   libucrt:strtox.obj
 0001:000419f4       _mbtowc_l                  00000001800429f4 f   libucrt:mbtowc.obj
 0001:00041b74       mbtowc                     0000000180042b74 f   libucrt:mbtowc.obj
 0001:00041b7c       _wctomb_s_l                0000000180042b7c f   libucrt:wctomb.obj
 0001:00041d18       wctomb_s                   0000000180042d18 f   libucrt:wctomb.obj
 0001:00042738       __acrt_fp_format           0000000180043738 f   libucrt:cvt.obj
 0001:00042a70       _fputwc_nolock             0000000180043a70 f   libucrt:fputwc.obj
 0001:00042bec       _fputc_nolock              0000000180043bec f   libucrt:fputc.obj
 0001:00042c04       _get_printf_count_output   0000000180043c04 f   libucrt:printf_count_output.obj
 0001:00042c1c       __acrt_should_use_temporary_buffer 0000000180043c1c f   libucrt:_sftbuf.obj
 0001:00042c64       __acrt_stdio_begin_temporary_buffering_nolock 0000000180043c64 f   libucrt:_sftbuf.obj
 0001:00042d2c       __acrt_stdio_end_temporary_buffering_nolock 0000000180043d2c f   libucrt:_sftbuf.obj
 0001:000430d4       _lseek                     00000001800440d4 f   libucrt:lseek.obj
 0001:000430dc       _lseeki64                  00000001800440dc f   libucrt:lseek.obj
 0001:000430e4       _lseeki64_nolock           00000001800440e4 f   libucrt:lseek.obj
 0001:00043654       _read                      0000000180044654 f   libucrt:read.obj
 0001:00043770       _read_nolock               0000000180044770 f   libucrt:read.obj
 0001:00043bc8       ?__acrt_stdio_allocate_stream@@YA?AV__crt_stdio_stream@@XZ 0000000180044bc8 f   libucrt:stream.obj
 0001:00043c20       ?__acrt_stdio_free_stream@@YAXV__crt_stdio_stream@@@Z 0000000180044c20 f   libucrt:stream.obj
 0001:00043d28       ??$__acrt_stdio_parse_mode@D@@YA?AU__acrt_stdio_stream_mode@@QEBD@Z 0000000180044d28 f i libucrt:openfile.obj
 0001:00043fec       _openfile                  0000000180044fec f   libucrt:openfile.obj
 0001:000440fc       _close                     00000001800450fc f   libucrt:close.obj
 0001:000441a0       _close_nolock              00000001800451a0 f   libucrt:close.obj
 0001:00044260       __acrt_stdio_refill_and_read_narrow_nolock 0000000180045260 f   libucrt:_filbuf.obj
 0001:000443cc       _getdrive                  00000001800453cc f   libucrt:drive.obj
 0001:000444c4       wcspbrk                    00000001800454c4 f   libucrt:wcspbrk.obj
 0001:000444f8       __ascii_wcsicmp            00000001800454f8 f   libucrt:wcsicmp.obj
 0001:00044538       _wcsicmp                   0000000180045538 f   libucrt:wcsicmp.obj
 0001:00044580       _wcsicmp_l                 0000000180045580 f   libucrt:wcsicmp.obj
 0001:000446a8       __acrt_lowio_create_handle_array 00000001800456a8 f   libucrt:osfinfo.obj
 0001:00044750       __acrt_lowio_destroy_handle_array 0000000180045750 f   libucrt:osfinfo.obj
 0001:000447a0       __acrt_lowio_ensure_fh_exists 00000001800457a0 f   libucrt:osfinfo.obj
 0001:00044848       __acrt_lowio_lock_fh       0000000180045848 f   libucrt:osfinfo.obj
 0001:00044870       __acrt_lowio_set_os_handle 0000000180045870 f   libucrt:osfinfo.obj
 0001:00044930       __acrt_lowio_unlock_fh     0000000180045930 f   libucrt:osfinfo.obj
 0001:00044958       _alloc_osfhnd              0000000180045958 f   libucrt:osfinfo.obj
 0001:00044a98       _free_osfhnd               0000000180045a98 f   libucrt:osfinfo.obj
 0001:00044b54       _get_osfhandle             0000000180045b54 f   libucrt:osfinfo.obj
 0001:00044df8       __loctotime64_t            0000000180045df8 f   libucrt:loctotime.obj
 0001:00045000       _mbstowcs_s_l              0000000180046000 f   libucrt:mbstowcs.obj
 0001:00045134       mbstowcs_s                 0000000180046134 f   libucrt:mbstowcs.obj
 0001:000454b0       _wcstombs_s_l              00000001800464b0 f   libucrt:wcstombs.obj
 0001:00045598       _isctype_l                 0000000180046598 f   libucrt:isctype.obj
 0001:0004581c       __acrt_GetLocaleInfoA      000000018004681c f   libucrt:getlocaleinfoa.obj
 0001:000459e4       __acrt_GetStringTypeA      00000001800469e4 f   libucrt:getstringtypea.obj
 0001:00045b74       _raise_exc                 0000000180046b74 f   libucrt:fpexcept.obj
 0001:00045b9c       _raise_exc_ex              0000000180046b9c f   libucrt:fpexcept.obj
 0001:00045eac       _raise_excf                0000000180046eac f   libucrt:fpexcept.obj
 0001:00045ed8       _set_errno_from_matherr    0000000180046ed8 f   libucrt:fpexcept.obj
 0001:00045f08       _clrfp                     0000000180046f08 f   libucrt:fpctrl.obj
 0001:00045f28       _ctrlfp                    0000000180046f28 f   libucrt:fpctrl.obj
 0001:00045fa4       _set_statfp                0000000180046fa4 f   libucrt:fpctrl.obj
 0001:00045fc4       _statfp                    0000000180046fc4 f   libucrt:fpctrl.obj
 0001:00045fd8       _realloc_base              0000000180046fd8 f   libucrt:realloc_base.obj
 0001:00046054       iswctype                   0000000180047054 f   libucrt:iswctype.obj
 0001:000460c0       fegetround                 00000001800470c0 f   libucrt:fegetround.obj
 0001:000460e0       __acrt_initialize_fma3     00000001800470e0 f   libucrt:fma3_available.obj
 0001:00046150       _pow_special               0000000180047150 f   libucrt:pow_special.obj
 0001:00046274       _powf_special              0000000180047274 f   libucrt:pow_special.obj
 0001:00046400       __acrt_initialize_timeset  0000000180047400 f   libucrt:timeset.obj
 0001:00046450       __daylight                 0000000180047450 f   libucrt:timeset.obj
 0001:00046458       __dstbias                  0000000180047458 f   libucrt:timeset.obj
 0001:00046460       __timezone                 0000000180047460 f   libucrt:timeset.obj
 0001:00046468       __tzname                   0000000180047468 f   libucrt:timeset.obj
 0001:00046470       __wide_tzname              0000000180047470 f   libucrt:timeset.obj
 0001:00046478       _get_daylight              0000000180047478 f   libucrt:timeset.obj
 0001:000464a8       _get_dstbias               00000001800474a8 f   libucrt:timeset.obj
 0001:000464d8       _get_timezone              00000001800474d8 f   libucrt:timeset.obj
 0001:0004707c       __tzset                    000000018004807c f   libucrt:tzset.obj
 0001:000470bc       _isindst                   00000001800480bc f   libucrt:tzset.obj
 0001:000470ec       __acrt_get_developer_information_policy 00000001800480ec f   libucrt:win_policies.obj
 0001:00047140       __acrt_get_process_end_policy 0000000180048140 f   libucrt:win_policies.obj
 0001:0004717c       __acrt_get_windowing_model_policy 000000018004817c f   libucrt:win_policies.obj
 0001:000471fc       ??$__acrt_wcs_to_mbs_cp@U__crt_win32_buffer_internal_dynamic_resizing@@@@YAHQEB_WAEAV?$__crt_win32_buffer@DU__crt_win32_buffer_internal_dynamic_resizing@@@@I@Z 00000001800481fc f i libucrt:argv_wildcards.obj
 0001:00047a2c       __acrt_expand_narrow_argv_wildcards 0000000180048a2c f   libucrt:argv_wildcards.obj
 0001:0004815c       __acrt_initialize_multibyte 000000018004915c f   libucrt:mbctype.obj
 0001:000481bc       __acrt_update_thread_multibyte_data 00000001800491bc f   libucrt:mbctype.obj
 0001:000481d8       _setmbcp_nolock            00000001800491d8 f   libucrt:mbctype.obj
 0001:0004850c       _ismbblead                 000000018004950c f   libucrt:ismbbyte.obj
 0001:00048520       __acrt_initialize_command_line 0000000180049520 f   libucrt:argv_data.obj
 0001:00048548       __dcrt_get_narrow_environment_from_os 0000000180049548 f   libucrt:get_environment_from_os.obj
 0001:0004864c       __dcrt_get_wide_environment_from_os 000000018004964c f   libucrt:get_environment_from_os.obj
 0001:00048b00       __dcrt_set_variable_in_wide_environment_nolock 0000000180049b00 f   libucrt:setenv.obj
 0001:00048b08       _recalloc_base             0000000180049b08 f   libucrt:recalloc.obj
 0001:00048ba0       __acrt_initialize_heap     0000000180049ba0 f   libucrt:heap_handle.obj
 0001:00048bbc       __acrt_uninitialize_heap   0000000180049bbc f   libucrt:heap_handle.obj
 0001:00048bc8       __acrt_execute_initializers 0000000180049bc8 f   libucrt:shared_initialization.obj
 0001:00048c48       __acrt_execute_uninitializers 0000000180049c48 f   libucrt:shared_initialization.obj
 0001:00048c84       __acrt_has_user_matherr    0000000180049c84 f   libucrt:matherr.obj
 0001:00048ca4       __acrt_initialize_user_matherr 0000000180049ca4 f   libucrt:matherr.obj
 0001:00048cac       __acrt_invoke_user_matherr 0000000180049cac f   libucrt:matherr.obj
 0001:00048cdc       __acrt_add_locale_ref      0000000180049cdc f   libucrt:locale_refcounting.obj
 0001:00048d68       __acrt_free_locale         0000000180049d68 f   libucrt:locale_refcounting.obj
 0001:00048ee0       __acrt_locale_add_lc_time_reference 0000000180049ee0 f   libucrt:locale_refcounting.obj
 0001:00048f08       __acrt_locale_free_lc_time_if_unreferenced 0000000180049f08 f   libucrt:locale_refcounting.obj
 0001:00048f40       __acrt_locale_release_lc_time_reference 0000000180049f40 f   libucrt:locale_refcounting.obj
 0001:00048f68       __acrt_release_locale_ref  0000000180049f68 f   libucrt:locale_refcounting.obj
 0001:00049010       __acrt_update_thread_locale_data 000000018004a010 f   libucrt:locale_refcounting.obj
 0001:00049080       _updatetlocinfoEx_nolock   000000018004a080 f   libucrt:locale_refcounting.obj
 0001:000490e8       wcsncpy_s                  000000018004a0e8 f   libucrt:wcsncpy_s.obj
 0001:00049258       _commit                    000000018004a258 f   libucrt:commit.obj
 0001:00049b68       _write                     000000018004ab68 f   libucrt:write.obj
 0001:00049c54       _write_nolock              000000018004ac54 f   libucrt:write.obj
 0001:00049f38       __acrt_locale_free_monetary 000000018004af38 f   libucrt:initmon.obj
 0001:0004a044       __acrt_locale_initialize_monetary 000000018004b044 f   libucrt:initmon.obj
 0001:0004a578       __acrt_locale_free_numeric 000000018004b578 f   libucrt:initnum.obj
 0001:0004a5e4       __acrt_locale_initialize_numeric 000000018004b5e4 f   libucrt:initnum.obj
 0001:0004ac64       __acrt_locale_free_time    000000018004bc64 f   libucrt:inittime.obj
 0001:0004ad6c       __acrt_locale_initialize_time 000000018004bd6c f   libucrt:inittime.obj
 0001:0004ae08       wcscspn                    000000018004be08 f   libucrt:wcscspn.obj
 0001:0004b5fc       __acrt_get_qualified_locale 000000018004c5fc f   libucrt:get_qualified_locale.obj
 0001:0004c030       __acrt_get_qualified_locale_downlevel 000000018004d030 f   libucrt:getqloc_downlevel.obj
 0001:0004c2b0       _query_new_mode            000000018004d2b0 f   libucrt:new_mode.obj
 0001:0004c2b8       __acrt_fenv_get_common_round_control 000000018004d2b8 f   libucrt:_fenvutils.obj
 0001:0004c2c4       __acrt_fenv_get_control    000000018004d2c4 f   libucrt:_fenvutils.obj
 0001:0004c3b8       __acrt_fenv_get_status     000000018004d3b8 f   libucrt:_fenvutils.obj
 0001:0004c40c       __acrt_fenv_set_control    000000018004d40c f   libucrt:_fenvutils.obj
 0001:0004c554       __acrt_fenv_set_status     000000018004d554 f   libucrt:_fenvutils.obj
 0001:0004c5d8       __acrt_DownlevelLCIDToLocaleName 000000018004d5d8 f   libucrt:lcidtoname_downlevel.obj
 0001:0004c6cc       __acrt_DownlevelLocaleNameToLCID 000000018004d6cc f   libucrt:lcidtoname_downlevel.obj
 0001:0004c77c       ?__mbrtowc_utf8@__crt_mbstring@@YA_KPEA_WPEBD_KPEAU_Mbstatet@@@Z 000000018004d77c f   libucrt:mbrtowc.obj
 0001:0004c7b8       ?__mbsrtowcs_utf8@__crt_mbstring@@YA_KPEA_WPEAPEBD_KPEAU_Mbstatet@@@Z 000000018004d7b8 f   libucrt:mbrtowc.obj
 0001:0004c930       ?__c32rtomb_utf8@__crt_mbstring@@YA_KPEAD_UPEAU_Mbstatet@@@Z 000000018004d930 f   libucrt:c32rtomb.obj
 0001:0004c9e4       c32rtomb                   000000018004d9e4 f   libucrt:c32rtomb.obj
 0001:0004c9ec       __acrt_fp_strflt_to_string 000000018004d9ec f   libucrt:_fptostr.obj
 0001:0004cb48       __acrt_fltout              000000018004db48 f   libucrt:cfout.obj
 0001:0004dfd4       __acrt_stdio_flush_and_write_narrow_nolock 000000018004efd4 f   libucrt:_flsbuf.obj
 0001:0004e08c       __acrt_stdio_flush_and_write_wide_nolock 000000018004f08c f   libucrt:_flsbuf.obj
 0001:0004e148       _isatty                    000000018004f148 f   libucrt:isatty.obj
 0001:0004e1a8       __ascii_wcsnicmp           000000018004f1a8 f   libucrt:wcsnicmp.obj
 0001:0004e1f4       _wcsnicmp                  000000018004f1f4 f   libucrt:wcsnicmp.obj
 0001:0004e23c       _wcsnicmp_l                000000018004f23c f   libucrt:wcsnicmp.obj
 0001:0004e38c       __ascii_strnicmp           000000018004f38c f   libucrt:strnicmp.obj
 0001:0004e3d8       _strnicmp                  000000018004f3d8 f   libucrt:strnicmp.obj
 0001:0004e428       _strnicmp_l                000000018004f428 f   libucrt:strnicmp.obj
 0001:0004eb00       _sopen_nolock              000000018004fb00 f   libucrt:open.obj
 0001:0004ec18       _sopen_s                   000000018004fc18 f   libucrt:open.obj
 0001:0004ec4c       _wsopen_nolock             000000018004fc4c f   libucrt:open.obj
 0001:0004f034       __acrt_stdio_allocate_buffer_nolock 0000000180050034 f   libucrt:_getbuf.obj
 0001:0004f0a0       _towlower_l                00000001800500a0 f   libucrt:towlower.obj
 0001:0004f15c       ?__wcsrtombs_utf8@__crt_mbstring@@YA_KPEADPEAPEB_W_KPEAU_Mbstatet@@@Z 000000018005015c f   libucrt:wcrtomb.obj
 0001:0004f278       strncpy_s                  0000000180050278 f   libucrt:strncpy_s.obj
 0001:0004f360       _get_fpsr                  0000000180050360 f   libucrt:fpsr.obj
 0001:0004f370       _set_fpsr                  0000000180050370 f   libucrt:fpsr.obj
 0001:0004f37a       _fclrf                     000000018005037a f   libucrt:fpsr.obj
 0001:0004f38e       _frnd                      000000018005038e f   libucrt:fpsr.obj
 0001:0004f3b0       __acrt_GetStringTypeW      00000001800503b0 f   libucrt:getstringtypew.obj
 0001:0004f548       _wgetenv_s                 0000000180050548 f   libucrt:getenv.obj
 0001:0004f550       qsort                      0000000180050550 f   libucrt:qsort.obj
 0001:0004f990       strpbrk                    0000000180050990 f   libucrt:strpbrk.obj
 0001:0004fd58       _mbsdec                    0000000180050d58 f   libucrt:mbsdec.obj
 0001:0004fd60       _mbsdec_l                  0000000180050d60 f   libucrt:mbsdec.obj
 0001:0004fe0c       _wcsnicoll                 0000000180050e0c f   libucrt:wcsnicol.obj
 0001:0004fe5c       _wcsnicoll_l               0000000180050e5c f   libucrt:wcsnicol.obj
 0001:0004ff4c       _msize_base                0000000180050f4c f   libucrt:msize.obj
 0001:0004ff88       _putwch_nolock             0000000180050f88 f   libucrt:putwch.obj
 0001:0004ffc4       wcscmp                     0000000180050fc4 f   libucrt:wcscmp.obj
 0001:0004fffc       ?__mbrtoc32_utf8@__crt_mbstring@@YA_KPEA_UPEBD_KPEAU_Mbstatet@@@Z 0000000180050ffc f   libucrt:mbrtoc32.obj
 0001:000501d4       _controlfp_s               00000001800511d4 f   libucrt:contrlfp.obj
 0001:00050238       fegetenv                   0000000180051238 f   libucrt:fegetenv.obj
 0001:00050258       fesetenv                   0000000180051258 f   libucrt:fesetenv.obj
 0001:000502a4       feholdexcept               00000001800512a4 f   libucrt:feholdexcept.obj
 0001:000502f4       ceil                       00000001800512f4 f   libucrt:ceil.obj
 0001:000503c0       log10                      00000001800513c0 f   libucrt:log10.obj
 0001:0005096c       _get_fmode                 000000018005196c f   libucrt:setmode.obj
 0001:0005099c       _setmode_nolock            000000018005199c f   libucrt:setmode.obj
 0001:00050a7c       _chsize_nolock             0000000180051a7c f   libucrt:chsize.obj
 0001:00050be8       __acrt_LCMapStringW        0000000180051be8 f   libucrt:lcmapstringw.obj
 0001:00050c70       ?__c16rtomb_utf8@__crt_mbstring@@YA_KPEAD_SPEAU_Mbstatet@@@Z 0000000180051c70 f   libucrt:c16rtomb.obj
 0001:00050d14       __acrt_CompareStringW      0000000180051d14 f   libucrt:comparestringw.obj
 0001:00050dd4       __dcrt_lowio_ensure_console_output_initialized 0000000180051dd4 f   libucrt:initcon.obj
 0001:00050e28       __dcrt_terminate_console_output 0000000180051e28 f   libucrt:initcon.obj
 0001:00050e44       __dcrt_write_console       0000000180051e44 f   libucrt:initcon.obj
 0001:00050f04       _clearfp                   0000000180051f04 f   libucrt:ieee.obj
 0001:00050f74       _control87                 0000000180051f74 f   libucrt:ieee.obj
 0001:00051240       _log10_special             0000000180052240 f   libucrt:log_special.obj
 0001:000512f8       __acrt_initialize_fmode    00000001800522f8 f   libucrt:txtmode.obj
 0001:00051311       RtlUnwind                  0000000180052311 f   kernel32:KERNEL32.dll
 0001:00051318       ?DloadAcquireSectionWriteAccess@@YAXXZ 0000000180052318 f i DelayImp:delayhlp.obj
 0001:000513c4       ?DloadGetSRWLockFunctionPointers@@YAEXZ 00000001800523c4 f i DelayImp:delayhlp.obj
 0001:00051460       ?DloadMakePermanentImageCommit@@YAXPEAX_K@Z 0000000180052460 f i DelayImp:delayhlp.obj
 0001:000514f8       ?DloadObtainSection@@YAPEAXPEAK0@Z 00000001800524f8 f i DelayImp:delayhlp.obj
 0001:00051594       ?DloadProtectSection@@YAXKPEAK@Z 0000000180052594 f i DelayImp:delayhlp.obj
 0001:00051624       ?DloadReleaseSectionWriteAccess@@YAXXZ 0000000180052624 f i DelayImp:delayhlp.obj
 0001:000516b8       __delayLoadHelper2         00000001800526b8 f   DelayImp:delayhlp.obj
 0001:00051990       _FindPESection             0000000180052990 f   LIBCMT:pesect.obj
 0001:000519e0       _IsNonwritableInCurrentImage 00000001800529e0 f   LIBCMT:pesect.obj
 0001:00051a30       _ValidateImageBase         0000000180052a30 f   LIBCMT:pesect.obj
 0001:00051a60       __GSHandlerCheck_SEH       0000000180052a60 f   LIBCMT:gshandlerseh.obj
 0001:00051ae8       __GSHandlerCheck_EH        0000000180052ae8 f   LIBCMT:gshandlereh.obj
 0001:00051b68       wcsrchr                    0000000180052b68 f   libvcruntime:wcsrchr.obj
 0001:00051c18       strrchr                    0000000180052c18 f   libvcruntime:strrchr.obj
 0001:00051d44       wcschr                     0000000180052d44 f   libvcruntime:wcschr.obj
 0001:00051dc0       acos                       0000000180052dc0 f   libucrt:acos.obj
 0001:00052064       acosf                      0000000180053064 f   libucrt:acosf.obj
 0001:00052290       ceilf                      0000000180053290 f   libucrt:ceilf.obj
 0001:00052318       floor                      0000000180053318 f   libucrt:floor.obj
 0001:000523c8       fmodf                      00000001800533c8 f   libucrt:fmodf.obj
 0001:0005260c       sqrt                       000000018005360c f   libucrt:sqrt.obj
 0001:000526d8       sqrtf                      00000001800536d8 f   libucrt:sqrtf.obj
 0001:00052790       strcmp                     0000000180053790 f   libucrt:strcmp.obj
 0001:00052800       tan                        0000000180053800 f   libucrt:tan.obj
 0001:0005303c       _tan_special               000000018005403c f   libucrt:sincos_special.obj
 0001:00053050       __remainder_piby2_fma3     0000000180054050 f   libucrt:remainder_piby2_forfma3.obj
 0001:00053240       __remainder_piby2_fma3_bdl 0000000180054240 f   libucrt:remainder_piby2_forfma3.obj
 0001:000532c0       __remainder_piby2_forAsm   00000001800542c0 f   libucrt:remainder_piby2_forasm.obj
 0001:000534d0       __remainder_piby2_cw_forAsm 00000001800544d0 f   libucrt:remainder_piby2_forasm.obj
 0001:00053620       _guard_dispatch_icall_nop  0000000180054620 f   LIBCMT:guard_dispatch.obj
 0001:00053640       _guard_xfg_dispatch_icall_nop 0000000180054640 f   LIBCMT:guard_xfg_dispatch.obj
 0001:00053660       __longjmp_internal         0000000180054660 f   libvcruntime:longjmp.obj
 0001:00053760       __intrinsic_setjmp         0000000180054760 f   libvcruntime:setjmp.obj
 0001:00053760       _setjmp                    0000000180054760 f   libvcruntime:setjmp.obj
 0001:00053800       setjmp                     0000000180054800 f   libvcruntime:setjmp.obj
 0002:00000000       __imp_AddFontResourceExA   0000000180058000     gdi32:GDI32.dll
 0002:00000008       \177GDI32_NULL_THUNK_DATA  0000000180058008     gdi32:GDI32.dll
 0002:00000010       __imp_VirtualQuery         0000000180058010     kernel32:KERNEL32.dll
 0002:00000018       __imp_GetModuleHandleA     0000000180058018     kernel32:KERNEL32.dll
 0002:00000020       __imp_VirtualProtect       0000000180058020     kernel32:KERNEL32.dll
 0002:00000028       __imp_GetSystemInfo        0000000180058028     kernel32:KERNEL32.dll
 0002:00000030       __imp_SetEndOfFile         0000000180058030     kernel32:KERNEL32.dll
 0002:00000038       __imp_HeapSize             0000000180058038     kernel32:KERNEL32.dll
 0002:00000040       __imp_GetFileSizeEx        0000000180058040     kernel32:KERNEL32.dll
 0002:00000048       __imp_GetConsoleOutputCP   0000000180058048     kernel32:KERNEL32.dll
 0002:00000050       __imp_FlushFileBuffers     0000000180058050     kernel32:KERNEL32.dll
 0002:00000058       __imp_GetProcessHeap       0000000180058058     kernel32:KERNEL32.dll
 0002:00000060       __imp_SetEnvironmentVariableW 0000000180058060     kernel32:KERNEL32.dll
 0002:00000068       __imp_FreeEnvironmentStringsW 0000000180058068     kernel32:KERNEL32.dll
 0002:00000070       __imp_GetEnvironmentStringsW 0000000180058070     kernel32:KERNEL32.dll
 0002:00000078       __imp_GetCommandLineW      0000000180058078     kernel32:KERNEL32.dll
 0002:00000080       __imp_GetCommandLineA      0000000180058080     kernel32:KERNEL32.dll
 0002:00000088       __imp_GetOEMCP             0000000180058088     kernel32:KERNEL32.dll
 0002:00000090       __imp_GetACP               0000000180058090     kernel32:KERNEL32.dll
 0002:00000098       __imp_IsValidCodePage      0000000180058098     kernel32:KERNEL32.dll
 0002:000000a0       __imp_FindNextFileW        00000001800580a0     kernel32:KERNEL32.dll
 0002:000000a8       __imp_FindFirstFileExW     00000001800580a8     kernel32:KERNEL32.dll
 0002:000000b0       __imp_FindClose            00000001800580b0     kernel32:KERNEL32.dll
 0002:000000b8       __imp_GetTimeZoneInformation 00000001800580b8     kernel32:KERNEL32.dll
 0002:000000c0       __imp_HeapReAlloc          00000001800580c0     kernel32:KERNEL32.dll
 0002:000000c8       __imp_SetStdHandle         00000001800580c8     kernel32:KERNEL32.dll
 0002:000000d0       __imp_GetCurrentDirectoryW 00000001800580d0     kernel32:KERNEL32.dll
 0002:000000d8       __imp_ReadConsoleW         00000001800580d8     kernel32:KERNEL32.dll
 0002:000000e0       __imp_GetConsoleMode       00000001800580e0     kernel32:KERNEL32.dll
 0002:000000e8       __imp_SetFilePointerEx     00000001800580e8     kernel32:KERNEL32.dll
 0002:000000f0       __imp_EnumSystemLocalesW   00000001800580f0     kernel32:KERNEL32.dll
 0002:000000f8       __imp_GetUserDefaultLCID   00000001800580f8     kernel32:KERNEL32.dll
 0002:00000100       __imp_IsValidLocale        0000000180058100     kernel32:KERNEL32.dll
 0002:00000108       __imp_GetLocaleInfoW       0000000180058108     kernel32:KERNEL32.dll
 0002:00000110       __imp_LCMapStringW         0000000180058110     kernel32:KERNEL32.dll
 0002:00000118       __imp_CompareStringW       0000000180058118     kernel32:KERNEL32.dll
 0002:00000120       __imp_GetTimeFormatW       0000000180058120     kernel32:KERNEL32.dll
 0002:00000128       __imp_GetDateFormatW       0000000180058128     kernel32:KERNEL32.dll
 0002:00000130       __imp_HeapAlloc            0000000180058130     kernel32:KERNEL32.dll
 0002:00000138       __imp_HeapFree             0000000180058138     kernel32:KERNEL32.dll
 0002:00000140       __imp_OutputDebugStringW   0000000180058140     kernel32:KERNEL32.dll
 0002:00000148       __imp_WriteFile            0000000180058148     kernel32:KERNEL32.dll
 0002:00000150       __imp_ExitProcess          0000000180058150     kernel32:KERNEL32.dll
 0002:00000158       __imp_FileTimeToSystemTime 0000000180058158     kernel32:KERNEL32.dll
 0002:00000160       __imp_SystemTimeToTzSpecificLocalTime 0000000180058160     kernel32:KERNEL32.dll
 0002:00000168       __imp_PeekNamedPipe        0000000180058168     kernel32:KERNEL32.dll
 0002:00000170       __imp_CloseHandle          0000000180058170     kernel32:KERNEL32.dll
 0002:00000178       __imp_GetFileInformationByHandle 0000000180058178     kernel32:KERNEL32.dll
 0002:00000180       __imp_CreateFileW          0000000180058180     kernel32:KERNEL32.dll
 0002:00000188       __imp_ReadFile             0000000180058188     kernel32:KERNEL32.dll
 0002:00000190       __imp_WriteConsoleW        0000000180058190     kernel32:KERNEL32.dll
 0002:00000198       __imp_GetModuleHandleExW   0000000180058198     kernel32:KERNEL32.dll
 0002:000001a0       __imp_GetModuleFileNameW   00000001800581a0     kernel32:KERNEL32.dll
 0002:000001a8       __imp_GetFileType          00000001800581a8     kernel32:KERNEL32.dll
 0002:000001b0       __imp_GetStdHandle         00000001800581b0     kernel32:KERNEL32.dll
 0002:000001b8       __imp_LoadLibraryExW       00000001800581b8     kernel32:KERNEL32.dll
 0002:000001c0       __imp_GetProcAddress       00000001800581c0     kernel32:KERNEL32.dll
 0002:000001c8       __imp_FreeLibrary          00000001800581c8     kernel32:KERNEL32.dll
 0002:000001d0       __imp_TlsFree              00000001800581d0     kernel32:KERNEL32.dll
 0002:000001d8       __imp_TlsSetValue          00000001800581d8     kernel32:KERNEL32.dll
 0002:000001e0       __imp_TlsGetValue          00000001800581e0     kernel32:KERNEL32.dll
 0002:000001e8       __imp_TlsAlloc             00000001800581e8     kernel32:KERNEL32.dll
 0002:000001f0       __imp_InitializeCriticalSectionAndSpinCount 00000001800581f0     kernel32:KERNEL32.dll
 0002:000001f8       __imp_RtlUnwind            00000001800581f8     kernel32:KERNEL32.dll
 0002:00000200       __imp_SetLastError         0000000180058200     kernel32:KERNEL32.dll
 0002:00000208       __imp_GetLastError         0000000180058208     kernel32:KERNEL32.dll
 0002:00000210       __imp_InterlockedFlushSList 0000000180058210     kernel32:KERNEL32.dll
 0002:00000218       __imp_RaiseException       0000000180058218     kernel32:KERNEL32.dll
 0002:00000220       __imp_RtlPcToFileHeader    0000000180058220     kernel32:KERNEL32.dll
 0002:00000228       __imp_RtlUnwindEx          0000000180058228     kernel32:KERNEL32.dll
 0002:00000230       __imp_InitializeSListHead  0000000180058230     kernel32:KERNEL32.dll
 0002:00000238       __imp_GetSystemTimeAsFileTime 0000000180058238     kernel32:KERNEL32.dll
 0002:00000240       __imp_GetCurrentThreadId   0000000180058240     kernel32:KERNEL32.dll
 0002:00000248       __imp_GetCurrentProcessId  0000000180058248     kernel32:KERNEL32.dll
 0002:00000250       __imp_QueryPerformanceCounter 0000000180058250     kernel32:KERNEL32.dll
 0002:00000258       __imp_GetModuleHandleW     0000000180058258     kernel32:KERNEL32.dll
 0002:00000260       __imp_GetStartupInfoW      0000000180058260     kernel32:KERNEL32.dll
 0002:00000268       __imp_IsDebuggerPresent    0000000180058268     kernel32:KERNEL32.dll
 0002:00000270       __imp_IsProcessorFeaturePresent 0000000180058270     kernel32:KERNEL32.dll
 0002:00000278       __imp_TerminateProcess     0000000180058278     kernel32:KERNEL32.dll
 0002:00000280       __imp_GetCurrentProcess    0000000180058280     kernel32:KERNEL32.dll
 0002:00000288       __imp_SetUnhandledExceptionFilter 0000000180058288     kernel32:KERNEL32.dll
 0002:00000290       __imp_UnhandledExceptionFilter 0000000180058290     kernel32:KERNEL32.dll
 0002:00000298       __imp_RtlVirtualUnwind     0000000180058298     kernel32:KERNEL32.dll
 0002:000002a0       __imp_RtlLookupFunctionEntry 00000001800582a0     kernel32:KERNEL32.dll
 0002:000002a8       __imp_RtlCaptureContext    00000001800582a8     kernel32:KERNEL32.dll
 0002:000002b0       __imp_GetCPInfo            00000001800582b0     kernel32:KERNEL32.dll
 0002:000002b8       __imp_GetStringTypeW       00000001800582b8     kernel32:KERNEL32.dll
 0002:000002c0       __imp_LCMapStringEx        00000001800582c0     kernel32:KERNEL32.dll
 0002:000002c8       __imp_WideCharToMultiByte  00000001800582c8     kernel32:KERNEL32.dll
 0002:000002d0       __imp_MultiByteToWideChar  00000001800582d0     kernel32:KERNEL32.dll
 0002:000002d8       __imp_DecodePointer        00000001800582d8     kernel32:KERNEL32.dll
 0002:000002e0       __imp_EncodePointer        00000001800582e0     kernel32:KERNEL32.dll
 0002:000002e8       __imp_DeleteCriticalSection 00000001800582e8     kernel32:KERNEL32.dll
 0002:000002f0       __imp_InitializeCriticalSectionEx 00000001800582f0     kernel32:KERNEL32.dll
 0002:000002f8       __imp_LeaveCriticalSection 00000001800582f8     kernel32:KERNEL32.dll
 0002:00000300       __imp_EnterCriticalSection 0000000180058300     kernel32:KERNEL32.dll
 0002:00000308       __imp_LoadLibraryExA       0000000180058308     kernel32:KERNEL32.dll
 0002:00000310       \177KERNEL32_NULL_THUNK_DATA 0000000180058310     kernel32:KERNEL32.dll
 0002:00000318       __imp_g_object_unref       0000000180058318     libgobject-2.0-0:dauhs00164.o
 0002:00000328       __imp_rsvg_handle_get_dimensions 0000000180058328     librsvg-2-2:dewds00014.o
 0002:00000330       __imp_rsvg_handle_new_from_data 0000000180058330     librsvg-2-2:dewds00028.o
 0002:00000338       __imp_rsvg_handle_render_cairo 0000000180058338     librsvg-2-2:dewds00034.o
 0002:00000348       __imp_cairo_append_path    0000000180058348     libcairo-2:dgjcs00840.o
 0002:00000350       __imp_cairo_arc            0000000180058350     libcairo-2:dgjcs00841.o
 0002:00000358       __imp_cairo_arc_negative   0000000180058358     libcairo-2:dgjcs00842.o
 0002:00000360       __imp_cairo_clip_preserve  0000000180058360     libcairo-2:dgjcs00845.o
 0002:00000368       __imp_cairo_close_path     0000000180058368     libcairo-2:dgjcs00846.o
 0002:00000370       __imp_cairo_copy_path_flat 0000000180058370     libcairo-2:dgjcs00850.o
 0002:00000378       __imp_cairo_create         0000000180058378     libcairo-2:dgjcs00851.o
 0002:00000380       __imp_cairo_curve_to       0000000180058380     libcairo-2:dgjcs00852.o
 0002:00000388       __imp_cairo_destroy        0000000180058388     libcairo-2:dgjcs00854.o
 0002:00000390       __imp_cairo_fill           0000000180058390     libcairo-2:dgjcs00875.o
 0002:00000398       __imp_cairo_fill_extents   0000000180058398     libcairo-2:dgjcs00876.o
 0002:000003a0       __imp_cairo_fill_preserve  00000001800583a0     libcairo-2:dgjcs00877.o
 0002:000003a8       __imp_cairo_format_stride_for_width 00000001800583a8     libcairo-2:dgjcs00903.o
 0002:000003b0       __imp_cairo_get_antialias  00000001800583b0     libcairo-2:dgjcs00912.o
 0002:000003b8       __imp_cairo_get_current_point 00000001800583b8     libcairo-2:dgjcs00913.o
 0002:000003c0       __imp_cairo_get_dash       00000001800583c0     libcairo-2:dgjcs00914.o
 0002:000003c8       __imp_cairo_get_dash_count 00000001800583c8     libcairo-2:dgjcs00915.o
 0002:000003d0       __imp_cairo_get_line_cap   00000001800583d0     libcairo-2:dgjcs00921.o
 0002:000003d8       __imp_cairo_get_line_join  00000001800583d8     libcairo-2:dgjcs00922.o
 0002:000003e0       __imp_cairo_get_line_width 00000001800583e0     libcairo-2:dgjcs00923.o
 0002:000003e8       __imp_cairo_get_matrix     00000001800583e8     libcairo-2:dgjcs00924.o
 0002:000003f0       __imp_cairo_get_miter_limit 00000001800583f0     libcairo-2:dgjcs00925.o
 0002:000003f8       __imp_cairo_get_operator   00000001800583f8     libcairo-2:dgjcs00926.o
 0002:00000400       __imp_cairo_get_source     0000000180058400     libcairo-2:dgjcs00929.o
 0002:00000408       __imp_cairo_identity_matrix 0000000180058408     libcairo-2:dgjcs00938.o
 0002:00000410       __imp_cairo_image_surface_create 0000000180058410     libcairo-2:dgjcs00939.o
 0002:00000418       __imp_cairo_image_surface_create_for_data 0000000180058418     libcairo-2:dgjcs00940.o
 0002:00000420       __imp_cairo_image_surface_create_from_png 0000000180058420     libcairo-2:dgjcs00941.o
 0002:00000428       __imp_cairo_image_surface_create_from_png_stream 0000000180058428     libcairo-2:dgjcs00942.o
 0002:00000430       __imp_cairo_image_surface_get_data 0000000180058430     libcairo-2:dgjcs00943.o
 0002:00000438       __imp_cairo_image_surface_get_format 0000000180058438     libcairo-2:dgjcs00944.o
 0002:00000440       __imp_cairo_image_surface_get_height 0000000180058440     libcairo-2:dgjcs00945.o
 0002:00000448       __imp_cairo_image_surface_get_stride 0000000180058448     libcairo-2:dgjcs00946.o
 0002:00000450       __imp_cairo_image_surface_get_width 0000000180058450     libcairo-2:dgjcs00947.o
 0002:00000458       __imp_cairo_in_fill        0000000180058458     libcairo-2:dgjcs00949.o
 0002:00000460       __imp_cairo_in_stroke      0000000180058460     libcairo-2:dgjcs00950.o
 0002:00000468       __imp_cairo_line_to        0000000180058468     libcairo-2:dgjcs00951.o
 0002:00000470       __imp_cairo_mask_surface   0000000180058470     libcairo-2:dgjcs00954.o
 0002:00000478       __imp_cairo_matrix_init    0000000180058478     libcairo-2:dgjcs00955.o
 0002:00000480       __imp_cairo_move_to        0000000180058480     libcairo-2:dgjcs00979.o
 0002:00000488       __imp_cairo_new_path       0000000180058488     libcairo-2:dgjcs00980.o
 0002:00000490       __imp_cairo_paint          0000000180058490     libcairo-2:dgjcs00982.o
 0002:00000498       __imp_cairo_paint_with_alpha 0000000180058498     libcairo-2:dgjcs00983.o
 0002:000004a0       __imp_cairo_path_destroy   00000001800584a0     libcairo-2:dgjcs00984.o
 0002:000004a8       __imp_cairo_pattern_add_color_stop_rgba 00000001800584a8     libcairo-2:dgjcs00987.o
 0002:000004b0       __imp_cairo_pattern_create_for_surface 00000001800584b0     libcairo-2:dgjcs00988.o
 0002:000004b8       __imp_cairo_pattern_create_linear 00000001800584b8     libcairo-2:dgjcs00989.o
 0002:000004c0       __imp_cairo_pattern_create_radial 00000001800584c0     libcairo-2:dgjcs00991.o
 0002:000004c8       __imp_cairo_pattern_destroy 00000001800584c8     libcairo-2:dgjcs00995.o
 0002:000004d0       __imp_cairo_pattern_get_color_stop_count 00000001800584d0     libcairo-2:dgjcs00996.o
 0002:000004d8       __imp_cairo_pattern_get_color_stop_rgba 00000001800584d8     libcairo-2:dgjcs00997.o
 0002:000004e0       __imp_cairo_pattern_get_filter 00000001800584e0     libcairo-2:dgjcs00999.o
 0002:000004e8       __imp_cairo_pattern_get_linear_points 00000001800584e8     libcairo-2:dgjcs01000.o
 0002:000004f0       __imp_cairo_pattern_get_radial_circles 00000001800584f0     libcairo-2:dgjcs01002.o
 0002:000004f8       __imp_cairo_pattern_get_surface 00000001800584f8     libcairo-2:dgjcs01005.o
 0002:00000500       __imp_cairo_pattern_get_type 0000000180058500     libcairo-2:dgjcs01006.o
 0002:00000508       __imp_cairo_pattern_get_user_data 0000000180058508     libcairo-2:dgjcs01007.o
 0002:00000510       __imp_cairo_pattern_set_extend 0000000180058510     libcairo-2:dgjcs01009.o
 0002:00000518       __imp_cairo_pattern_set_filter 0000000180058518     libcairo-2:dgjcs01010.o
 0002:00000520       __imp_cairo_pattern_set_user_data 0000000180058520     libcairo-2:dgjcs01012.o
 0002:00000528       __imp_cairo_pdf_surface_create_for_stream 0000000180058528     libcairo-2:dgjcs01017.o
 0002:00000530       __imp_cairo_pdf_surface_set_metadata 0000000180058530     libcairo-2:dgjcs01019.o
 0002:00000538       __imp_cairo_pdf_surface_set_size 0000000180058538     libcairo-2:dgjcs01021.o
 0002:00000540       __imp_cairo_pop_group_to_source 0000000180058540     libcairo-2:dgjcs01025.o
 0002:00000548       __imp_cairo_push_group     0000000180058548     libcairo-2:dgjcs01037.o
 0002:00000550       __imp_cairo_rectangle      0000000180058550     libcairo-2:dgjcs01052.o
 0002:00000558       __imp_cairo_restore        0000000180058558     libcairo-2:dgjcs01082.o
 0002:00000560       __imp_cairo_rotate         0000000180058560     libcairo-2:dgjcs01083.o
 0002:00000568       __imp_cairo_save           0000000180058568     libcairo-2:dgjcs01084.o
 0002:00000570       __imp_cairo_scale          0000000180058570     libcairo-2:dgjcs01085.o
 0002:00000578       __imp_cairo_set_antialias  0000000180058578     libcairo-2:dgjcs01112.o
 0002:00000580       __imp_cairo_set_dash       0000000180058580     libcairo-2:dgjcs01113.o
 0002:00000588       __imp_cairo_set_fill_rule  0000000180058588     libcairo-2:dgjcs01114.o
 0002:00000590       __imp_cairo_set_line_cap   0000000180058590     libcairo-2:dgjcs01119.o
 0002:00000598       __imp_cairo_set_line_join  0000000180058598     libcairo-2:dgjcs01120.o
 0002:000005a0       __imp_cairo_set_line_width 00000001800585a0     libcairo-2:dgjcs01121.o
 0002:000005a8       __imp_cairo_set_matrix     00000001800585a8     libcairo-2:dgjcs01122.o
 0002:000005b0       __imp_cairo_set_miter_limit 00000001800585b0     libcairo-2:dgjcs01123.o
 0002:000005b8       __imp_cairo_set_operator   00000001800585b8     libcairo-2:dgjcs01124.o
 0002:000005c0       __imp_cairo_set_source     00000001800585c0     libcairo-2:dgjcs01126.o
 0002:000005c8       __imp_cairo_set_source_rgba 00000001800585c8     libcairo-2:dgjcs01128.o
 0002:000005d0       __imp_cairo_set_source_surface 00000001800585d0     libcairo-2:dgjcs01129.o
 0002:000005d8       __imp_cairo_show_page      00000001800585d8     libcairo-2:dgjcs01133.o
 0002:000005e0       __imp_cairo_status         00000001800585e0     libcairo-2:dgjcs01136.o
 0002:000005e8       __imp_cairo_status_to_string 00000001800585e8     libcairo-2:dgjcs01137.o
 0002:000005f0       __imp_cairo_stroke         00000001800585f0     libcairo-2:dgjcs01138.o
 0002:000005f8       __imp_cairo_stroke_extents 00000001800585f8     libcairo-2:dgjcs01139.o
 0002:00000600       __imp_cairo_stroke_preserve 0000000180058600     libcairo-2:dgjcs01140.o
 0002:00000608       __imp_cairo_surface_destroy 0000000180058608     libcairo-2:dgjcs01146.o
 0002:00000610       __imp_cairo_surface_finish 0000000180058610     libcairo-2:dgjcs01147.o
 0002:00000618       __imp_cairo_surface_flush  0000000180058618     libcairo-2:dgjcs01148.o
 0002:00000620       __imp_cairo_surface_mark_dirty 0000000180058620     libcairo-2:dgjcs01161.o
 0002:00000628       __imp_cairo_surface_mark_dirty_rectangle 0000000180058628     libcairo-2:dgjcs01162.o
 0002:00000630       __imp_cairo_surface_set_mime_data 0000000180058630     libcairo-2:dgjcs01176.o
 0002:00000638       __imp_cairo_surface_status 0000000180058638     libcairo-2:dgjcs01179.o
 0002:00000640       __imp_cairo_svg_surface_create_for_stream 0000000180058640     libcairo-2:dgjcs01186.o
 0002:00000648       __imp_cairo_transform      0000000180058648     libcairo-2:dgjcs01205.o
 0002:00000650       __imp_cairo_translate      0000000180058650     libcairo-2:dgjcs01206.o
 0002:00000658       __imp_cairo_user_to_device_distance 0000000180058658     libcairo-2:dgjcs01217.o
 0002:00000660       __imp_cairo_version_string 0000000180058660     libcairo-2:dgjcs01219.o
 0002:00000670       __imp_g_free               0000000180058670     libglib-2.0-0:diogs00427.o
 0002:00000678       __imp_g_iconv              0000000180058678     libglib-2.0-0:diogs00526.o
 0002:00000680       __imp_g_iconv_open         0000000180058680     libglib-2.0-0:diogs00528.o
 0002:00000688       __imp_g_list_first         0000000180058688     libglib-2.0-0:diogs00645.o
 0002:00000690       __imp_g_list_foreach       0000000180058690     libglib-2.0-0:diogs00646.o
 0002:00000698       __imp_g_list_free          0000000180058698     libglib-2.0-0:diogs00647.o
 0002:000006a0       __imp_g_list_insert_sorted 00000001800586a0     libglib-2.0-0:diogs00654.o
 0002:000006a8       __imp_g_strdup             00000001800586a8     libglib-2.0-0:diogs01266.o
 0002:000006b8       __imp_FT_Done_Face         00000001800586b8     libfreetype-6:dmmks00034.o
 0002:000006c0       __imp_FT_Done_FreeType     00000001800586c0     libfreetype-6:dmmks00035.o
 0002:000006c8       __imp_FT_Get_Sfnt_Name     00000001800586c8     libfreetype-6:dmmks00089.o
 0002:000006d0       __imp_FT_Get_Sfnt_Name_Count 00000001800586d0     libfreetype-6:dmmks00090.o
 0002:000006d8       __imp_FT_Get_Sfnt_Table    00000001800586d8     libfreetype-6:dmmks00091.o
 0002:000006e0       __imp_FT_Init_FreeType     00000001800586e0     libfreetype-6:dmmks00112.o
 0002:000006e8       __imp_FT_New_Face          00000001800586e8     libfreetype-6:dmmks00131.o
 0002:000006f8       __imp_jpeg_CreateCompress  00000001800586f8     libjpeg-8:dqkks00029.o
 0002:00000700       __imp_jpeg_CreateDecompress 0000000180058700     libjpeg-8:dqkks00030.o
 0002:00000708       __imp_jpeg_abort_decompress 0000000180058708     libjpeg-8:dqkks00033.o
 0002:00000710       __imp_jpeg_destroy_compress 0000000180058710     libjpeg-8:dqkks00046.o
 0002:00000718       __imp_jpeg_destroy_decompress 0000000180058718     libjpeg-8:dqkks00047.o
 0002:00000720       __imp_jpeg_finish_compress 0000000180058720     libjpeg-8:dqkks00052.o
 0002:00000728       __imp_jpeg_finish_decompress 0000000180058728     libjpeg-8:dqkks00053.o
 0002:00000730       __imp_jpeg_mem_src         0000000180058730     libjpeg-8:dqkks00074.o
 0002:00000738       __imp_jpeg_read_header     0000000180058738     libjpeg-8:dqkks00080.o
 0002:00000740       __imp_jpeg_read_scanlines  0000000180058740     libjpeg-8:dqkks00083.o
 0002:00000748       __imp_jpeg_set_defaults    0000000180058748     libjpeg-8:dqkks00087.o
 0002:00000750       __imp_jpeg_set_quality     0000000180058750     libjpeg-8:dqkks00090.o
 0002:00000758       __imp_jpeg_simple_progression 0000000180058758     libjpeg-8:dqkks00091.o
 0002:00000760       __imp_jpeg_start_compress  0000000180058760     libjpeg-8:dqkks00093.o
 0002:00000768       __imp_jpeg_start_decompress 0000000180058768     libjpeg-8:dqkks00094.o
 0002:00000770       __imp_jpeg_std_error       0000000180058770     libjpeg-8:dqkks00096.o
 0002:00000778       __imp_jpeg_stdio_src       0000000180058778     libjpeg-8:dqkks00098.o
 0002:00000780       __imp_jpeg_write_scanlines 0000000180058780     libjpeg-8:dqkks00106.o
 0002:00000790       __imp_pango_context_get_language 0000000180058790     libpango-1.0-0:dsris00080.o
 0002:00000798       __imp_pango_context_get_metrics 0000000180058798     libpango-1.0-0:dsris00082.o
 0002:000007a0       __imp_pango_font_description_better_match 00000001800587a0     libpango-1.0-0:dsris00121.o
 0002:000007a8       __imp_pango_font_description_copy 00000001800587a8     libpango-1.0-0:dsris00122.o
 0002:000007b0       __imp_pango_font_description_equal 00000001800587b0     libpango-1.0-0:dsris00124.o
 0002:000007b8       __imp_pango_font_description_free 00000001800587b8     libpango-1.0-0:dsris00125.o
 0002:000007c0       __imp_pango_font_description_from_string 00000001800587c0     libpango-1.0-0:dsris00126.o
 0002:000007c8       __imp_pango_font_description_get_family 00000001800587c8     libpango-1.0-0:dsris00127.o
 0002:000007d0       __imp_pango_font_description_new 00000001800587d0     libpango-1.0-0:dsris00141.o
 0002:000007d8       __imp_pango_font_description_set_absolute_size 00000001800587d8     libpango-1.0-0:dsris00142.o
 0002:000007e0       __imp_pango_font_description_set_family 00000001800587e0     libpango-1.0-0:dsris00143.o
 0002:000007e8       __imp_pango_font_description_set_family_static 00000001800587e8     libpango-1.0-0:dsris00144.o
 0002:000007f0       __imp_pango_font_description_set_stretch 00000001800587f0     libpango-1.0-0:dsris00147.o
 0002:000007f8       __imp_pango_font_description_set_style 00000001800587f8     libpango-1.0-0:dsris00148.o
 0002:00000800       __imp_pango_font_description_set_weight 0000000180058800     libpango-1.0-0:dsris00152.o
 0002:00000808       __imp_pango_font_metrics_get_ascent 0000000180058808     libpango-1.0-0:dsris00191.o
 0002:00000810       __imp_pango_font_metrics_unref 0000000180058810     libpango-1.0-0:dsris00201.o
 0002:00000818       __imp_pango_layout_get_baseline 0000000180058818     libpango-1.0-0:dsris00268.o
 0002:00000820       __imp_pango_layout_get_context 0000000180058820     libpango-1.0-0:dsris00270.o
 0002:00000828       __imp_pango_layout_get_extents 0000000180058828     libpango-1.0-0:dsris00274.o
 0002:00000830       __imp_pango_layout_get_font_description 0000000180058830     libpango-1.0-0:dsris00275.o
 0002:00000838       __imp_pango_layout_get_line 0000000180058838     libpango-1.0-0:dsris00280.o
 0002:00000840       __imp_pango_layout_get_pixel_extents 0000000180058840     libpango-1.0-0:dsris00288.o
 0002:00000848       __imp_pango_layout_line_get_extents 0000000180058848     libpango-1.0-0:dsris00325.o
 0002:00000850       __imp_pango_layout_set_font_description 0000000180058850     libpango-1.0-0:dsris00340.o
 0002:00000858       __imp_pango_layout_set_text 0000000180058858     libpango-1.0-0:dsris00350.o
 0002:00000868       __imp_pango_cairo_create_layout 0000000180058868     libpangocairo-1.0-0:dsxbs00007.o
 0002:00000870       __imp_pango_cairo_font_map_set_default 0000000180058870     libpangocairo-1.0-0:dsxbs00020.o
 0002:00000878       __imp_pango_cairo_layout_path 0000000180058878     libpangocairo-1.0-0:dsxbs00024.o
 0002:00000880       __imp_pango_cairo_show_layout 0000000180058880     libpangocairo-1.0-0:dsxbs00029.o
 0002:00000888       __imp_pango_cairo_update_layout 0000000180058888     libpangocairo-1.0-0:dsxbs00032.o
 0002:00000898       __imp_png_create_info_struct 0000000180058898     libpng16-16:dwpes00011.o
 0002:000008a0       __imp_png_create_write_struct_2 00000001800588a0     libpng16-16:dwpes00015.o
 0002:000008a8       __imp_png_data_freer       00000001800588a8     libpng16-16:dwpes00016.o
 0002:000008b0       __imp_png_destroy_write_struct 00000001800588b0     libpng16-16:dwpes00019.o
 0002:000008b8       __imp_png_error            00000001800588b8     libpng16-16:dwpes00020.o
 0002:000008c0       __imp_png_get_error_ptr    00000001800588c0     libpng16-16:dwpes00044.o
 0002:000008c8       __imp_png_get_io_ptr       00000001800588c8     libpng16-16:dwpes00058.o
 0002:000008d0       __imp_png_malloc           00000001800588d0     libpng16-16:dwpes00129.o
 0002:000008d8       __imp_png_set_IHDR         00000001800588d8     libpng16-16:dwpes00149.o
 0002:000008e0       __imp_png_set_PLTE         00000001800588e0     libpng16-16:dwpes00150.o
 0002:000008e8       __imp_png_set_bKGD         00000001800588e8     libpng16-16:dwpes00155.o
 0002:000008f0       __imp_png_set_compression_level 00000001800588f0     libpng16-16:dwpes00168.o
 0002:000008f8       __imp_png_set_filler       00000001800588f8     libpng16-16:dwpes00180.o
 0002:00000900       __imp_png_set_filter       0000000180058900     libpng16-16:dwpes00181.o
 0002:00000908       __imp_png_set_longjmp_fn   0000000180058908     libpng16-16:dwpes00198.o
 0002:00000910       __imp_png_set_pHYs         0000000180058910     libpng16-16:dwpes00204.o
 0002:00000918       __imp_png_set_packing      0000000180058918     libpng16-16:dwpes00205.o
 0002:00000920       __imp_png_set_packswap     0000000180058920     libpng16-16:dwpes00206.o
 0002:00000928       __imp_png_set_tRNS         0000000180058928     libpng16-16:dwpes00233.o
 0002:00000930       __imp_png_set_write_fn     0000000180058930     libpng16-16:dwpes00245.o
 0002:00000938       __imp_png_set_write_user_transform_fn 0000000180058938     libpng16-16:dwpes00247.o
 0002:00000940       __imp_png_write_end        0000000180058940     libpng16-16:dwpes00255.o
 0002:00000948       __imp_png_write_image      0000000180058948     libpng16-16:dwpes00259.o
 0002:00000950       __imp_png_write_info       0000000180058950     libpng16-16:dwpes00260.o
 0002:00000960       __imp_DGifCloseFile        0000000180058960     libgif-7:dykbs00000.o
 0002:00000968       __imp_DGifOpen             0000000180058968     libgif-7:dykbs00014.o
 0002:00000970       __imp_DGifSlurp            0000000180058970     libgif-7:dykbs00018.o
 0002:00000980       __guard_check_icall_fptr   0000000180058980     LIBCMT:guard_support.obj
 0002:00000988       __guard_xfg_check_icall_fptr 0000000180058988     LIBCMT:guard_support.obj
 0002:00000990       __guard_dispatch_icall_fptr 0000000180058990     LIBCMT:guard_support.obj
 0002:00000998       __guard_xfg_dispatch_icall_fptr 0000000180058998     LIBCMT:guard_support.obj
 0002:000009a0       __guard_xfg_table_dispatch_icall_fptr 00000001800589a0     LIBCMT:guard_support.obj
 0002:000009a8       __xc_a                     00000001800589a8     LIBCMT:initializers.obj
 0002:000009d8       _register_canvas_          00000001800589d8     init.obj
 0002:00000a48       __xc_z                     0000000180058a48     LIBCMT:initializers.obj
 0002:00000a50       __xi_a                     0000000180058a50     LIBCMT:initializers.obj
 0002:00000a58       __acrt_stdio_initializer   0000000180058a58     libucrt:stdio_initializer.obj
 0002:00000a60       __acrt_tran_fma3_initializer 0000000180058a60     libucrt:fma3_initializer.obj
 0002:00000a68       __acrt_timeset_initializer 0000000180058a68     libucrt:timeset_initializer.obj
 0002:00000a70       __acrt_multibyte_initializer 0000000180058a70     libucrt:multibyte_initializer.obj
 0002:00000a78       __acrt_fmode_initializer   0000000180058a78     libucrt:fmode_initializer.obj
 0002:00000a80       __xi_z                     0000000180058a80     LIBCMT:initializers.obj
 0002:00000a88       __xp_a                     0000000180058a88     LIBCMT:initializers.obj
 0002:00000a90       __acrt_locale_terminator   0000000180058a90     libucrt:locale_initializer.obj
 0002:00000a98       __dcrt_console_output_terminator 0000000180058a98     libucrt:console_output_initializer.obj
 0002:00000aa0       __acrt_stdio_terminator    0000000180058aa0     libucrt:stdio_initializer.obj
 0002:00000aa8       __xp_z                     0000000180058aa8     LIBCMT:initializers.obj
 0002:00000ab0       __xt_a                     0000000180058ab0     LIBCMT:initializers.obj
 0002:00000ab8       __xt_z                     0000000180058ab8     LIBCMT:initializers.obj
 0002:00000ac0       __sz_node_exe              0000000180058ac0     node:node.exe
 0002:00000ad8       ??_7exception@std@@6B@     0000000180058ad8     libcpmt:xthrow.obj
 0002:00000ae8       ??_C@_0BC@EOODALEL@Unknown?5exception@ 0000000180058ae8     libcpmt:xthrow.obj
 0002:00000b08       ??_7bad_alloc@std@@6B@     0000000180058b08     libcpmt:xthrow.obj
 0002:00000b18       ??_C@_0P@GHFPNOJB@bad?5allocation@ 0000000180058b18     libcpmt:xthrow.obj
 0002:00000b30       ??_7bad_function_call@std@@6B@ 0000000180058b30     libcpmt:xthrow.obj
 0002:00000b40       ??_C@_0BC@DPJNKNAF@bad?5function?5call@ 0000000180058b40     libcpmt:xthrow.obj
 0002:00000b60       ??_7logic_error@std@@6B@   0000000180058b60     libcpmt:xthrow.obj
 0002:00000b78       ??_7length_error@std@@6B@  0000000180058b78     libcpmt:xthrow.obj
 0002:00000b90       ??_7runtime_error@std@@6B@ 0000000180058b90     libcpmt:xthrow.obj
 0002:00000ba0       ?nothrow@std@@3Unothrow_t@1@B 0000000180058ba0     libcpmt:nothrow.obj
 0002:00000bb0       ??_7_Facet_base@std@@6B@   0000000180058bb0     libcpmt:locale0.obj
 0002:00000bd0       ??_7_Locimp@locale@std@@6B@ 0000000180058bd0     libcpmt:locale0.obj
 0002:00000be8       ??_C@_01NBENCBCI@?$CK@     0000000180058be8     libcpmt:locale0.obj
 0002:00000bec       ??_C@_01GFHCPBMG@C@        0000000180058bec     libcpmt:locale0.obj
 0002:00000bf0       ?_BADOFF@std@@3_JB         0000000180058bf0     libcpmt:ios.obj
 0002:00001360       ??_C@_0BN@LKKBCCDB@address?5family?5not?5supported@ 0000000180059360     libcpmt:syserror.obj
 0002:00001380       ??_C@_0P@LDMLAFHI@address?5in?5use@ 0000000180059380     libcpmt:syserror.obj
 0002:00001390       ??_C@_0BG@DHPCNBJB@address?5not?5available@ 0000000180059390     libcpmt:syserror.obj
 0002:000013a8       ??_C@_0BC@DFIBIBIL@already?5connected@ 00000001800593a8     libcpmt:syserror.obj
 0002:000013c0       ??_C@_0BH@CAKOHOMI@argument?5list?5too?5long@ 00000001800593c0     libcpmt:syserror.obj
 0002:000013d8       ??_C@_0BH@CGIMPKIM@argument?5out?5of?5domain@ 00000001800593d8     libcpmt:syserror.obj
 0002:000013f0       ??_C@_0M@KGHGGJGL@bad?5address@ 00000001800593f0     libcpmt:syserror.obj
 0002:00001400       ??_C@_0BE@MPJPGCEO@bad?5file?5descriptor@ 0000000180059400     libcpmt:syserror.obj
 0002:00001418       ??_C@_0M@PMMIEFCP@bad?5message@ 0000000180059418     libcpmt:syserror.obj
 0002:00001428       ??_C@_0M@KPHOFDBE@broken?5pipe@ 0000000180059428     libcpmt:syserror.obj
 0002:00001438       ??_C@_0BD@MGNDDEGM@connection?5aborted@ 0000000180059438     libcpmt:syserror.obj
 0002:00001450       ??_C@_0BP@KAIHPOGN@connection?5already?5in?5progress@ 0000000180059450     libcpmt:syserror.obj
 0002:00001470       ??_C@_0BD@PJLIIJEL@connection?5refused@ 0000000180059470     libcpmt:syserror.obj
 0002:00001488       ??_C@_0BB@IECNJNOI@connection?5reset@ 0000000180059488     libcpmt:syserror.obj
 0002:000014a0       ??_C@_0BC@PPHBOELF@cross?5device?5link@ 00000001800594a0     libcpmt:syserror.obj
 0002:000014b8       ??_C@_0BN@KDMIFEIP@destination?5address?5required@ 00000001800594b8     libcpmt:syserror.obj
 0002:000014d8       ??_C@_0BI@NGCEHDD@device?5or?5resource?5busy@ 00000001800594d8     libcpmt:syserror.obj
 0002:000014f0       ??_C@_0BE@JIDOCPHM@directory?5not?5empty@ 00000001800594f0     libcpmt:syserror.obj
 0002:00001508       ??_C@_0BI@BNCLIGPB@executable?5format?5error@ 0000000180059508     libcpmt:syserror.obj
 0002:00001520       ??_C@_0M@MIDIAGJP@file?5exists@ 0000000180059520     libcpmt:syserror.obj
 0002:00001530       ??_C@_0P@DNAJLBJK@file?5too?5large@ 0000000180059530     libcpmt:syserror.obj
 0002:00001540       ??_C@_0BC@EJHOMAAK@filename?5too?5long@ 0000000180059540     libcpmt:syserror.obj
 0002:00001558       ??_C@_0BH@KEFGLDAF@function?5not?5supported@ 0000000180059558     libcpmt:syserror.obj
 0002:00001570       ??_C@_0BB@DHFDFGDM@host?5unreachable@ 0000000180059570     libcpmt:syserror.obj
 0002:00001588       ??_C@_0BD@JPHBMONG@identifier?5removed@ 0000000180059588     libcpmt:syserror.obj
 0002:000015a0       ??_C@_0BG@CDNPAGJK@illegal?5byte?5sequence@ 00000001800595a0     libcpmt:syserror.obj
 0002:000015b8       ??_C@_0CD@BNPLBMNA@inappropriate?5io?5control?5operat@ 00000001800595b8     libcpmt:syserror.obj
 0002:000015e0       ??_C@_0M@EGEKIIMP@interrupted@ 00000001800595e0     libcpmt:syserror.obj
 0002:000015f0       ??_C@_0BB@FCMFBGOM@invalid?5argument@ 00000001800595f0     libcpmt:syserror.obj
 0002:00001608       ??_C@_0N@OHAFKDEK@invalid?5seek@ 0000000180059608     libcpmt:syserror.obj
 0002:00001618       ??_C@_08GLNPIFBN@io?5error@ 0000000180059618     libcpmt:syserror.obj
 0002:00001628       ??_C@_0P@FLLDBIDK@is?5a?5directory@ 0000000180059628     libcpmt:syserror.obj
 0002:00001638       ??_C@_0N@IFLPBIOP@message?5size@ 0000000180059638     libcpmt:syserror.obj
 0002:00001648       ??_C@_0N@KIIEAAIO@network?5down@ 0000000180059648     libcpmt:syserror.obj
 0002:00001658       ??_C@_0O@FNPDBHEE@network?5reset@ 0000000180059658     libcpmt:syserror.obj
 0002:00001668       ??_C@_0BE@IFNCKGE@network?5unreachable@ 0000000180059668     libcpmt:syserror.obj
 0002:00001680       ??_C@_0BA@PFFCAOFK@no?5buffer?5space@ 0000000180059680     libcpmt:syserror.obj
 0002:00001690       ??_C@_0BB@IEPBLJHK@no?5child?5process@ 0000000180059690     libcpmt:syserror.obj
 0002:000016a8       ??_C@_07PLECNNKG@no?5link@ 00000001800596a8     libcpmt:syserror.obj
 0002:000016b0       ??_C@_0BC@NJECKMKE@no?5lock?5available@ 00000001800596b0     libcpmt:syserror.obj
 0002:000016c8       ??_C@_0BF@PBGGPKKE@no?5message?5available@ 00000001800596c8     libcpmt:syserror.obj
 0002:000016e0       ??_C@_0L@EDOLMPAK@no?5message@ 00000001800596e0     libcpmt:syserror.obj
 0002:000016f0       ??_C@_0BD@EAMBFIDF@no?5protocol?5option@ 00000001800596f0     libcpmt:syserror.obj
 0002:00001708       ??_C@_0BD@IJDJKDEA@no?5space?5on?5device@ 0000000180059708     libcpmt:syserror.obj
 0002:00001720       ??_C@_0BE@MKFDAFMP@no?5stream?5resources@ 0000000180059720     libcpmt:syserror.obj
 0002:00001738       ??_C@_0BK@IMCPHCBI@no?5such?5device?5or?5address@ 0000000180059738     libcpmt:syserror.obj
 0002:00001758       ??_C@_0P@FDINDDOK@no?5such?5device@ 0000000180059758     libcpmt:syserror.obj
 0002:00001768       ??_C@_0BK@NDOCBPGE@no?5such?5file?5or?5directory@ 0000000180059768     libcpmt:syserror.obj
 0002:00001788       ??_C@_0BA@ENLPPKBN@no?5such?5process@ 0000000180059788     libcpmt:syserror.obj
 0002:00001798       ??_C@_0BA@DOCPFFJG@not?5a?5directory@ 0000000180059798     libcpmt:syserror.obj
 0002:000017a8       ??_C@_0N@POEIPGGF@not?5a?5socket@ 00000001800597a8     libcpmt:syserror.obj
 0002:000017b8       ??_C@_0N@LGAPMMPI@not?5a?5stream@ 00000001800597b8     libcpmt:syserror.obj
 0002:000017c8       ??_C@_0O@GLMIBBEG@not?5connected@ 00000001800597c8     libcpmt:syserror.obj
 0002:000017d8       ??_C@_0BC@ENOOLCNF@not?5enough?5memory@ 00000001800597d8     libcpmt:syserror.obj
 0002:000017f0       ??_C@_0O@NHEDABJP@not?5supported@ 00000001800597f0     libcpmt:syserror.obj
 0002:00001800       ??_C@_0BD@MOLBPMEA@operation?5canceled@ 0000000180059800     libcpmt:syserror.obj
 0002:00001818       ??_C@_0BG@KDKHOPCO@operation?5in?5progress@ 0000000180059818     libcpmt:syserror.obj
 0002:00001830       ??_C@_0BI@OHIEJAAB@operation?5not?5permitted@ 0000000180059830     libcpmt:syserror.obj
 0002:00001848       ??_C@_0BI@LNEGIFLN@operation?5not?5supported@ 0000000180059848     libcpmt:syserror.obj
 0002:00001860       ??_C@_0BG@OEMDKMEE@operation?5would?5block@ 0000000180059860     libcpmt:syserror.obj
 0002:00001878       ??_C@_0L@BLPOFLNJ@owner?5dead@ 0000000180059878     libcpmt:syserror.obj
 0002:00001888       ??_C@_0BC@CIJDGCDI@permission?5denied@ 0000000180059888     libcpmt:syserror.obj
 0002:000018a0       ??_C@_0P@FNPOCJBE@protocol?5error@ 00000001800598a0     libcpmt:syserror.obj
 0002:000018b0       ??_C@_0BH@JPPPLHJB@protocol?5not?5supported@ 00000001800598b0     libcpmt:syserror.obj
 0002:000018c8       ??_C@_0BG@EICBIHDP@read?5only?5file?5system@ 00000001800598c8     libcpmt:syserror.obj
 0002:000018e0       ??_C@_0BO@BJBOMOEJ@resource?5deadlock?5would?5occur@ 00000001800598e0     libcpmt:syserror.obj
 0002:00001900       ??_C@_0BP@LKNGHENJ@resource?5unavailable?5try?5again@ 0000000180059900     libcpmt:syserror.obj
 0002:00001920       ??_C@_0BE@GOIPJJHG@result?5out?5of?5range@ 0000000180059920     libcpmt:syserror.obj
 0002:00001938       ??_C@_0BG@MPLKFPAE@state?5not?5recoverable@ 0000000180059938     libcpmt:syserror.obj
 0002:00001950       ??_C@_0P@DIIFGFCG@stream?5timeout@ 0000000180059950     libcpmt:syserror.obj
 0002:00001960       ??_C@_0P@IPFDMIFL@text?5file?5busy@ 0000000180059960     libcpmt:syserror.obj
 0002:00001970       ??_C@_09KJPPMAOI@timed?5out@ 0000000180059970     libcpmt:syserror.obj
 0002:00001980       ??_C@_0BO@HACHBEKI@too?5many?5files?5open?5in?5system@ 0000000180059980     libcpmt:syserror.obj
 0002:000019a0       ??_C@_0BE@GHAFMPAH@too?5many?5files?5open@ 00000001800599a0     libcpmt:syserror.obj
 0002:000019b8       ??_C@_0P@HCOMKFCC@too?5many?5links@ 00000001800599b8     libcpmt:syserror.obj
 0002:000019c8       ??_C@_0BO@EFGOJEF@too?5many?5symbolic?5link?5levels@ 00000001800599c8     libcpmt:syserror.obj
 0002:000019e8       ??_C@_0BA@KGKGOOJA@value?5too?5large@ 00000001800599e8     libcpmt:syserror.obj
 0002:000019f8       ??_C@_0BE@MIEJDDNH@wrong?5protocol?5type@ 00000001800599f8     libcpmt:syserror.obj
 0002:00001a10       ??_C@_0O@BFJCFAAK@unknown?5error@ 0000000180059a10     libcpmt:syserror.obj
 0002:00001a28       ??_7bad_array_new_length@std@@6B@ 0000000180059a28     libcpmt:locale.obj
 0002:00001a40       ??_7?$ctype@D@std@@6B@     0000000180059a40     libcpmt:locale.obj
 0002:00001ba0       ??_C@_11LOCGONAA@@         0000000180059ba0     libcpmt:wlocale.obj
 0002:00001ba4       ??_C@_13IMODFHAA@?$AA?9@   0000000180059ba4     libcpmt:wlocale.obj
 0002:00001ba8       ??_C@_01JOAMLHOP@?9@       0000000180059ba8     libcpmt:wlocale.obj
 0002:00001c50       __xmm@ffffffffffffffffffffffffffffffff 0000000180059c50     LIBCMT:utility.obj
 0002:00001c68       ??_7type_info@@6B@         0000000180059c68     LIBCMT:std_type_info_static.obj
 0002:00001c70       _pRawDllMain               0000000180059c70     LIBCMT:dll_dllmain.obj
 0002:00001c70       _pDefaultRawDllMain        0000000180059c70     LIBCMT:dll_dllmain.obj
 0002:00001c88       ?s_negLengthTab@FH4@@3QBCB 0000000180059c88     libvcruntime:risctrnsctrl.obj
 0002:00001c98       ?s_shiftTab@FH4@@3QBEB     0000000180059c98     libvcruntime:risctrnsctrl.obj
 0002:00001de8       _pDestructExceptionObject  0000000180059de8     libvcruntime:ehhelpers.obj
 0002:00001df8       ??_7bad_exception@std@@6B@ 0000000180059df8     libvcruntime:frame.obj
 0002:00001e08       ??_C@_0O@DPKOEFFH@bad?5exception@ 0000000180059e08     libvcruntime:frame.obj
 0002:00002520       ??_C@_08EHJDFFNH@__based?$CI@ 000000018005a520     libvcruntime:undname.obj
 0002:00002530       ??_C@_07KOLFKCDI@__cdecl@  000000018005a530     libvcruntime:undname.obj
 0002:00002538       ??_C@_08GHMPAG@__pascal@   000000018005a538     libvcruntime:undname.obj
 0002:00002548       ??_C@_09IFJBGAPI@__stdcall@ 000000018005a548     libvcruntime:undname.obj
 0002:00002558       ??_C@_0L@NPHFGOKO@__thiscall@ 000000018005a558     libvcruntime:undname.obj
 0002:00002568       ??_C@_0L@JMKHOMEK@__fastcall@ 000000018005a568     libvcruntime:undname.obj
 0002:00002578       ??_C@_0N@BCKKPABJ@__vectorcall@ 000000018005a578     libvcruntime:undname.obj
 0002:00002588       ??_C@_09HIJEGCPM@__clrcall@ 000000018005a588     libvcruntime:undname.obj
 0002:00002594       ??_C@_06GHPCKEAG@__eabi@   000000018005a594     libvcruntime:undname.obj
 0002:000025a0       ??_C@_09IOPIDJLG@__swift_1@ 000000018005a5a0     libvcruntime:undname.obj
 0002:000025b0       ??_C@_09KFNFGKHF@__swift_2@ 000000018005a5b0     libvcruntime:undname.obj
 0002:000025c0       ??_C@_07JOMMBBKO@__ptr64@  000000018005a5c0     libvcruntime:undname.obj
 0002:000025c8       ??_C@_0L@PILCLIHE@__restrict@ 000000018005a5c8     libvcruntime:undname.obj
 0002:000025d8       ??_C@_0M@GFIIJFMG@__unaligned@ 000000018005a5d8     libvcruntime:undname.obj
 0002:000025e8       ??_C@_09DHDLOLLB@restrict?$CI@ 000000018005a5e8     libvcruntime:undname.obj
 0002:000025f4       ??_C@_04NIHEBCM@?5new@     000000018005a5f4     libvcruntime:undname.obj
 0002:00002600       ??_C@_07FPCDHGMM@?5delete@ 000000018005a600     libvcruntime:undname.obj
 0002:00002608       ??_C@_01NEMOKFLO@?$DN@     000000018005a608     libvcruntime:undname.obj
 0002:0000260c       ??_C@_02GPIOPFAK@?$DO?$DO@ 000000018005a60c     libvcruntime:undname.obj
 0002:00002610       ??_C@_02FODMEDOG@?$DM?$DM@ 000000018005a610     libvcruntime:undname.obj
 0002:00002614       ??_C@_01DCLJPIOD@?$CB@     000000018005a614     libvcruntime:undname.obj
 0002:00002618       ??_C@_02EGOFBIJA@?$DN?$DN@ 000000018005a618     libvcruntime:undname.obj
 0002:0000261c       ??_C@_02FDNJECIE@?$CB?$DN@ 000000018005a61c     libvcruntime:undname.obj
 0002:00002620       ??_C@_02GPECMEKF@?$FL?$FN@ 000000018005a620     libvcruntime:undname.obj
 0002:00002628       ??_C@_08LHJFAFGD@operator@ 000000018005a628     libvcruntime:undname.obj
 0002:00002634       ??_C@_02HBOOOICD@?9?$DO@   000000018005a634     libvcruntime:undname.obj
 0002:00002638       ??_C@_02ECNGHCIF@?$CL?$CL@ 000000018005a638     libvcruntime:undname.obj
 0002:0000263c       ??_C@_02BAABKJLB@?9?9@     000000018005a63c     libvcruntime:undname.obj
 0002:00002640       ??_C@_01MIFGBAGJ@?$CL@     000000018005a640     libvcruntime:undname.obj
 0002:00002644       ??_C@_01HNPIGOCE@?$CG@     000000018005a644     libvcruntime:undname.obj
 0002:00002648       ??_C@_03MNHNFDLC@?9?$DO?$CK@ 000000018005a648     libvcruntime:undname.obj
 0002:0000264c       ??_C@_01KMDKNFGN@?1@       000000018005a64c     libvcruntime:undname.obj
 0002:00002650       ??_C@_01FGNFDNOH@?$CF@     000000018005a650     libvcruntime:undname.obj
 0002:00002654       ??_C@_01MNNFJEPP@?$DM@     000000018005a654     libvcruntime:undname.obj
 0002:00002658       ??_C@_02EHCHHCKH@?$DM?$DN@ 000000018005a658     libvcruntime:undname.obj
 0002:0000265c       ??_C@_01PPODPGHN@?$DO@     000000018005a65c     libvcruntime:undname.obj
 0002:00002660       ??_C@_02EEKDKGMJ@?$DO?$DN@ 000000018005a660     libvcruntime:undname.obj
 0002:00002664       ??_C@_01IHBHIGKO@?0@       000000018005a664     libvcruntime:undname.obj
 0002:00002668       ??_C@_02HCKGKOFO@?$CI?$CJ@ 000000018005a668     libvcruntime:undname.obj
 0002:0000266c       ??_C@_01PJKLJHI@?$HO@      000000018005a66c     libvcruntime:undname.obj
 0002:00002670       ??_C@_01JKBOJNNK@?$FO@     000000018005a670     libvcruntime:undname.obj
 0002:00002674       ??_C@_01DNKMNLPK@?$HM@     000000018005a674     libvcruntime:undname.obj
 0002:00002678       ??_C@_02PPKAJPJL@?$CG?$CG@ 000000018005a678     libvcruntime:undname.obj
 0002:0000267c       ??_C@_02NONPIBCD@?$HM?$HM@ 000000018005a67c     libvcruntime:undname.obj
 0002:00002680       ??_C@_02FPIMKNGF@?$CK?$DN@ 000000018005a680     libvcruntime:undname.obj
 0002:00002684       ??_C@_02FOEOMHFC@?$CL?$DN@ 000000018005a684     libvcruntime:undname.obj
 0002:00002688       ??_C@_02FKMDLLOA@?9?$DN@   000000018005a688     libvcruntime:undname.obj
 0002:0000268c       ??_C@_02FJEHGPIO@?1?$DN@   000000018005a68c     libvcruntime:undname.obj
 0002:00002690       ??_C@_02FENAOKFI@?$CF?$DN@ 000000018005a690     libvcruntime:undname.obj
 0002:00002694       ??_C@_03IKFCCPFF@?$DO?$DO?$DN@ 000000018005a694     libvcruntime:undname.obj
 0002:00002698       ??_C@_03CDNPDDLA@?$DM?$DM?$DN@ 000000018005a698     libvcruntime:undname.obj
 0002:0000269c       ??_C@_02FGJGFEAB@?$CG?$DN@ 000000018005a69c     libvcruntime:undname.obj
 0002:000026a0       ??_C@_02DHLNPPGH@?$HM?$DN@ 000000018005a6a0     libvcruntime:undname.obj
 0002:000026a4       ??_C@_02MHEGNOJ@?$FO?$DN@  000000018005a6a4     libvcruntime:undname.obj
 0002:000026a8       ??_C@_09IFPLHPGF@?$GAvftable?8@ 000000018005a6a8     libvcruntime:undname.obj
 0002:000026b8       ??_C@_09BLBHBJP@?$GAvbtable?8@ 000000018005a6b8     libvcruntime:undname.obj
 0002:000026c8       ??_C@_07FEEIOKP@?$GAvcall?8@ 000000018005a6c8     libvcruntime:undname.obj
 0002:000026d0       ??_C@_08LLFFHHDJ@?$GAtypeof?8@ 000000018005a6d0     libvcruntime:undname.obj
 0002:000026e0       ??_C@_0BF@KDPPACIK@?$GAlocal?5static?5guard?8@ 000000018005a6e0     libvcruntime:undname.obj
 0002:000026f8       ??_C@_08OBABFOLI@?$GAstring?8@ 000000018005a6f8     libvcruntime:undname.obj
 0002:00002708       ??_C@_0BD@JDLKDPAB@?$GAvbase?5destructor?8@ 000000018005a708     libvcruntime:undname.obj
 0002:00002720       ??_C@_0BN@DEGPLNFK@?$GAvector?5deleting?5destructor?8@ 000000018005a720     libvcruntime:undname.obj
 0002:00002740       ??_C@_0BO@OBMKPJIG@?$GAdefault?5constructor?5closure?8@ 000000018005a740     libvcruntime:undname.obj
 0002:00002760       ??_C@_0BN@IMDCHIKM@?$GAscalar?5deleting?5destructor?8@ 000000018005a760     libvcruntime:undname.obj
 0002:00002780       ??_C@_0BO@PFGOCPJJ@?$GAvector?5constructor?5iterator?8@ 000000018005a780     libvcruntime:undname.obj
 0002:000027a0       ??_C@_0BN@LFPFMEDL@?$GAvector?5destructor?5iterator?8@ 000000018005a7a0     libvcruntime:undname.obj
 0002:000027c0       ??_C@_0CE@IKBNEHA@?$GAvector?5vbase?5constructor?5itera@ 000000018005a7c0     libvcruntime:undname.obj
 0002:000027e8       ??_C@_0BL@NILFHHPC@?$GAvirtual?5displacement?5map?8@ 000000018005a7e8     libvcruntime:undname.obj
 0002:00002808       ??_C@_0CB@JONCMFFK@?$GAeh?5vector?5constructor?5iterator@ 000000018005a808     libvcruntime:undname.obj
 0002:00002830       ??_C@_0CA@GCEOPDGL@?$GAeh?5vector?5destructor?5iterator?8@ 000000018005a830     libvcruntime:undname.obj
 0002:00002850       ??_C@_0CH@OOJPLCPH@?$GAeh?5vector?5vbase?5constructor?5it@ 000000018005a850     libvcruntime:undname.obj
 0002:00002878       ??_C@_0BL@LLKPOHJI@?$GAcopy?5constructor?5closure?8@ 000000018005a878     libvcruntime:undname.obj
 0002:00002898       ??_C@_0BA@KBCDOMBN@?$GAudt?5returning?8@ 000000018005a898     libvcruntime:undname.obj
 0002:000028a8       ??_C@_03KLGMFNMG@?$GAEH@   000000018005a8a8     libvcruntime:undname.obj
 0002:000028ac       ??_C@_05KHLCHHI@?$GARTTI@  000000018005a8ac     libvcruntime:undname.obj
 0002:000028b8       ??_C@_0BA@KKLDJDLB@?$GAlocal?5vftable?8@ 000000018005a8b8     libvcruntime:undname.obj
 0002:000028c8       ??_C@_0CE@IIHCMGGL@?$GAlocal?5vftable?5constructor?5clos@ 000000018005a8c8     libvcruntime:undname.obj
 0002:000028ec       ??_C@_06FHBGPFGH@?5new?$FL?$FN@ 000000018005a8ec     libvcruntime:undname.obj
 0002:000028f8       ??_C@_09LBNFPBCA@?5delete?$FL?$FN@ 000000018005a8f8     libvcruntime:undname.obj
 0002:00002908       ??_C@_0P@HJKNJFNN@?$GAomni?5callsig?8@ 000000018005a908     libvcruntime:undname.obj
 0002:00002918       ??_C@_0BL@CNOONJFP@?$GAplacement?5delete?5closure?8@ 000000018005a918     libvcruntime:undname.obj
 0002:00002938       ??_C@_0BN@CKNJLHMB@?$GAplacement?5delete?$FL?$FN?5closure?8@ 000000018005a938     libvcruntime:undname.obj
 0002:00002958       ??_C@_0CG@CFDHKGGD@?$GAmanaged?5vector?5constructor?5ite@ 000000018005a958     libvcruntime:undname.obj
 0002:00002980       ??_C@_0CF@IMGKMJNO@?$GAmanaged?5vector?5destructor?5iter@ 000000018005a980     libvcruntime:undname.obj
 0002:000029a8       ??_C@_0CG@HLDDJMAG@?$GAeh?5vector?5copy?5constructor?5ite@ 000000018005a9a8     libvcruntime:undname.obj
 0002:000029d0       ??_C@_0CM@FCBBDIGB@?$GAeh?5vector?5vbase?5copy?5construct@ 000000018005a9d0     libvcruntime:undname.obj
 0002:00002a00       ??_C@_0BL@CLIPGLGB@?$GAdynamic?5initializer?5for?5?8@ 000000018005aa00     libvcruntime:undname.obj
 0002:00002a20       ??_C@_0CB@PDBIFEP@?$GAdynamic?5atexit?5destructor?5for?5@ 000000018005aa20     libvcruntime:undname.obj
 0002:00002a48       ??_C@_0CD@CGAJBKEJ@?$GAvector?5copy?5constructor?5iterat@ 000000018005aa48     libvcruntime:undname.obj
 0002:00002a70       ??_C@_0CJ@GJELGAMM@?$GAvector?5vbase?5copy?5constructor?5@ 000000018005aa70     libvcruntime:undname.obj
 0002:00002aa0       ??_C@_0CL@FGIJHLCE@?$GAmanaged?5vector?5copy?5constructo@ 000000018005aaa0     libvcruntime:undname.obj
 0002:00002ad0       ??_C@_0BM@PMGGMLDN@?$GAlocal?5static?5thread?5guard?8@ 000000018005aad0     libvcruntime:undname.obj
 0002:00002af0       ??_C@_0N@BDNMDMOL@operator?5?$CC?$CC?5@ 000000018005aaf0     libvcruntime:undname.obj
 0002:00002b00       ??_C@_0BC@GGEBGALA@operator?5co_await@ 000000018005ab00     libvcruntime:undname.obj
 0002:00002b18       ??_C@_0M@GAAIMMOH@operator?$DM?$DN?$DO@ 000000018005ab18     libvcruntime:undname.obj
 0002:00002b28       ??_C@_0BC@DAFEJGAK@?5Type?5Descriptor?8@ 000000018005ab28     libvcruntime:undname.obj
 0002:00002b40       ??_C@_0BM@LDKODKLH@?5Base?5Class?5Descriptor?5at?5?$CI@ 000000018005ab40     libvcruntime:undname.obj
 0002:00002b60       ??_C@_0BD@LGICGFMM@?5Base?5Class?5Array?8@ 000000018005ab60     libvcruntime:undname.obj
 0002:00002b78       ??_C@_0BN@MECKDCOJ@?5Class?5Hierarchy?5Descriptor?8@ 000000018005ab78     libvcruntime:undname.obj
 0002:00002b98       ??_C@_0BK@CFCOFLF@?5Complete?5Object?5Locator?8@ 000000018005ab98     libvcruntime:undname.obj
 0002:00002bb8       ??_C@_0BG@JNJLAMPM@?$GAanonymous?5namespace?8@ 000000018005abb8     libvcruntime:undname.obj
 0002:00002be8       ??_C@_1DM@KHCHBNEB@?$AAa?$AAp?$AAi?$AA?9?$AAm?$AAs?$AA?9?$AAw?$AAi?$AAn?$AA?9?$AAc?$AAo?$AAr?$AAe@ 000000018005abe8     libvcruntime:winapi_downlevel.obj
 0002:00002c28       ??_C@_1DK@LPPGFMPP@?$AAa?$AAp?$AAi?$AA?9?$AAm?$AAs?$AA?9?$AAw?$AAi?$AAn?$AA?9?$AAc?$AAo?$AAr?$AAe@ 000000018005ac28     libvcruntime:winapi_downlevel.obj
 0002:00002c68       ??_C@_1BC@GDMECMAK@?$AAk?$AAe?$AAr?$AAn?$AAe?$AAl?$AA3?$AA2@ 000000018005ac68     libvcruntime:winapi_downlevel.obj
 0002:00002c80       ??_C@_1BA@PFFKHIOG@?$AAa?$AAp?$AAi?$AA?9?$AAm?$AAs?$AA?9@ 000000018005ac80     libvcruntime:winapi_downlevel.obj
 0002:00002c98       ??_C@_08KNHFBNJ@FlsAlloc@  000000018005ac98     libvcruntime:winapi_downlevel.obj
 0002:00002cb0       ??_C@_07PEJMOBNF@FlsFree@  000000018005acb0     libvcruntime:winapi_downlevel.obj
 0002:00002cc0       ??_C@_0M@GDNOONDI@FlsGetValue@ 000000018005acc0     libvcruntime:winapi_downlevel.obj
 0002:00002cd8       ??_C@_0M@JCPCPOEF@FlsSetValue@ 000000018005acd8     libvcruntime:winapi_downlevel.obj
 0002:00002cf0       ??_C@_0BM@HCFOFFN@InitializeCriticalSectionEx@ 000000018005acf0     libvcruntime:winapi_downlevel.obj
 0002:00002d10       ??_C@_1FE@LHBLIKM@?$AAA?$AAs?$AAs?$AAe?$AAr?$AAt?$AAi?$AAo?$AAn?$AA?5?$AAf?$AAa?$AAi?$AAl?$AAe@ 000000018005ad10     libucrt:assert.obj
 0002:00002d70       ??_C@_1EK@MBDPDCGA@?$AAM?$AAi?$AAc?$AAr?$AAo?$AAs?$AAo?$AAf?$AAt?$AA?5?$AAV?$AAi?$AAs?$AAu?$AAa@ 000000018005ad70     libucrt:assert.obj
 0002:00002dc0       ??_C@_1CE@OJBNHDMO@?$AAA?$AAs?$AAs?$AAe?$AAr?$AAt?$AAi?$AAo?$AAn?$AA?5?$AAf?$AAa?$AAi?$AAl?$AAe@ 000000018005adc0     libucrt:assert.obj
 0002:00002de8       ??_C@_1BE@PHKBBGE@?$AAP?$AAr?$AAo?$AAg?$AAr?$AAa?$AAm?$AA?3?$AA?5@ 000000018005ade8     libucrt:assert.obj
 0002:00002e00       ??_C@_1O@HEMHKNDC@?$AAF?$AAi?$AAl?$AAe?$AA?3?$AA?5@ 000000018005ae00     libucrt:assert.obj
 0002:00002e10       ??_C@_1O@KCAFKHJE@?$AAL?$AAi?$AAn?$AAe?$AA?3?$AA?5@ 000000018005ae10     libucrt:assert.obj
 0002:00002e20       ??_C@_1BK@PEDCIPMA@?$AAE?$AAx?$AAp?$AAr?$AAe?$AAs?$AAs?$AAi?$AAo?$AAn?$AA?3?$AA?5@ 000000018005ae20     libucrt:assert.obj
 0002:00002e40       ??_C@_1OA@EGMLFBHJ@?$AAF?$AAo?$AAr?$AA?5?$AAi?$AAn?$AAf?$AAo?$AAr?$AAm?$AAa?$AAt?$AAi?$AAo?$AAn@ 000000018005ae40     libucrt:assert.obj
 0002:00002f20       ??_C@_1HK@POCJMFGK@?$AA?$CI?$AAP?$AAr?$AAe?$AAs?$AAs?$AA?5?$AAR?$AAe?$AAt?$AAr?$AAy?$AA?5?$AAt?$AAo@ 000000018005af20     libucrt:assert.obj
 0002:00002fa0       ??_C@_17LGKOMLJ@?$AA?4?$AA?4?$AA?4@ 000000018005afa0     libucrt:assert.obj
 0002:00002fa8       ??_C@_13LBAGMAIH@?$AA?6@   000000018005afa8     libucrt:assert.obj
 0002:00002fac       ??_C@_15IABLJNFO@?$AA?6?$AA?6@ 000000018005afac     libucrt:assert.obj
 0002:00002fb8       ??_C@_1CO@EAEJAADC@?$AA?$DM?$AAp?$AAr?$AAo?$AAg?$AAr?$AAa?$AAm?$AA?5?$AAn?$AAa?$AAm?$AAe?$AA?5?$AAu@ 000000018005afb8     libucrt:assert.obj
 0002:00002ff0       ?standard_lookup_table_spectre@__crt_stdio_output@@3V?$spectre_mitigated_lookup_table@Ustate_transition_pair@__crt_stdio_output@@$0IA@@1@B 000000018005aff0     libucrt:output.obj
 0002:000033f0       ??_C@_1O@CEDCILHN@?$AA?$CI?$AAn?$AAu?$AAl?$AAl?$AA?$CJ@ 000000018005b3f0     libucrt:output.obj
 0002:00003400       ??_C@_06OJHGLDPL@?$CInull?$CJ@ 000000018005b400     libucrt:output.obj
 0002:00003578       ??_C@_19DOGDICKI@?$AA?4?$AAe?$AAx?$AAe@ 000000018005b578     libucrt:stat.obj
 0002:00003588       ??_C@_19BDKLHPGC@?$AA?4?$AAc?$AAm?$AAd@ 000000018005b588     libucrt:stat.obj
 0002:00003598       ??_C@_19PINKOIBI@?$AA?4?$AAb?$AAa?$AAt@ 000000018005b598     libucrt:stat.obj
 0002:000035a8       ??_C@_19CDGLJBOD@?$AA?4?$AAc?$AAo?$AAm@ 000000018005b5a8     libucrt:stat.obj
 0002:000035c0       __newctype                 000000018005b5c0     libucrt:ctype.obj
 0002:000038c0       __newclmap                 000000018005b8c0     libucrt:ctype.obj
 0002:00003a40       __newcumap                 000000018005ba40     libucrt:ctype.obj
 0002:00003bc0       _wctype                    000000018005bbc0     libucrt:ctype.obj
 0002:00003dd0       ?large_power_data@?1??multiply_by_power_of_ten@__crt_strtox@@YA_NAEAUbig_integer@2@I@Z@4QBIB 000000018005bdd0     libucrt:strtod.obj
 0002:000046e0       ?large_power_indices@?1??multiply_by_power_of_ten@__crt_strtox@@YA_NAEAUbig_integer@2@I@Z@4QBUunpack_index@?1??12@YA_N0I@Z@B 000000018005c6e0     libucrt:strtod.obj
 0002:00004778       ?small_powers_of_ten@?1??multiply_by_power_of_ten@__crt_strtox@@YA_NAEAUbig_integer@2@I@Z@4QBIB 000000018005c778     libucrt:strtod.obj
 0002:00006448       ??_C@_1M@PBPMMENC@?$AAa?$AAm?$AA?1?$AAp?$AAm@ 000000018005e448     libucrt:wcsftime.obj
 0002:00006458       ??_C@_17BLFJJHMM@?$AAa?$AA?1?$AAp@ 000000018005e458     libucrt:wcsftime.obj
 0002:00006460       ??_C@_13HOIJIPNN@?$AA?5@   000000018005e460     libucrt:wcsftime.obj
 0002:00006464       ??_C@_13CGOKJPIL@?$AA?1@   000000018005e464     libucrt:wcsftime.obj
 0002:00006468       ??_C@_13EBCNDICG@?$AA?3@   000000018005e468     libucrt:wcsftime.obj
 0002:0000646c       ??_C@_13KDLDGPGJ@?$AA?7@   000000018005e46c     libucrt:wcsftime.obj
 0002:00006470       ??_C@_13KJIIAINM@?$AA?$CL@ 000000018005e470     libucrt:wcsftime.obj
 0002:00006474       ??_C@_13EJFHHPOP@?$AA?$CF@ 000000018005e474     libucrt:wcsftime.obj
 0002:00006480       __acrt_exception_action_table 000000018005e480     libucrt:exception_filter.obj
 0002:00006540       __acrt_signal_action_table_count 000000018005e540     libucrt:exception_filter.obj
 0002:00006548       __acrt_signal_action_first_fpe_index 000000018005e548     libucrt:exception_filter.obj
 0002:00006550       __acrt_signal_action_fpe_count 000000018005e550     libucrt:exception_filter.obj
 0002:00006558       ??_C@_1BI@BGOHAHKC@?$AAm?$AAs?$AAc?$AAo?$AAr?$AAe?$AAe?$AA?4?$AAd?$AAl?$AAl@ 000000018005e558     libucrt:exit.obj
 0002:00006570       ??_C@_0P@MIGLKIOC@CorExitProcess@ 000000018005e570     libucrt:exit.obj
 0002:00006700       __lc_category              000000018005e700     libucrt:wsetlocale.obj
 0002:00006790       ??_C@_1O@GIFLHMA@?$AAL?$AAC?$AA_?$AAA?$AAL?$AAL@ 000000018005e790     libucrt:wsetlocale.obj
 0002:000067a0       ??_C@_1BG@PPOMIBNJ@?$AAL?$AAC?$AA_?$AAC?$AAO?$AAL?$AAL?$AAA?$AAT?$AAE@ 000000018005e7a0     libucrt:wsetlocale.obj
 0002:000067b8       ??_C@_1BC@FFJGAPJM@?$AAL?$AAC?$AA_?$AAC?$AAT?$AAY?$AAP?$AAE@ 000000018005e7b8     libucrt:wsetlocale.obj
 0002:000067d0       ??_C@_1BI@PCKFNJFB@?$AAL?$AAC?$AA_?$AAM?$AAO?$AAN?$AAE?$AAT?$AAA?$AAR?$AAY@ 000000018005e7d0     libucrt:wsetlocale.obj
 0002:000067e8       ??_C@_1BG@ENIEDKID@?$AAL?$AAC?$AA_?$AAN?$AAU?$AAM?$AAE?$AAR?$AAI?$AAC@ 000000018005e7e8     libucrt:wsetlocale.obj
 0002:00006800       ??_C@_1BA@HAAOMIIG@?$AAL?$AAC?$AA_?$AAT?$AAI?$AAM?$AAE@ 000000018005e800     libucrt:wsetlocale.obj
 0002:00006810       ??_C@_15NBPDDFIP@?$AA?$DN?$AA?$DL@ 000000018005e810     libucrt:wsetlocale.obj
 0002:00006818       ??_C@_13PJJBFPED@?$AA?$DL@ 000000018005e818     libucrt:wsetlocale.obj
 0002:0000681c       ??_C@_13NMPKAAJP@?$AA?$DN@ 000000018005e81c     libucrt:wsetlocale.obj
 0002:00006820       ??_C@_17EFJLDFDO@?$AA?9?$AA_?$AA?4@ 000000018005e820     libucrt:wsetlocale.obj
 0002:00006828       ??_C@_13FHBKNHDA@?$AAC@    000000018005e828     libucrt:wsetlocale.obj
 0002:00006830       ??_C@_17MBJJLFDM@?$AA_?$AA?4?$AA?0@ 000000018005e830     libucrt:wsetlocale.obj
 0002:00006838       ??_C@_13ENNFDPBH@?$AA_@    000000018005e838     libucrt:wsetlocale.obj
 0002:0000683c       ??_C@_13JOFGPIOO@?$AA?4@   000000018005e83c     libucrt:wsetlocale.obj
 0002:00006840       __lc_time_c                000000018005e840     libucrt:nlsdata.obj
 0002:00006b00       ??_C@_03KOEHGMDN@Sun@      000000018005eb00     libucrt:nlsdata.obj
 0002:00006b04       ??_C@_03PDAGKDH@Mon@       000000018005eb04     libucrt:nlsdata.obj
 0002:00006b08       ??_C@_03NAGEINEP@Tue@      000000018005eb08     libucrt:nlsdata.obj
 0002:00006b0c       ??_C@_03MHOMLAJA@Wed@      000000018005eb0c     libucrt:nlsdata.obj
 0002:00006b10       ??_C@_03IOFIKPDN@Thu@      000000018005eb10     libucrt:nlsdata.obj
 0002:00006b14       ??_C@_03IDIOELNC@Fri@      000000018005eb14     libucrt:nlsdata.obj
 0002:00006b18       ??_C@_03FEFJNEK@Sat@       000000018005eb18     libucrt:nlsdata.obj
 0002:00006b1c       ??_C@_06OOPIFAJ@Sunday@    000000018005eb1c     libucrt:nlsdata.obj
 0002:00006b24       ??_C@_06JLEDEDGH@Monday@   000000018005eb24     libucrt:nlsdata.obj
 0002:00006b30       ??_C@_07BAAGCFCM@Tuesday@  000000018005eb30     libucrt:nlsdata.obj
 0002:00006b38       ??_C@_09DLIGFAKA@Wednesday@ 000000018005eb38     libucrt:nlsdata.obj
 0002:00006b48       ??_C@_08HACCIKIA@Thursday@ 000000018005eb48     libucrt:nlsdata.obj
 0002:00006b54       ??_C@_06JECMNKMI@Friday@   000000018005eb54     libucrt:nlsdata.obj
 0002:00006b60       ??_C@_08INBOOONO@Saturday@ 000000018005eb60     libucrt:nlsdata.obj
 0002:00006b6c       ??_C@_03JIHJHPIE@Jan@      000000018005eb6c     libucrt:nlsdata.obj
 0002:00006b70       ??_C@_03HJBDCHOM@Feb@      000000018005eb70     libucrt:nlsdata.obj
 0002:00006b74       ??_C@_03ODNJBKGA@Mar@      000000018005eb74     libucrt:nlsdata.obj
 0002:00006b78       ??_C@_03LEOLGMJP@Apr@      000000018005eb78     libucrt:nlsdata.obj
 0002:00006b7c       ??_C@_03CNMDKL@May@        000000018005eb7c     libucrt:nlsdata.obj
 0002:00006b80       ??_C@_03IDFGHECI@Jun@      000000018005eb80     libucrt:nlsdata.obj
 0002:00006b84       ??_C@_03LBGABGKK@Jul@      000000018005eb84     libucrt:nlsdata.obj
 0002:00006b88       ??_C@_03IFJFEIGA@Aug@      000000018005eb88     libucrt:nlsdata.obj
 0002:00006b8c       ??_C@_03GGCAPAJC@Sep@      000000018005eb8c     libucrt:nlsdata.obj
 0002:00006b90       ??_C@_03BMAOKBAD@Oct@      000000018005eb90     libucrt:nlsdata.obj
 0002:00006b94       ??_C@_03JPJOFNIA@Nov@      000000018005eb94     libucrt:nlsdata.obj
 0002:00006b98       ??_C@_03MKABNOCG@Dec@      000000018005eb98     libucrt:nlsdata.obj
 0002:00006ba0       ??_C@_07CGJPFGJA@January@  000000018005eba0     libucrt:nlsdata.obj
 0002:00006ba8       ??_C@_08GNJGEPFN@February@ 000000018005eba8     libucrt:nlsdata.obj
 0002:00006bb4       ??_C@_05HPCKOFNC@March@    000000018005ebb4     libucrt:nlsdata.obj
 0002:00006bbc       ??_C@_05DMJDNLEJ@April@    000000018005ebbc     libucrt:nlsdata.obj
 0002:00006bc4       ??_C@_04CNLMGBGM@June@     000000018005ebc4     libucrt:nlsdata.obj
 0002:00006bcc       ??_C@_04MIEPOIFP@July@     000000018005ebcc     libucrt:nlsdata.obj
 0002:00006bd4       ??_C@_06LBBHFDDG@August@   000000018005ebd4     libucrt:nlsdata.obj
 0002:00006be0       ??_C@_09BHHEALKD@September@ 000000018005ebe0     libucrt:nlsdata.obj
 0002:00006bf0       ??_C@_07JJNFCEND@October@  000000018005ebf0     libucrt:nlsdata.obj
 0002:00006bf8       ??_C@_08HCHEGEOA@November@ 000000018005ebf8     libucrt:nlsdata.obj
 0002:00006c08       ??_C@_08EDHMEBNP@December@ 000000018005ec08     libucrt:nlsdata.obj
 0002:00006c14       ??_C@_02DEDBPAFC@AM@       000000018005ec14     libucrt:nlsdata.obj
 0002:00006c18       ??_C@_02CJNFDJBF@PM@       000000018005ec18     libucrt:nlsdata.obj
 0002:00006c20       ??_C@_08BPBNCDIB@MM?1dd?1yy@ 000000018005ec20     libucrt:nlsdata.obj
 0002:00006c30       ??_C@_0BE@CKGJFCPC@dddd?0?5MMMM?5dd?0?5yyyy@ 000000018005ec30     libucrt:nlsdata.obj
 0002:00006c48       ??_C@_08JCCMCCIL@HH?3mm?3ss@ 000000018005ec48     libucrt:nlsdata.obj
 0002:00006c58       ??_C@_17MBGCMIPB@?$AAS?$AAu?$AAn@ 000000018005ec58     libucrt:nlsdata.obj
 0002:00006c60       ??_C@_17KBOMKBF@?$AAM?$AAo?$AAn@ 000000018005ec60     libucrt:nlsdata.obj
 0002:00006c68       ??_C@_17BMKGEGOJ@?$AAT?$AAu?$AAe@ 000000018005ec68     libucrt:nlsdata.obj
 0002:00006c70       ??_C@_17CJEDCEPE@?$AAW?$AAe?$AAd@ 000000018005ec70     libucrt:nlsdata.obj
 0002:00006c78       ??_C@_17PDPHAADD@?$AAT?$AAh?$AAu@ 000000018005ec78     libucrt:nlsdata.obj
 0002:00006c80       ??_C@_17HFOLPPLP@?$AAF?$AAr?$AAi@ 000000018005ec80     libucrt:nlsdata.obj
 0002:00006c88       ??_C@_17GGIBDPIH@?$AAS?$AAa?$AAt@ 000000018005ec88     libucrt:nlsdata.obj
 0002:00006c90       ??_C@_1O@IHNHDHPB@?$AAS?$AAu?$AAn?$AAd?$AAa?$AAy@ 000000018005ec90     libucrt:nlsdata.obj
 0002:00006ca0       ??_C@_1O@MMNBFLIA@?$AAM?$AAo?$AAn?$AAd?$AAa?$AAy@ 000000018005eca0     libucrt:nlsdata.obj
 0002:00006cb0       ??_C@_1BA@ENFBFFEK@?$AAT?$AAu?$AAe?$AAs?$AAd?$AAa?$AAy@ 000000018005ecb0     libucrt:nlsdata.obj
 0002:00006cc0       ??_C@_1BE@EBOGMDOH@?$AAW?$AAe?$AAd?$AAn?$AAe?$AAs?$AAd?$AAa?$AAy@ 000000018005ecc0     libucrt:nlsdata.obj
 0002:00006cd8       ??_C@_1BC@HHMNLIHE@?$AAT?$AAh?$AAu?$AAr?$AAs?$AAd?$AAa?$AAy@ 000000018005ecd8     libucrt:nlsdata.obj
 0002:00006cf0       ??_C@_1O@PDICJHAG@?$AAF?$AAr?$AAi?$AAd?$AAa?$AAy@ 000000018005ecf0     libucrt:nlsdata.obj
 0002:00006d00       ??_C@_1BC@ENMNNPAJ@?$AAS?$AAa?$AAt?$AAu?$AAr?$AAd?$AAa?$AAy@ 000000018005ed00     libucrt:nlsdata.obj
 0002:00006d18       ??_C@_17DKNBKCHM@?$AAJ?$AAa?$AAn@ 000000018005ed18     libucrt:nlsdata.obj
 0002:00006d20       ??_C@_17LMDJEKJN@?$AAF?$AAe?$AAb@ 000000018005ed20     libucrt:nlsdata.obj
 0002:00006d28       ??_C@_17CKNLEDEC@?$AAM?$AAa?$AAr@ 000000018005ed28     libucrt:nlsdata.obj
 0002:00006d30       ??_C@_17LFPOIHDD@?$AAA?$AAp?$AAr@ 000000018005ed30     libucrt:nlsdata.obj
 0002:00006d38       ??_C@_17PNNKMEED@?$AAM?$AAa?$AAy@ 000000018005ed38     libucrt:nlsdata.obj
 0002:00006d40       ??_C@_17KCJGOCPB@?$AAJ?$AAu?$AAn@ 000000018005ed40     libucrt:nlsdata.obj
 0002:00006d48       ??_C@_17IJPCKHK@?$AAJ?$AAu?$AAl@ 000000018005ed48     libucrt:nlsdata.obj
 0002:00006d50       ??_C@_17ICPELBCN@?$AAA?$AAu?$AAg@ 000000018005ed50     libucrt:nlsdata.obj
 0002:00006d58       ??_C@_17HCHCOKMG@?$AAS?$AAe?$AAp@ 000000018005ed58     libucrt:nlsdata.obj
 0002:00006d60       ??_C@_17FNLKOI@?$AAO?$AAc?$AAt@ 000000018005ed60     libucrt:nlsdata.obj
 0002:00006d68       ??_C@_17BBDMLCIG@?$AAN?$AAo?$AAv@ 000000018005ed68     libucrt:nlsdata.obj
 0002:00006d70       ??_C@_17EGKACKIF@?$AAD?$AAe?$AAc@ 000000018005ed70     libucrt:nlsdata.obj
 0002:00006d78       ??_C@_1BA@EFMEIEBA@?$AAJ?$AAa?$AAn?$AAu?$AAa?$AAr?$AAy@ 000000018005ed78     libucrt:nlsdata.obj
 0002:00006d88       ??_C@_1BC@JGDDFFAM@?$AAF?$AAe?$AAb?$AAr?$AAu?$AAa?$AAr?$AAy@ 000000018005ed88     libucrt:nlsdata.obj
 0002:00006da0       ??_C@_1M@IKEENEDF@?$AAM?$AAa?$AAr?$AAc?$AAh@ 000000018005eda0     libucrt:nlsdata.obj
 0002:00006db0       ??_C@_1M@GJNLMHFD@?$AAA?$AAp?$AAr?$AAi?$AAl@ 000000018005edb0     libucrt:nlsdata.obj
 0002:00006dc0       ??_C@_19EPFLPGAP@?$AAJ?$AAu?$AAn?$AAe@ 000000018005edc0     libucrt:nlsdata.obj
 0002:00006dd0       ??_C@_19BIFMLPCD@?$AAJ?$AAu?$AAl?$AAy@ 000000018005edd0     libucrt:nlsdata.obj
 0002:00006de0       ??_C@_1O@PAHLKOAC@?$AAA?$AAu?$AAg?$AAu?$AAs?$AAt@ 000000018005ede0     libucrt:nlsdata.obj
 0002:00006df0       ??_C@_1BE@DKAAMBJL@?$AAS?$AAe?$AAp?$AAt?$AAe?$AAm?$AAb?$AAe?$AAr@ 000000018005edf0     libucrt:nlsdata.obj
 0002:00006e08       ??_C@_1BA@EPANDLNG@?$AAO?$AAc?$AAt?$AAo?$AAb?$AAe?$AAr@ 000000018005ee08     libucrt:nlsdata.obj
 0002:00006e18       ??_C@_1BC@BGLIFPF@?$AAN?$AAo?$AAv?$AAe?$AAm?$AAb?$AAe?$AAr@ 000000018005ee18     libucrt:nlsdata.obj
 0002:00006e30       ??_C@_1BC@FEMKIFH@?$AAD?$AAe?$AAc?$AAe?$AAm?$AAb?$AAe?$AAr@ 000000018005ee30     libucrt:nlsdata.obj
 0002:00006e44       ??_C@_15ODEHAHHF@?$AAA?$AAM@ 000000018005ee44     libucrt:nlsdata.obj
 0002:00006e4c       ??_C@_15CLMNNGEL@?$AAP?$AAM@ 000000018005ee4c     libucrt:nlsdata.obj
 0002:00006e58       ??_C@_1BC@IEBCMHCM@?$AAM?$AAM?$AA?1?$AAd?$AAd?$AA?1?$AAy?$AAy@ 000000018005ee58     libucrt:nlsdata.obj
 0002:00006e70       ??_C@_1CI@KNAKOEBC@?$AAd?$AAd?$AAd?$AAd?$AA?0?$AA?5?$AAM?$AAM?$AAM?$AAM?$AA?5?$AAd?$AAd?$AA?0?$AA?5@ 000000018005ee70     libucrt:nlsdata.obj
 0002:00006e98       ??_C@_1BC@GDGBMEMK@?$AAH?$AAH?$AA?3?$AAm?$AAm?$AA?3?$AAs?$AAs@ 000000018005ee98     libucrt:nlsdata.obj
 0002:00006eb0       ??_C@_1M@BMHNFIME@?$AAe?$AAn?$AA?9?$AAU?$AAS@ 000000018005eeb0     libucrt:nlsdata.obj
 0002:00006ec0       _days                      000000018005eec0     libucrt:days.obj
 0002:00006ef8       _lpdays                    000000018005eef8     libucrt:days.obj
 0002:00007010       ??_C@_1EA@JGEFHKEI@?$AAa?$AAp?$AAi?$AA?9?$AAm?$AAs?$AA?9?$AAw?$AAi?$AAn?$AA?9?$AAc?$AAo?$AAr?$AAe@ 000000018005f010     libucrt:winapi_thunks.obj
 0002:00007050       ??_C@_1DI@IJCEHOCB@?$AAa?$AAp?$AAi?$AA?9?$AAm?$AAs?$AA?9?$AAw?$AAi?$AAn?$AA?9?$AAc?$AAo?$AAr?$AAe@ 000000018005f050     libucrt:winapi_thunks.obj
 0002:00007090       ??_C@_1EI@MPIAOHOC@?$AAa?$AAp?$AAi?$AA?9?$AAm?$AAs?$AA?9?$AAw?$AAi?$AAn?$AA?9?$AAc?$AAo?$AAr?$AAe@ 000000018005f090     libucrt:winapi_thunks.obj
 0002:000070e0       ??_C@_1FK@FPHCKFIE@?$AAa?$AAp?$AAi?$AA?9?$AAm?$AAs?$AA?9?$AAw?$AAi?$AAn?$AA?9?$AAc?$AAo?$AAr?$AAe@ 000000018005f0e0     libucrt:winapi_thunks.obj
 0002:00007140       ??_C@_1EM@DILCGIIO@?$AAa?$AAp?$AAi?$AA?9?$AAm?$AAs?$AA?9?$AAw?$AAi?$AAn?$AA?9?$AAc?$AAo?$AAr?$AAe@ 000000018005f140     libucrt:winapi_thunks.obj
 0002:00007190       ??_C@_1DM@LNCGDDPN@?$AAa?$AAp?$AAi?$AA?9?$AAm?$AAs?$AA?9?$AAw?$AAi?$AAn?$AA?9?$AAc?$AAo?$AAr?$AAe@ 000000018005f190     libucrt:winapi_thunks.obj
 0002:000071d0       ??_C@_1DO@FPAPJEMD@?$AAa?$AAp?$AAi?$AA?9?$AAm?$AAs?$AA?9?$AAw?$AAi?$AAn?$AA?9?$AAc?$AAo?$AAr?$AAe@ 000000018005f1d0     libucrt:winapi_thunks.obj
 0002:00007210       ??_C@_1DK@NDHNAHIO@?$AAa?$AAp?$AAi?$AA?9?$AAm?$AAs?$AA?9?$AAw?$AAi?$AAn?$AA?9?$AAc?$AAo?$AAr?$AAe@ 000000018005f210     libucrt:winapi_thunks.obj
 0002:00007250       ??_C@_1DM@KGHDGBCM@?$AAa?$AAp?$AAi?$AA?9?$AAm?$AAs?$AA?9?$AAw?$AAi?$AAn?$AA?9?$AAc?$AAo?$AAr?$AAe@ 000000018005f250     libucrt:winapi_thunks.obj
 0002:00007290       ??_C@_1EO@IJIOEFOH@?$AAa?$AAp?$AAi?$AA?9?$AAm?$AAs?$AA?9?$AAw?$AAi?$AAn?$AA?9?$AAr?$AAt?$AAc?$AAo@ 000000018005f290     libucrt:winapi_thunks.obj
 0002:000072e0       ??_C@_1FG@HHGEKANL@?$AAa?$AAp?$AAi?$AA?9?$AAm?$AAs?$AA?9?$AAw?$AAi?$AAn?$AA?9?$AAs?$AAe?$AAc?$AAu@ 000000018005f2e0     libucrt:winapi_thunks.obj
 0002:00007340       ??_C@_1EG@DBIOJECG@?$AAe?$AAx?$AAt?$AA?9?$AAm?$AAs?$AA?9?$AAw?$AAi?$AAn?$AA?9?$AAn?$AAt?$AAu?$AAs@ 000000018005f340     libucrt:winapi_thunks.obj
 0002:00007390       ??_C@_1EO@FIHMJCLF@?$AAe?$AAx?$AAt?$AA?9?$AAm?$AAs?$AA?9?$AAw?$AAi?$AAn?$AA?9?$AAn?$AAt?$AAu?$AAs@ 000000018005f390     libucrt:winapi_thunks.obj
 0002:000073e0       ??_C@_1BC@DNHGCMLG@?$AAa?$AAd?$AAv?$AAa?$AAp?$AAi?$AA3?$AA2@ 000000018005f3e0     libucrt:winapi_thunks.obj
 0002:000073f8       ??_C@_1M@OAIMIKLP@?$AAn?$AAt?$AAd?$AAl?$AAl@ 000000018005f3f8     libucrt:winapi_thunks.obj
 0002:00007410       ??_C@_1EG@DPGNFKGC@?$AAa?$AAp?$AAi?$AA?9?$AAm?$AAs?$AA?9?$AAw?$AAi?$AAn?$AA?9?$AAa?$AAp?$AAp?$AAm@ 000000018005f410     libucrt:winapi_thunks.obj
 0002:00007458       ??_C@_1O@BCCLBEOE@?$AAu?$AAs?$AAe?$AAr?$AA3?$AA2@ 000000018005f458     libucrt:winapi_thunks.obj
 0002:00007468       ??_C@_1BA@IAIFMGEF@?$AAe?$AAx?$AAt?$AA?9?$AAm?$AAs?$AA?9@ 000000018005f468     libucrt:winapi_thunks.obj
 0002:00007480       ??_C@_0BA@FHFNEAED@AreFileApisANSI@ 000000018005f480     libucrt:winapi_thunks.obj
 0002:00007498       ??_C@_0BA@IHGNDAEB@CompareStringEx@ 000000018005f498     libucrt:winapi_thunks.obj
 0002:000074b0       ??_C@_0BE@LJANKFHF@EnumSystemLocalesEx@ 000000018005f4b0     libucrt:winapi_thunks.obj
 0002:000074f0       ??_C@_0BA@HNOPNCHB@GetActiveWindow@ 000000018005f4f0     libucrt:winapi_thunks.obj
 0002:00007508       ??_C@_0BA@EPCJIIPD@GetDateFormatEx@ 000000018005f508     libucrt:winapi_thunks.obj
 0002:00007520       ??_C@_0BD@HHGDFDBJ@GetLastActivePopup@ 000000018005f520     libucrt:winapi_thunks.obj
 0002:00007540       ??_C@_0BA@ONOKGCMP@GetLocaleInfoEx@ 000000018005f540     libucrt:winapi_thunks.obj
 0002:00007558       ??_C@_0BI@DFKBFLJE@GetProcessWindowStation@ 000000018005f558     libucrt:winapi_thunks.obj
 0002:00007578       ??_C@_0BA@CIJJKCJJ@GetTimeFormatEx@ 000000018005f578     libucrt:winapi_thunks.obj
 0002:00007590       ??_C@_0BJ@PBCCBIPI@GetUserDefaultLocaleName@ 000000018005f590     libucrt:winapi_thunks.obj
 0002:000075b8       ??_C@_0BK@DEKFELLI@GetUserObjectInformationW@ 000000018005f5b8     libucrt:winapi_thunks.obj
 0002:000075e8       ??_C@_0BC@CELBKLLA@IsValidLocaleName@ 000000018005f5e8     libucrt:winapi_thunks.obj
 0002:00007608       ??_C@_0O@KKBNKAPF@LCMapStringEx@ 000000018005f608     libucrt:winapi_thunks.obj
 0002:00007620       ??_C@_0BB@CDHDDLLP@LCIDToLocaleName@ 000000018005f620     libucrt:winapi_thunks.obj
 0002:00007640       ??_C@_0BB@HBDEELFH@LocaleNameToLCID@ 000000018005f640     libucrt:winapi_thunks.obj
 0002:00007660       ??_C@_0M@CHKKJDAI@MessageBoxA@ 000000018005f660     libucrt:winapi_thunks.obj
 0002:00007678       ??_C@_0M@DLDCCGNP@MessageBoxW@ 000000018005f678     libucrt:winapi_thunks.obj
 0002:00007688       ??_C@_0CF@OJOFEIGO@AppPolicyGetProcessTerminationM@ 000000018005f688     libucrt:winapi_thunks.obj
 0002:000076b8       ??_C@_0CE@OICFMIKE@AppPolicyGetShowDeveloperDiagno@ 000000018005f6b8     libucrt:winapi_thunks.obj
 0002:000076e0       ??_C@_0BL@ODDJNEDA@AppPolicyGetWindowingModel@ 000000018005f6e0     libucrt:winapi_thunks.obj
 0002:00007780       ??_C@_03OEIAHPBN@INF@      000000018005f780     libucrt:cvt.obj
 0002:00007784       ??_C@_03OJHLLCGB@inf@      000000018005f784     libucrt:cvt.obj
 0002:00007788       ??_C@_03LKNCIKJB@NAN@      000000018005f788     libucrt:cvt.obj
 0002:0000778c       ??_C@_03LHCJEHON@nan@      000000018005f78c     libucrt:cvt.obj
 0002:00007790       ??_C@_09OFJJIMPC@NAN?$CISNAN?$CJ@ 000000018005f790     libucrt:cvt.obj
 0002:000077a0       ??_C@_09IPFBKMDL@nan?$CIsnan?$CJ@ 000000018005f7a0     libucrt:cvt.obj
 0002:000077b0       ??_C@_08IKHNHAJ@NAN?$CIIND?$CJ@ 000000018005f7b0     libucrt:cvt.obj
 0002:000077c0       ??_C@_08OFCDMILK@nan?$CIind?$CJ@ 000000018005f7c0     libucrt:cvt.obj
 0002:000077cc       ??_C@_05KLBDPFGC@e?$CL000@ 000000018005f7cc     libucrt:cvt.obj
 0002:000077d4       ?ccs@?1???$__acrt_stdio_parse_mode@D@@YA?AU__acrt_stdio_stream_mode@@QEBD@Z@4QBDB 000000018005f7d4     libucrt:openfile.obj
 0002:000077d8       ?utf8_encoding@?1???$__acrt_stdio_parse_mode@D@@YA?AU__acrt_stdio_stream_mode@@QEBD@Z@4QBDB 000000018005f7d8     libucrt:openfile.obj
 0002:000077e0       ?utf16_encoding@?1???$__acrt_stdio_parse_mode@D@@YA?AU__acrt_stdio_stream_mode@@QEBD@Z@4QBDB 000000018005f7e0     libucrt:openfile.obj
 0002:000077e8       ?unicode_encoding@?1???$__acrt_stdio_parse_mode@D@@YA?AU__acrt_stdio_stream_mode@@QEBD@Z@4QBDB 000000018005f7e8     libucrt:openfile.obj
 0002:00007818       ??_C@_03JGHBODFD@pow@      000000018005f818     libucrt:fpexcept.obj
 0002:0000781c       ??_C@_05HGHHAHAP@log10@    000000018005f81c     libucrt:fpexcept.obj
 0002:00007824       ??_C@_04PDIFKINK@acos@     000000018005f824     libucrt:fpexcept.obj
 0002:0000782c       ??_C@_04EIAKFFMI@sqrt@     000000018005f82c     libucrt:fpexcept.obj
 0002:00007840       __log_256_lead             000000018005f840     libucrt:log_256_lead_tail_table.obj
 0002:00008050       __log_256_tail             0000000180060050     libucrt:log_256_lead_tail_table.obj
 0002:00008860       __two_to_jby64_head_table  0000000180060860     libucrt:two_to_jby64_head_tail_table.obj
 0002:00008a60       __two_to_jby64_tail_table  0000000180060a60     libucrt:two_to_jby64_head_tail_table.obj
 0002:00008c60       ??_C@_04MBFDLNIM@powf@     0000000180060c60     libucrt:pow_special.obj
 0002:00008c70       __two_to_jby64_table       0000000180060c70     libucrt:two_to_jby64_table.obj
 0002:00008e70       __log_F_inv_qword          0000000180060e70     libucrt:log_f_inv_qword_table.obj
 0002:00009680       ??_C@_15HNJCPLHL@?$AAT?$AAZ@ 0000000180061680     libucrt:tzset.obj
 0002:000096a8       ??_C@_1M@HPNHIDJI@?$AAj?$AAa?$AA?9?$AAJ?$AAP@ 00000001800616a8     libucrt:mbctype.obj
 0002:000096b8       ??_C@_1M@BIBDDEMK@?$AAz?$AAh?$AA?9?$AAC?$AAN@ 00000001800616b8     libucrt:mbctype.obj
 0002:000096c8       ??_C@_1M@JLOOOEGK@?$AAk?$AAo?$AA?9?$AAK?$AAR@ 00000001800616c8     libucrt:mbctype.obj
 0002:000096d8       ??_C@_1M@CLNBBOPM@?$AAz?$AAh?$AA?9?$AAT?$AAW@ 00000001800616d8     libucrt:mbctype.obj
 0002:000096f0       __acrt_rg_language         00000001800616f0     libucrt:get_qualified_locale.obj
 0002:00009b00       __acrt_rg_language_count   0000000180061b00     libucrt:get_qualified_locale.obj
 0002:00009b10       __acrt_rg_country          0000000180061b10     libucrt:get_qualified_locale.obj
 0002:00009c80       __acrt_rg_country_count    0000000180061c80     libucrt:get_qualified_locale.obj
 0002:00009c88       ??_C@_1BC@LLOKLNP@?$AAa?$AAm?$AAe?$AAr?$AAi?$AAc?$AAa?$AAn@ 0000000180061c88     libucrt:get_qualified_locale.obj
 0002:00009ca0       ??_C@_1CC@HEIGCDGG@?$AAa?$AAm?$AAe?$AAr?$AAi?$AAc?$AAa?$AAn?$AA?5?$AAe?$AAn?$AAg?$AAl?$AAi?$AAs@ 0000000180061ca0     libucrt:get_qualified_locale.obj
 0002:00009cc8       ??_C@_1CC@IHCNOMIN@?$AAa?$AAm?$AAe?$AAr?$AAi?$AAc?$AAa?$AAn?$AA?9?$AAe?$AAn?$AAg?$AAl?$AAi?$AAs@ 0000000180061cc8     libucrt:get_qualified_locale.obj
 0002:00009cf0       ??_C@_1BG@GKAGPCGG@?$AAa?$AAu?$AAs?$AAt?$AAr?$AAa?$AAl?$AAi?$AAa?$AAn@ 0000000180061cf0     libucrt:get_qualified_locale.obj
 0002:00009d08       ??_C@_1BA@GMENCENF@?$AAb?$AAe?$AAl?$AAg?$AAi?$AAa?$AAn@ 0000000180061d08     libucrt:get_qualified_locale.obj
 0002:00009d18       ??_C@_1BC@PJMIIAAN@?$AAc?$AAa?$AAn?$AAa?$AAd?$AAi?$AAa?$AAn@ 0000000180061d18     libucrt:get_qualified_locale.obj
 0002:00009d30       ??_C@_17NOIMNFBF@?$AAc?$AAh?$AAh@ 0000000180061d30     libucrt:get_qualified_locale.obj
 0002:00009d38       ??_C@_17GGDALCHA@?$AAc?$AAh?$AAi@ 0000000180061d38     libucrt:get_qualified_locale.obj
 0002:00009d40       ??_C@_1BA@NPNJKIBL@?$AAc?$AAh?$AAi?$AAn?$AAe?$AAs?$AAe@ 0000000180061d40     libucrt:get_qualified_locale.obj
 0002:00009d50       ??_C@_1CC@DINBAMMJ@?$AAc?$AAh?$AAi?$AAn?$AAe?$AAs?$AAe?$AA?9?$AAh?$AAo?$AAn?$AAg?$AAk?$AAo?$AAn@ 0000000180061d50     libucrt:get_qualified_locale.obj
 0002:00009d78       ??_C@_1CG@IOBJPACO@?$AAc?$AAh?$AAi?$AAn?$AAe?$AAs?$AAe?$AA?9?$AAs?$AAi?$AAm?$AAp?$AAl?$AAi?$AAf@ 0000000180061d78     libucrt:get_qualified_locale.obj
 0002:00009da0       ??_C@_1CE@GAJNDCKG@?$AAc?$AAh?$AAi?$AAn?$AAe?$AAs?$AAe?$AA?9?$AAs?$AAi?$AAn?$AAg?$AAa?$AAp?$AAo@ 0000000180061da0     libucrt:get_qualified_locale.obj
 0002:00009dc8       ??_C@_1CI@PAJPIOOD@?$AAc?$AAh?$AAi?$AAn?$AAe?$AAs?$AAe?$AA?9?$AAt?$AAr?$AAa?$AAd?$AAi?$AAt?$AAi@ 0000000180061dc8     libucrt:get_qualified_locale.obj
 0002:00009df0       ??_C@_1BM@NILJBMMD@?$AAd?$AAu?$AAt?$AAc?$AAh?$AA?9?$AAb?$AAe?$AAl?$AAg?$AAi?$AAa?$AAn@ 0000000180061df0     libucrt:get_qualified_locale.obj
 0002:00009e10       ??_C@_1CC@OOJPJNEJ@?$AAe?$AAn?$AAg?$AAl?$AAi?$AAs?$AAh?$AA?9?$AAa?$AAm?$AAe?$AAr?$AAi?$AAc?$AAa@ 0000000180061e10     libucrt:get_qualified_locale.obj
 0002:00009e38       ??_C@_1BI@IOLFEEM@?$AAe?$AAn?$AAg?$AAl?$AAi?$AAs?$AAh?$AA?9?$AAa?$AAu?$AAs@ 0000000180061e38     libucrt:get_qualified_locale.obj
 0002:00009e50       ??_C@_1BO@HFFNLENJ@?$AAe?$AAn?$AAg?$AAl?$AAi?$AAs?$AAh?$AA?9?$AAb?$AAe?$AAl?$AAi?$AAz?$AAe@ 0000000180061e50     libucrt:get_qualified_locale.obj
 0002:00009e70       ??_C@_1BI@HAPKJMPO@?$AAe?$AAn?$AAg?$AAl?$AAi?$AAs?$AAh?$AA?9?$AAc?$AAa?$AAn@ 0000000180061e70     libucrt:get_qualified_locale.obj
 0002:00009e88       ??_C@_1CE@HLNDMIOJ@?$AAe?$AAn?$AAg?$AAl?$AAi?$AAs?$AAh?$AA?9?$AAc?$AAa?$AAr?$AAi?$AAb?$AAb?$AAe@ 0000000180061e88     libucrt:get_qualified_locale.obj
 0002:00009eb0       ??_C@_1BI@LDHJHHAC@?$AAe?$AAn?$AAg?$AAl?$AAi?$AAs?$AAh?$AA?9?$AAi?$AAr?$AAe@ 0000000180061eb0     libucrt:get_qualified_locale.obj
 0002:00009ec8       ??_C@_1CA@NJMMCFOC@?$AAe?$AAn?$AAg?$AAl?$AAi?$AAs?$AAh?$AA?9?$AAj?$AAa?$AAm?$AAa?$AAi?$AAc?$AAa@ 0000000180061ec8     libucrt:get_qualified_locale.obj
 0002:00009ee8       ??_C@_1BG@BHJEBBGG@?$AAe?$AAn?$AAg?$AAl?$AAi?$AAs?$AAh?$AA?9?$AAn?$AAz@ 0000000180061ee8     libucrt:get_qualified_locale.obj
 0002:00009f00       ??_C@_1CK@FGOEJJCO@?$AAe?$AAn?$AAg?$AAl?$AAi?$AAs?$AAh?$AA?9?$AAs?$AAo?$AAu?$AAt?$AAh?$AA?5?$AAa@ 0000000180061f00     libucrt:get_qualified_locale.obj
 0002:00009f30       ??_C@_1DE@PDBJPCJ@?$AAe?$AAn?$AAg?$AAl?$AAi?$AAs?$AAh?$AA?9?$AAt?$AAr?$AAi?$AAn?$AAi?$AAd?$AAa@ 0000000180061f30     libucrt:get_qualified_locale.obj
 0002:00009f68       ??_C@_1BG@JGCANDME@?$AAe?$AAn?$AAg?$AAl?$AAi?$AAs?$AAh?$AA?9?$AAu?$AAk@ 0000000180061f68     libucrt:get_qualified_locale.obj
 0002:00009f80       ??_C@_1BG@DINKMLE@?$AAe?$AAn?$AAg?$AAl?$AAi?$AAs?$AAh?$AA?9?$AAu?$AAs@ 0000000180061f80     libucrt:get_qualified_locale.obj
 0002:00009f98       ??_C@_1BI@NMFDBHJE@?$AAe?$AAn?$AAg?$AAl?$AAi?$AAs?$AAh?$AA?9?$AAu?$AAs?$AAa@ 0000000180061f98     libucrt:get_qualified_locale.obj
 0002:00009fb0       ??_C@_1BO@OIHKJKII@?$AAf?$AAr?$AAe?$AAn?$AAc?$AAh?$AA?9?$AAb?$AAe?$AAl?$AAg?$AAi?$AAa?$AAn@ 0000000180061fb0     libucrt:get_qualified_locale.obj
 0002:00009fd0       ??_C@_1CA@NKAELJKI@?$AAf?$AAr?$AAe?$AAn?$AAc?$AAh?$AA?9?$AAc?$AAa?$AAn?$AAa?$AAd?$AAi?$AAa?$AAn@ 0000000180061fd0     libucrt:get_qualified_locale.obj
 0002:00009ff0       ??_C@_1CE@MGKCNLGN@?$AAf?$AAr?$AAe?$AAn?$AAc?$AAh?$AA?9?$AAl?$AAu?$AAx?$AAe?$AAm?$AAb?$AAo?$AAu@ 0000000180061ff0     libucrt:get_qualified_locale.obj
 0002:0000a018       ??_C@_1BK@CEGEAILM@?$AAf?$AAr?$AAe?$AAn?$AAc?$AAh?$AA?9?$AAs?$AAw?$AAi?$AAs?$AAs@ 0000000180062018     libucrt:get_qualified_locale.obj
 0002:0000a038       ??_C@_1CA@PAFKEOCC@?$AAg?$AAe?$AAr?$AAm?$AAa?$AAn?$AA?9?$AAa?$AAu?$AAs?$AAt?$AAr?$AAi?$AAa?$AAn@ 0000000180062038     libucrt:get_qualified_locale.obj
 0002:0000a058       ??_C@_1CI@HCFHGOFD@?$AAg?$AAe?$AAr?$AAm?$AAa?$AAn?$AA?9?$AAl?$AAi?$AAc?$AAh?$AAt?$AAe?$AAn?$AAs@ 0000000180062058     libucrt:get_qualified_locale.obj
 0002:0000a080       ??_C@_1CE@FEDDNPDG@?$AAg?$AAe?$AAr?$AAm?$AAa?$AAn?$AA?9?$AAl?$AAu?$AAx?$AAe?$AAm?$AAb?$AAo?$AAu@ 0000000180062080     libucrt:get_qualified_locale.obj
 0002:0000a0a8       ??_C@_1BK@LIMINNMN@?$AAg?$AAe?$AAr?$AAm?$AAa?$AAn?$AA?9?$AAs?$AAw?$AAi?$AAs?$AAs@ 00000001800620a8     libucrt:get_qualified_locale.obj
 0002:0000a0c8       ??_C@_1BM@LGMDBEPD@?$AAi?$AAr?$AAi?$AAs?$AAh?$AA?9?$AAe?$AAn?$AAg?$AAl?$AAi?$AAs?$AAh@ 00000001800620c8     libucrt:get_qualified_locale.obj
 0002:0000a0e8       ??_C@_1BM@NNCFBAEE@?$AAi?$AAt?$AAa?$AAl?$AAi?$AAa?$AAn?$AA?9?$AAs?$AAw?$AAi?$AAs?$AAs@ 00000001800620e8     libucrt:get_qualified_locale.obj
 0002:0000a108       ??_C@_1BE@FEDJNPIB@?$AAn?$AAo?$AAr?$AAw?$AAe?$AAg?$AAi?$AAa?$AAn@ 0000000180062108     libucrt:get_qualified_locale.obj
 0002:0000a120       ??_C@_1CC@CILKDEIE@?$AAn?$AAo?$AAr?$AAw?$AAe?$AAg?$AAi?$AAa?$AAn?$AA?9?$AAb?$AAo?$AAk?$AAm?$AAa@ 0000000180062120     libucrt:get_qualified_locale.obj
 0002:0000a148       ??_C@_1CE@DHMMHEPL@?$AAn?$AAo?$AAr?$AAw?$AAe?$AAg?$AAi?$AAa?$AAn?$AA?9?$AAn?$AAy?$AAn?$AAo?$AAr@ 0000000180062148     libucrt:get_qualified_locale.obj
 0002:0000a170       ??_C@_1CK@OPNMHECD@?$AAp?$AAo?$AAr?$AAt?$AAu?$AAg?$AAu?$AAe?$AAs?$AAe?$AA?9?$AAb?$AAr?$AAa?$AAz@ 0000000180062170     libucrt:get_qualified_locale.obj
 0002:0000a1a0       ??_C@_1CE@KEEHCDB@?$AAs?$AAp?$AAa?$AAn?$AAi?$AAs?$AAh?$AA?9?$AAa?$AAr?$AAg?$AAe?$AAn?$AAt?$AAi@ 00000001800621a0     libucrt:get_qualified_locale.obj
 0002:0000a1c8       ??_C@_1CA@GIAOLHJD@?$AAs?$AAp?$AAa?$AAn?$AAi?$AAs?$AAh?$AA?9?$AAb?$AAo?$AAl?$AAi?$AAv?$AAi?$AAa@ 00000001800621c8     libucrt:get_qualified_locale.obj
 0002:0000a1e8       ??_C@_1BM@OJNDFNPD@?$AAs?$AAp?$AAa?$AAn?$AAi?$AAs?$AAh?$AA?9?$AAc?$AAh?$AAi?$AAl?$AAe@ 00000001800621e8     libucrt:get_qualified_locale.obj
 0002:0000a208       ??_C@_1CC@OCOLPALL@?$AAs?$AAp?$AAa?$AAn?$AAi?$AAs?$AAh?$AA?9?$AAc?$AAo?$AAl?$AAo?$AAm?$AAb?$AAi@ 0000000180062208     libucrt:get_qualified_locale.obj
 0002:0000a230       ??_C@_1CG@BPOFMKBB@?$AAs?$AAp?$AAa?$AAn?$AAi?$AAs?$AAh?$AA?9?$AAc?$AAo?$AAs?$AAt?$AAa?$AA?5?$AAr@ 0000000180062230     libucrt:get_qualified_locale.obj
 0002:0000a258       ??_C@_1DG@IGOBAPBB@?$AAs?$AAp?$AAa?$AAn?$AAi?$AAs?$AAh?$AA?9?$AAd?$AAo?$AAm?$AAi?$AAn?$AAi?$AAc@ 0000000180062258     libucrt:get_qualified_locale.obj
 0002:0000a290       ??_C@_1CA@JHAPGEGI@?$AAs?$AAp?$AAa?$AAn?$AAi?$AAs?$AAh?$AA?9?$AAe?$AAc?$AAu?$AAa?$AAd?$AAo?$AAr@ 0000000180062290     libucrt:get_qualified_locale.obj
 0002:0000a2b0       ??_C@_1CI@LAPALJPP@?$AAs?$AAp?$AAa?$AAn?$AAi?$AAs?$AAh?$AA?9?$AAe?$AAl?$AA?5?$AAs?$AAa?$AAl?$AAv@ 00000001800622b0     libucrt:get_qualified_locale.obj
 0002:0000a2d8       ??_C@_1CE@PDGBOFOM@?$AAs?$AAp?$AAa?$AAn?$AAi?$AAs?$AAh?$AA?9?$AAg?$AAu?$AAa?$AAt?$AAe?$AAm?$AAa@ 00000001800622d8     libucrt:get_qualified_locale.obj
 0002:0000a300       ??_C@_1CC@NBEBAODI@?$AAs?$AAp?$AAa?$AAn?$AAi?$AAs?$AAh?$AA?9?$AAh?$AAo?$AAn?$AAd?$AAu?$AAr?$AAa@ 0000000180062300     libucrt:get_qualified_locale.obj
 0002:0000a328       ??_C@_1CA@LLKGHBMF@?$AAs?$AAp?$AAa?$AAn?$AAi?$AAs?$AAh?$AA?9?$AAm?$AAe?$AAx?$AAi?$AAc?$AAa?$AAn@ 0000000180062328     libucrt:get_qualified_locale.obj
 0002:0000a348       ??_C@_1BO@LKNDOIGD@?$AAs?$AAp?$AAa?$AAn?$AAi?$AAs?$AAh?$AA?9?$AAm?$AAo?$AAd?$AAe?$AAr?$AAn@ 0000000180062348     libucrt:get_qualified_locale.obj
 0002:0000a368       ??_C@_1CE@NMDMOEEB@?$AAs?$AAp?$AAa?$AAn?$AAi?$AAs?$AAh?$AA?9?$AAn?$AAi?$AAc?$AAa?$AAr?$AAa?$AAg@ 0000000180062368     libucrt:get_qualified_locale.obj
 0002:0000a390       ??_C@_1BO@LLCBEJGB@?$AAs?$AAp?$AAa?$AAn?$AAi?$AAs?$AAh?$AA?9?$AAp?$AAa?$AAn?$AAa?$AAm?$AAa@ 0000000180062390     libucrt:get_qualified_locale.obj
 0002:0000a3b0       ??_C@_1CC@FKPGGIHO@?$AAs?$AAp?$AAa?$AAn?$AAi?$AAs?$AAh?$AA?9?$AAp?$AAa?$AAr?$AAa?$AAg?$AAu?$AAa@ 00000001800623b0     libucrt:get_qualified_locale.obj
 0002:0000a3d8       ??_C@_1BK@CDEIHOOP@?$AAs?$AAp?$AAa?$AAn?$AAi?$AAs?$AAh?$AA?9?$AAp?$AAe?$AAr?$AAu@ 00000001800623d8     libucrt:get_qualified_locale.obj
 0002:0000a3f8       ??_C@_1CI@GAHAKKGP@?$AAs?$AAp?$AAa?$AAn?$AAi?$AAs?$AAh?$AA?9?$AAp?$AAu?$AAe?$AAr?$AAt?$AAo?$AA?5@ 00000001800623f8     libucrt:get_qualified_locale.obj
 0002:0000a420       ??_C@_1CA@NKJBCAGP@?$AAs?$AAp?$AAa?$AAn?$AAi?$AAs?$AAh?$AA?9?$AAu?$AAr?$AAu?$AAg?$AAu?$AAa?$AAy@ 0000000180062420     libucrt:get_qualified_locale.obj
 0002:0000a440       ??_C@_1CE@ODILCONM@?$AAs?$AAp?$AAa?$AAn?$AAi?$AAs?$AAh?$AA?9?$AAv?$AAe?$AAn?$AAe?$AAz?$AAu?$AAe@ 0000000180062440     libucrt:get_qualified_locale.obj
 0002:0000a468       ??_C@_1CA@OBNMCGFO@?$AAs?$AAw?$AAe?$AAd?$AAi?$AAs?$AAh?$AA?9?$AAf?$AAi?$AAn?$AAl?$AAa?$AAn?$AAd@ 0000000180062468     libucrt:get_qualified_locale.obj
 0002:0000a488       ??_C@_1M@PIPDDPPI@?$AAs?$AAw?$AAi?$AAs?$AAs@ 0000000180062488     libucrt:get_qualified_locale.obj
 0002:0000a494       ??_C@_15PJPFLCCM@?$AAu?$AAk@ 0000000180062494     libucrt:get_qualified_locale.obj
 0002:0000a49c       ??_C@_15GMFIMNFM@?$AAu?$AAs@ 000000018006249c     libucrt:get_qualified_locale.obj
 0002:0000a4a8       ??_C@_17HAEBFAGL@?$AAu?$AAs?$AAa@ 00000001800624a8     libucrt:get_qualified_locale.obj
 0002:0000a4b0       ??_C@_1BA@DPFJEPHB@?$AAa?$AAm?$AAe?$AAr?$AAi?$AAc?$AAa@ 00000001800624b0     libucrt:get_qualified_locale.obj
 0002:0000a4c0       ??_C@_1BA@ELOGGFK@?$AAb?$AAr?$AAi?$AAt?$AAa?$AAi?$AAn@ 00000001800624c0     libucrt:get_qualified_locale.obj
 0002:0000a4d0       ??_C@_1M@GHBGIGDA@?$AAc?$AAh?$AAi?$AAn?$AAa@ 00000001800624d0     libucrt:get_qualified_locale.obj
 0002:0000a4e0       ??_C@_1M@NCHEJOPO@?$AAc?$AAz?$AAe?$AAc?$AAh@ 00000001800624e0     libucrt:get_qualified_locale.obj
 0002:0000a4f0       ??_C@_1BA@BKPAPBLA@?$AAe?$AAn?$AAg?$AAl?$AAa?$AAn?$AAd@ 00000001800624f0     libucrt:get_qualified_locale.obj
 0002:0000a500       ??_C@_1BM@HKBCKIPC@?$AAg?$AAr?$AAe?$AAa?$AAt?$AA?5?$AAb?$AAr?$AAi?$AAt?$AAa?$AAi?$AAn@ 0000000180062500     libucrt:get_qualified_locale.obj
 0002:0000a520       ??_C@_1BA@PPCHPGJB@?$AAh?$AAo?$AAl?$AAl?$AAa?$AAn?$AAd@ 0000000180062520     libucrt:get_qualified_locale.obj
 0002:0000a530       ??_C@_1BE@JBMPEGDG@?$AAh?$AAo?$AAn?$AAg?$AA?9?$AAk?$AAo?$AAn?$AAg@ 0000000180062530     libucrt:get_qualified_locale.obj
 0002:0000a548       ??_C@_1BI@KOELBBPJ@?$AAn?$AAe?$AAw?$AA?9?$AAz?$AAe?$AAa?$AAl?$AAa?$AAn?$AAd@ 0000000180062548     libucrt:get_qualified_locale.obj
 0002:0000a560       ??_C@_15HIEBHAIO@?$AAn?$AAz@ 0000000180062560     libucrt:get_qualified_locale.obj
 0002:0000a568       ??_C@_1BC@CHBCPFPI@?$AAp?$AAr?$AA?5?$AAc?$AAh?$AAi?$AAn?$AAa@ 0000000180062568     libucrt:get_qualified_locale.obj
 0002:0000a580       ??_C@_1BC@JAOIIFKD@?$AAp?$AAr?$AA?9?$AAc?$AAh?$AAi?$AAn?$AAa@ 0000000180062580     libucrt:get_qualified_locale.obj
 0002:0000a598       ??_C@_1BI@BEHPPHKC@?$AAp?$AAu?$AAe?$AAr?$AAt?$AAo?$AA?9?$AAr?$AAi?$AAc?$AAo@ 0000000180062598     libucrt:get_qualified_locale.obj
 0002:0000a5b0       ??_C@_1O@PAEOFKDI@?$AAs?$AAl?$AAo?$AAv?$AAa?$AAk@ 00000001800625b0     libucrt:get_qualified_locale.obj
 0002:0000a5c0       ??_C@_1BK@FIHMCKAM@?$AAs?$AAo?$AAu?$AAt?$AAh?$AA?5?$AAa?$AAf?$AAr?$AAi?$AAc?$AAa@ 00000001800625c0     libucrt:get_qualified_locale.obj
 0002:0000a5e0       ??_C@_1BI@NAEOODKB@?$AAs?$AAo?$AAu?$AAt?$AAh?$AA?5?$AAk?$AAo?$AAr?$AAe?$AAa@ 00000001800625e0     libucrt:get_qualified_locale.obj
 0002:0000a5f8       ??_C@_1BK@FBDGGIFF@?$AAs?$AAo?$AAu?$AAt?$AAh?$AA?9?$AAa?$AAf?$AAr?$AAi?$AAc?$AAa@ 00000001800625f8     libucrt:get_qualified_locale.obj
 0002:0000a618       ??_C@_1BI@GHLEJDPK@?$AAs?$AAo?$AAu?$AAt?$AAh?$AA?9?$AAk?$AAo?$AAr?$AAe?$AAa@ 0000000180062618     libucrt:get_qualified_locale.obj
 0002:0000a630       ??_C@_1CE@PLHLOMJF@?$AAt?$AAr?$AAi?$AAn?$AAi?$AAd?$AAa?$AAd?$AA?5?$AA?$CG?$AA?5?$AAt?$AAo?$AAb?$AAa@ 0000000180062630     libucrt:get_qualified_locale.obj
 0002:0000a658       ??_C@_1BO@MODIMHHI@?$AAu?$AAn?$AAi?$AAt?$AAe?$AAd?$AA?9?$AAk?$AAi?$AAn?$AAg?$AAd?$AAo?$AAm@ 0000000180062658     libucrt:get_qualified_locale.obj
 0002:0000a678       ??_C@_1BM@FFHJONBJ@?$AAu?$AAn?$AAi?$AAt?$AAe?$AAd?$AA?9?$AAs?$AAt?$AAa?$AAt?$AAe?$AAs@ 0000000180062678     libucrt:get_qualified_locale.obj
 0002:0000a698       ??_C@_19MPDNHKDG@?$AAu?$AAt?$AAf?$AA8@ 0000000180062698     libucrt:get_qualified_locale.obj
 0002:0000a6a8       ??_C@_17DNCLJFIF@?$AAA?$AAC?$AAP@ 00000001800626a8     libucrt:get_qualified_locale.obj
 0002:0000a6b0       ??_C@_1M@FPEIIFAM@?$AAu?$AAt?$AAf?$AA?9?$AA8@ 00000001800626b0     libucrt:get_qualified_locale.obj
 0002:0000a6c0       ??_C@_17CIKBIHLH@?$AAO?$AAC?$AAP@ 00000001800626c0     libucrt:get_qualified_locale.obj
 0002:0000a6c8       __rglangidNotDefault       00000001800626c8     libucrt:getqloc_downlevel.obj
 0002:0000b520       ??_C@_15EMKDOKLE@?$AAa?$AAr@ 0000000180063520     libucrt:lcidtoname_downlevel.obj
 0002:0000b528       ??_C@_15KNPADPLH@?$AAb?$AAg@ 0000000180063528     libucrt:lcidtoname_downlevel.obj
 0002:0000b530       ??_C@_15EDMHLDMO@?$AAc?$AAa@ 0000000180063530     libucrt:lcidtoname_downlevel.obj
 0002:0000b538       ??_C@_1O@BPEAJADD@?$AAz?$AAh?$AA?9?$AAC?$AAH?$AAS@ 0000000180063538     libucrt:lcidtoname_downlevel.obj
 0002:0000b548       ??_C@_15LJNHCMNK@?$AAc?$AAs@ 0000000180063548     libucrt:lcidtoname_downlevel.obj
 0002:0000b550       ??_C@_15FOMCIDHG@?$AAd?$AAa@ 0000000180063550     libucrt:lcidtoname_downlevel.obj
 0002:0000b558       ??_C@_15NBKABECB@?$AAd?$AAe@ 0000000180063558     libucrt:lcidtoname_downlevel.obj
 0002:0000b560       ??_C@_15GHPEIIAO@?$AAe?$AAl@ 0000000180063560     libucrt:lcidtoname_downlevel.obj
 0002:0000b568       ??_C@_15MNPNEAIF@?$AAe?$AAn@ 0000000180063568     libucrt:lcidtoname_downlevel.obj
 0002:0000b570       ??_C@_15GPIOMPMH@?$AAe?$AAs@ 0000000180063570     libucrt:lcidtoname_downlevel.obj
 0002:0000b578       ??_C@_15NGLOAKJC@?$AAf?$AAi@ 0000000180063578     libucrt:lcidtoname_downlevel.obj
 0002:0000b580       ??_C@_15FBKGNKAM@?$AAf?$AAr@ 0000000180063580     libucrt:lcidtoname_downlevel.obj
 0002:0000b588       ??_C@_15KGGCNEFK@?$AAh?$AAe@ 0000000180063588     libucrt:lcidtoname_downlevel.obj
 0002:0000b590       ??_C@_15PGHLIDMF@?$AAh?$AAu@ 0000000180063590     libucrt:lcidtoname_downlevel.obj
 0002:0000b598       ??_C@_15BIEMAPLM@?$AAi?$AAs@ 0000000180063598     libucrt:lcidtoname_downlevel.obj
 0002:0000b5a0       ??_C@_15IFJLDHAF@?$AAi?$AAt@ 00000001800635a0     libucrt:lcidtoname_downlevel.obj
 0002:0000b5a8       ??_C@_15GEMIOCAG@?$AAj?$AAa@ 00000001800635a8     libucrt:lcidtoname_downlevel.obj
 0002:0000b5b0       ??_C@_15EPELEGJA@?$AAk?$AAo@ 00000001800635b0     libucrt:lcidtoname_downlevel.obj
 0002:0000b5b8       ??_C@_15NDDHIMN@?$AAn?$AAl@ 00000001800635b8     libucrt:lcidtoname_downlevel.obj
 0002:0000b5c0       ??_C@_15BPIGNHCD@?$AAn?$AAo@ 00000001800635c0     libucrt:lcidtoname_downlevel.obj
 0002:0000b5c8       ??_C@_15DEOPBLCG@?$AAp?$AAl@ 00000001800635c8     libucrt:lcidtoname_downlevel.obj
 0002:0000b5d0       ??_C@_15KBECGEFG@?$AAp?$AAt@ 00000001800635d0     libucrt:lcidtoname_downlevel.obj
 0002:0000b5d8       ??_C@_15GLJCBFMD@?$AAr?$AAo@ 00000001800635d8     libucrt:lcidtoname_downlevel.obj
 0002:0000b5e0       ??_C@_15FEDGKCDI@?$AAr?$AAu@ 00000001800635e0     libucrt:lcidtoname_downlevel.obj
 0002:0000b5e8       ??_C@_15GLKMLLHM@?$AAh?$AAr@ 00000001800635e8     libucrt:lcidtoname_downlevel.obj
 0002:0000b5f0       ??_C@_15CPKMFBDB@?$AAs?$AAk@ 00000001800635f0     libucrt:lcidtoname_downlevel.obj
 0002:0000b5f8       ??_C@_15BAAIOGMK@?$AAs?$AAq@ 00000001800635f8     libucrt:lcidtoname_downlevel.obj
 0002:0000b600       ??_C@_15INNPNOHD@?$AAs?$AAv@ 0000000180063600     libucrt:lcidtoname_downlevel.obj
 0002:0000b608       ??_C@_15CABMMOGH@?$AAt?$AAh@ 0000000180063608     libucrt:lcidtoname_downlevel.obj
 0002:0000b610       ??_C@_15BPLIHJJM@?$AAt?$AAr@ 0000000180063610     libucrt:lcidtoname_downlevel.obj
 0002:0000b618       ??_C@_15NEOEKKDJ@?$AAu?$AAr@ 0000000180063618     libucrt:lcidtoname_downlevel.obj
 0002:0000b620       ??_C@_15NFICGAJK@?$AAi?$AAd@ 0000000180063620     libucrt:lcidtoname_downlevel.obj
 0002:0000b628       ??_C@_15HPJPHDM@?$AAb?$AAe@ 0000000180063628     libucrt:lcidtoname_downlevel.obj
 0002:0000b630       ??_C@_15LCHLGJII@?$AAs?$AAl@ 0000000180063630     libucrt:lcidtoname_downlevel.obj
 0002:0000b638       ??_C@_15PCFJPHHO@?$AAe?$AAt@ 0000000180063638     libucrt:lcidtoname_downlevel.obj
 0002:0000b640       ??_C@_15HPFPGODN@?$AAl?$AAv@ 0000000180063640     libucrt:lcidtoname_downlevel.obj
 0002:0000b648       ??_C@_15NFFGKGLG@?$AAl?$AAt@ 0000000180063648     libucrt:lcidtoname_downlevel.obj
 0002:0000b650       ??_C@_15BDAKCCHN@?$AAf?$AAa@ 0000000180063650     libucrt:lcidtoname_downlevel.obj
 0002:0000b658       ??_C@_15NFGIAIAJ@?$AAv?$AAi@ 0000000180063658     libucrt:lcidtoname_downlevel.obj
 0002:0000b660       ??_C@_15LMKNDMHN@?$AAh?$AAy@ 0000000180063660     libucrt:lcidtoname_downlevel.obj
 0002:0000b668       ??_C@_15IJBHMCFL@?$AAa?$AAz@ 0000000180063668     libucrt:lcidtoname_downlevel.obj
 0002:0000b670       ??_C@_15EKOFJABL@?$AAe?$AAu@ 0000000180063670     libucrt:lcidtoname_downlevel.obj
 0002:0000b678       ??_C@_15BGHADCNK@?$AAm?$AAk@ 0000000180063678     libucrt:lcidtoname_downlevel.obj
 0002:0000b680       ??_C@_15JDNICKHM@?$AAa?$AAf@ 0000000180063680     libucrt:lcidtoname_downlevel.obj
 0002:0000b688       ??_C@_15KPJEDBKD@?$AAk?$AAa@ 0000000180063688     libucrt:lcidtoname_downlevel.obj
 0002:0000b690       ??_C@_15PDNFFFEO@?$AAf?$AAo@ 0000000180063690     libucrt:lcidtoname_downlevel.obj
 0002:0000b698       ??_C@_15OMLEGLOC@?$AAh?$AAi@ 0000000180063698     libucrt:lcidtoname_downlevel.obj
 0002:0000b6a0       ??_C@_15IDNNENKK@?$AAm?$AAs@ 00000001800636a0     libucrt:lcidtoname_downlevel.obj
 0002:0000b6a8       ??_C@_15MACJNBMH@?$AAk?$AAk@ 00000001800636a8     libucrt:lcidtoname_downlevel.obj
 0002:0000b6b0       ??_C@_15DKDJEOND@?$AAk?$AAy@ 00000001800636b0     libucrt:lcidtoname_downlevel.obj
 0002:0000b6b8       ??_C@_15DFGDLJBG@?$AAs?$AAw@ 00000001800636b8     libucrt:lcidtoname_downlevel.obj
 0002:0000b6c0       ??_C@_15BBFAICNG@?$AAu?$AAz@ 00000001800636c0     libucrt:lcidtoname_downlevel.obj
 0002:0000b6c8       ??_C@_15DKNDCGEA@?$AAt?$AAt@ 00000001800636c8     libucrt:lcidtoname_downlevel.obj
 0002:0000b6d0       ??_C@_15MGIFMDPL@?$AAp?$AAa@ 00000001800636d0     libucrt:lcidtoname_downlevel.obj
 0002:0000b6d8       ??_C@_15HCNDBBA@?$AAg?$AAu@ 00000001800636d8     libucrt:lcidtoname_downlevel.obj
 0002:0000b6e0       ??_C@_15FNBEIBON@?$AAt?$AAa@ 00000001800636e0     libucrt:lcidtoname_downlevel.obj
 0002:0000b6e8       ??_C@_15NCHGBGLK@?$AAt?$AAe@ 00000001800636e8     libucrt:lcidtoname_downlevel.obj
 0002:0000b6f0       ??_C@_15PHPHCBPF@?$AAk?$AAn@ 00000001800636f0     libucrt:lcidtoname_downlevel.obj
 0002:0000b6f8       ??_C@_15DLGBCKMP@?$AAm?$AAr@ 00000001800636f8     libucrt:lcidtoname_downlevel.obj
 0002:0000b700       ??_C@_15EABBLBFF@?$AAs?$AAa@ 0000000180063700     libucrt:lcidtoname_downlevel.obj
 0002:0000b708       ??_C@_15CBKOMCOI@?$AAm?$AAn@ 0000000180063708     libucrt:lcidtoname_downlevel.obj
 0002:0000b710       ??_C@_15CKDMCJAF@?$AAg?$AAl@ 0000000180063710     libucrt:lcidtoname_downlevel.obj
 0002:0000b718       ??_C@_17CNJFBPG@?$AAk?$AAo?$AAk@ 0000000180063718     libucrt:lcidtoname_downlevel.obj
 0002:0000b720       ??_C@_17FFBJICPL@?$AAs?$AAy?$AAr@ 0000000180063720     libucrt:lcidtoname_downlevel.obj
 0002:0000b728       ??_C@_17KPNDCPAF@?$AAd?$AAi?$AAv@ 0000000180063728     libucrt:lcidtoname_downlevel.obj
 0002:0000b730       ??_C@_1M@OKAHONE@?$AAa?$AAr?$AA?9?$AAS?$AAA@ 0000000180063730     libucrt:lcidtoname_downlevel.obj
 0002:0000b740       ??_C@_1M@FFFIGIGK@?$AAb?$AAg?$AA?9?$AAB?$AAG@ 0000000180063740     libucrt:lcidtoname_downlevel.obj
 0002:0000b750       ??_C@_1M@BJNKEDC@?$AAc?$AAa?$AA?9?$AAE?$AAS@ 0000000180063750     libucrt:lcidtoname_downlevel.obj
 0002:0000b760       ??_C@_1M@IJJHFJHA@?$AAc?$AAs?$AA?9?$AAC?$AAZ@ 0000000180063760     libucrt:lcidtoname_downlevel.obj
 0002:0000b770       ??_C@_1M@CLPEOBGI@?$AAd?$AAa?$AA?9?$AAD?$AAK@ 0000000180063770     libucrt:lcidtoname_downlevel.obj
 0002:0000b780       ??_C@_1M@MCMADGCB@?$AAd?$AAe?$AA?9?$AAD?$AAE@ 0000000180063780     libucrt:lcidtoname_downlevel.obj
 0002:0000b790       ??_C@_1M@OOCKEMAM@?$AAe?$AAl?$AA?9?$AAG?$AAR@ 0000000180063790     libucrt:lcidtoname_downlevel.obj
 0002:0000b7a0       ??_C@_1M@DDNJFGID@?$AAf?$AAi?$AA?9?$AAF?$AAI@ 00000001800637a0     libucrt:lcidtoname_downlevel.obj
 0002:0000b7b0       ??_C@_1M@GLIPPMAC@?$AAf?$AAr?$AA?9?$AAF?$AAR@ 00000001800637b0     libucrt:lcidtoname_downlevel.obj
 0002:0000b7c0       ??_C@_1M@GFMCHPE@?$AAh?$AAe?$AA?9?$AAI?$AAL@ 00000001800637c0     libucrt:lcidtoname_downlevel.obj
 0002:0000b7d0       ??_C@_1M@MHLPGNKM@?$AAh?$AAu?$AA?9?$AAH?$AAU@ 00000001800637d0     libucrt:lcidtoname_downlevel.obj
 0002:0000b7e0       ??_C@_1M@LPDDNNPN@?$AAi?$AAs?$AA?9?$AAI?$AAS@ 00000001800637e0     libucrt:lcidtoname_downlevel.obj
 0002:0000b7f0       ??_C@_1M@MADIPODN@?$AAi?$AAt?$AA?9?$AAI?$AAT@ 00000001800637f0     libucrt:lcidtoname_downlevel.obj
 0002:0000b800       ??_C@_1M@IHBJJGG@?$AAn?$AAl?$AA?9?$AAN?$AAL@ 0000000180063800     libucrt:lcidtoname_downlevel.obj
 0002:0000b810       ??_C@_1M@EANAGDL@?$AAn?$AAb?$AA?9?$AAN?$AAO@ 0000000180063810     libucrt:lcidtoname_downlevel.obj
 0002:0000b820       ??_C@_1M@NEIEMEGP@?$AAp?$AAl?$AA?9?$AAP?$AAL@ 0000000180063820     libucrt:lcidtoname_downlevel.obj
 0002:0000b830       ??_C@_1M@BOCFIGEP@?$AAp?$AAt?$AA?9?$AAB?$AAR@ 0000000180063830     libucrt:lcidtoname_downlevel.obj
 0002:0000b840       ??_C@_1M@IMPFOPBG@?$AAr?$AAo?$AA?9?$AAR?$AAO@ 0000000180063840     libucrt:lcidtoname_downlevel.obj
 0002:0000b850       ??_C@_1M@IDNNEJMM@?$AAr?$AAu?$AA?9?$AAR?$AAU@ 0000000180063850     libucrt:lcidtoname_downlevel.obj
 0002:0000b860       ??_C@_1M@LILEEOGM@?$AAh?$AAr?$AA?9?$AAH?$AAR@ 0000000180063860     libucrt:lcidtoname_downlevel.obj
 0002:0000b870       ??_C@_1M@FKIFEHPB@?$AAs?$AAk?$AA?9?$AAS?$AAK@ 0000000180063870     libucrt:lcidtoname_downlevel.obj
 0002:0000b880       ??_C@_1M@LJMAMNPJ@?$AAs?$AAq?$AA?9?$AAA?$AAL@ 0000000180063880     libucrt:lcidtoname_downlevel.obj
 0002:0000b890       ??_C@_1M@GIAKDKJK@?$AAs?$AAv?$AA?9?$AAS?$AAE@ 0000000180063890     libucrt:lcidtoname_downlevel.obj
 0002:0000b8a0       ??_C@_1M@MKJKIKCL@?$AAt?$AAh?$AA?9?$AAT?$AAH@ 00000001800638a0     libucrt:lcidtoname_downlevel.obj
 0002:0000b8b0       ??_C@_1M@MFLCCMPB@?$AAt?$AAr?$AA?9?$AAT?$AAR@ 00000001800638b0     libucrt:lcidtoname_downlevel.obj
 0002:0000b8c0       ??_C@_1M@OIJHDKJN@?$AAu?$AAr?$AA?9?$AAP?$AAK@ 00000001800638c0     libucrt:lcidtoname_downlevel.obj
 0002:0000b8d0       ??_C@_1M@LHIPCIEK@?$AAi?$AAd?$AA?9?$AAI?$AAD@ 00000001800638d0     libucrt:lcidtoname_downlevel.obj
 0002:0000b8e0       ??_C@_1M@MFMOBGI@?$AAu?$AAk?$AA?9?$AAU?$AAA@ 00000001800638e0     libucrt:lcidtoname_downlevel.obj
 0002:0000b8f0       ??_C@_1M@OBGLJIPL@?$AAb?$AAe?$AA?9?$AAB?$AAY@ 00000001800638f0     libucrt:lcidtoname_downlevel.obj
 0002:0000b900       ??_C@_1M@BCFAJEAD@?$AAs?$AAl?$AA?9?$AAS?$AAI@ 0000000180063900     libucrt:lcidtoname_downlevel.obj
 0002:0000b910       ??_C@_1M@FKFFEDDN@?$AAe?$AAt?$AA?9?$AAE?$AAE@ 0000000180063910     libucrt:lcidtoname_downlevel.obj
 0002:0000b920       ??_C@_1M@KGKKAACI@?$AAl?$AAv?$AA?9?$AAL?$AAV@ 0000000180063920     libucrt:lcidtoname_downlevel.obj
 0002:0000b930       ??_C@_1M@IFGBIJO@?$AAl?$AAt?$AA?9?$AAL?$AAT@ 0000000180063930     libucrt:lcidtoname_downlevel.obj
 0002:0000b940       ??_C@_1M@FGEAHEDM@?$AAf?$AAa?$AA?9?$AAI?$AAR@ 0000000180063940     libucrt:lcidtoname_downlevel.obj
 0002:0000b950       ??_C@_1M@KBMAIBFN@?$AAv?$AAi?$AA?9?$AAV?$AAN@ 0000000180063950     libucrt:lcidtoname_downlevel.obj
 0002:0000b960       ??_C@_1M@GPCBKDJK@?$AAh?$AAy?$AA?9?$AAA?$AAM@ 0000000180063960     libucrt:lcidtoname_downlevel.obj
 0002:0000b970       ??_C@_1BG@BECMDDJB@?$AAa?$AAz?$AA?9?$AAA?$AAZ?$AA?9?$AAL?$AAa?$AAt?$AAn@ 0000000180063970     libucrt:lcidtoname_downlevel.obj
 0002:0000b988       ??_C@_1M@MAOFCAEA@?$AAe?$AAu?$AA?9?$AAE?$AAS@ 0000000180063988     libucrt:lcidtoname_downlevel.obj
 0002:0000b998       ??_C@_1M@IGHABKPI@?$AAm?$AAk?$AA?9?$AAM?$AAK@ 0000000180063998     libucrt:lcidtoname_downlevel.obj
 0002:0000b9a8       ??_C@_1M@IAIGNEJG@?$AAt?$AAn?$AA?9?$AAZ?$AAA@ 00000001800639a8     libucrt:lcidtoname_downlevel.obj
 0002:0000b9b8       ??_C@_1M@IIJCOJFA@?$AAx?$AAh?$AA?9?$AAZ?$AAA@ 00000001800639b8     libucrt:lcidtoname_downlevel.obj
 0002:0000b9c8       ??_C@_1M@LGPJHNJH@?$AAz?$AAu?$AA?9?$AAZ?$AAA@ 00000001800639c8     libucrt:lcidtoname_downlevel.obj
 0002:0000b9d8       ??_C@_1M@HOKAOIO@?$AAa?$AAf?$AA?9?$AAZ?$AAA@ 00000001800639d8     libucrt:lcidtoname_downlevel.obj
 0002:0000b9e8       ??_C@_1M@DPCLHLIE@?$AAk?$AAa?$AA?9?$AAG?$AAE@ 00000001800639e8     libucrt:lcidtoname_downlevel.obj
 0002:0000b9f8       ??_C@_1M@BLKMHJBI@?$AAf?$AAo?$AA?9?$AAF?$AAO@ 00000001800639f8     libucrt:lcidtoname_downlevel.obj
 0002:0000ba08       ??_C@_1M@LGGJAPPB@?$AAh?$AAi?$AA?9?$AAI?$AAN@ 0000000180063a08     libucrt:lcidtoname_downlevel.obj
 0002:0000ba18       ??_C@_1M@FIKPIHFE@?$AAm?$AAt?$AA?9?$AAM?$AAT@ 0000000180063a18     libucrt:lcidtoname_downlevel.obj
 0002:0000ba28       ??_C@_1M@HEGGPBFA@?$AAs?$AAe?$AA?9?$AAN?$AAO@ 0000000180063a28     libucrt:lcidtoname_downlevel.obj
 0002:0000ba38       ??_C@_1M@EIBJEEPA@?$AAm?$AAs?$AA?9?$AAM?$AAY@ 0000000180063a38     libucrt:lcidtoname_downlevel.obj
 0002:0000ba48       ??_C@_1M@FHLBGMPP@?$AAk?$AAk?$AA?9?$AAK?$AAZ@ 0000000180063a48     libucrt:lcidtoname_downlevel.obj
 0002:0000ba58       ??_C@_1M@NGJJLCGI@?$AAk?$AAy?$AA?9?$AAK?$AAG@ 0000000180063a58     libucrt:lcidtoname_downlevel.obj
 0002:0000ba68       ??_C@_1M@GIENNBFC@?$AAs?$AAw?$AA?9?$AAK?$AAE@ 0000000180063a68     libucrt:lcidtoname_downlevel.obj
 0002:0000ba78       ??_C@_1BG@NDGMJIMJ@?$AAu?$AAz?$AA?9?$AAU?$AAZ?$AA?9?$AAL?$AAa?$AAt?$AAn@ 0000000180063a78     libucrt:lcidtoname_downlevel.obj
 0002:0000ba90       ??_C@_1M@IDCCIHBC@?$AAt?$AAt?$AA?9?$AAR?$AAU@ 0000000180063a90     libucrt:lcidtoname_downlevel.obj
 0002:0000baa0       ??_C@_1M@LOICPMOJ@?$AAb?$AAn?$AA?9?$AAI?$AAN@ 0000000180063aa0     libucrt:lcidtoname_downlevel.obj
 0002:0000bab0       ??_C@_1M@KPKKNEAH@?$AAp?$AAa?$AA?9?$AAI?$AAN@ 0000000180063ab0     libucrt:lcidtoname_downlevel.obj
 0002:0000bac0       ??_C@_1M@PJGPPBOG@?$AAg?$AAu?$AA?9?$AAI?$AAN@ 0000000180063ac0     libucrt:lcidtoname_downlevel.obj
 0002:0000bad0       ??_C@_1M@KMKMOPHI@?$AAt?$AAa?$AA?9?$AAI?$AAN@ 0000000180063ad0     libucrt:lcidtoname_downlevel.obj
 0002:0000bae0       ??_C@_1M@KFEHEPAC@?$AAt?$AAe?$AA?9?$AAI?$AAN@ 0000000180063ae0     libucrt:lcidtoname_downlevel.obj
 0002:0000baf0       ??_C@_1M@CDCLMGHI@?$AAk?$AAn?$AA?9?$AAI?$AAN@ 0000000180063af0     libucrt:lcidtoname_downlevel.obj
 0002:0000bb00       ??_C@_1M@MIODLDKF@?$AAm?$AAl?$AA?9?$AAI?$AAN@ 0000000180063b00     libucrt:lcidtoname_downlevel.obj
 0002:0000bb10       ??_C@_1M@PBIEACPO@?$AAm?$AAr?$AA?9?$AAI?$AAN@ 0000000180063b10     libucrt:lcidtoname_downlevel.obj
 0002:0000bb20       ??_C@_1M@NIDEAGPH@?$AAs?$AAa?$AA?9?$AAI?$AAN@ 0000000180063b20     libucrt:lcidtoname_downlevel.obj
 0002:0000bb30       ??_C@_1M@FHIHCBIO@?$AAm?$AAn?$AA?9?$AAM?$AAN@ 0000000180063b30     libucrt:lcidtoname_downlevel.obj
 0002:0000bb40       ??_C@_1M@JAIJPENP@?$AAc?$AAy?$AA?9?$AAG?$AAB@ 0000000180063b40     libucrt:lcidtoname_downlevel.obj
 0002:0000bb50       ??_C@_1M@PHGFBEPN@?$AAg?$AAl?$AA?9?$AAE?$AAS@ 0000000180063b50     libucrt:lcidtoname_downlevel.obj
 0002:0000bb60       ??_C@_1O@KPIPDNCP@?$AAk?$AAo?$AAk?$AA?9?$AAI?$AAN@ 0000000180063b60     libucrt:lcidtoname_downlevel.obj
 0002:0000bb70       ??_C@_1O@KNHJLDJA@?$AAs?$AAy?$AAr?$AA?9?$AAS?$AAY@ 0000000180063b70     libucrt:lcidtoname_downlevel.obj
 0002:0000bb80       ??_C@_1O@MKEKBLAH@?$AAd?$AAi?$AAv?$AA?9?$AAM?$AAV@ 0000000180063b80     libucrt:lcidtoname_downlevel.obj
 0002:0000bb90       ??_C@_1O@OHDCKDDF@?$AAq?$AAu?$AAz?$AA?9?$AAB?$AAO@ 0000000180063b90     libucrt:lcidtoname_downlevel.obj
 0002:0000bba0       ??_C@_1M@LEPJNLFD@?$AAn?$AAs?$AA?9?$AAZ?$AAA@ 0000000180063ba0     libucrt:lcidtoname_downlevel.obj
 0002:0000bbb0       ??_C@_1M@OMLEIIJB@?$AAm?$AAi?$AA?9?$AAN?$AAZ@ 0000000180063bb0     libucrt:lcidtoname_downlevel.obj
 0002:0000bbc0       ??_C@_1M@PMPEAILG@?$AAa?$AAr?$AA?9?$AAI?$AAQ@ 0000000180063bc0     libucrt:lcidtoname_downlevel.obj
 0002:0000bbd0       ??_C@_1M@CNKPNOEE@?$AAd?$AAe?$AA?9?$AAC?$AAH@ 0000000180063bd0     libucrt:lcidtoname_downlevel.obj
 0002:0000bbe0       ??_C@_1M@LKMGMLKO@?$AAe?$AAn?$AA?9?$AAG?$AAB@ 0000000180063be0     libucrt:lcidtoname_downlevel.obj
 0002:0000bbf0       ??_C@_1M@PGKJFFGL@?$AAe?$AAs?$AA?9?$AAM?$AAX@ 0000000180063bf0     libucrt:lcidtoname_downlevel.obj
 0002:0000bc00       ??_C@_1M@DNNANBDC@?$AAf?$AAr?$AA?9?$AAB?$AAE@ 0000000180063c00     libucrt:lcidtoname_downlevel.obj
 0002:0000bc10       ??_C@_1M@HLGMDFHM@?$AAi?$AAt?$AA?9?$AAC?$AAH@ 0000000180063c10     libucrt:lcidtoname_downlevel.obj
 0002:0000bc20       ??_C@_1M@CLLBGJH@?$AAn?$AAl?$AA?9?$AAB?$AAE@ 0000000180063c20     libucrt:lcidtoname_downlevel.obj
 0002:0000bc30       ??_C@_1M@BODBOGLF@?$AAn?$AAn?$AA?9?$AAN?$AAO@ 0000000180063c30     libucrt:lcidtoname_downlevel.obj
 0002:0000bc40       ??_C@_1M@HFFAHKAD@?$AAp?$AAt?$AA?9?$AAP?$AAT@ 0000000180063c40     libucrt:lcidtoname_downlevel.obj
 0002:0000bc50       ??_C@_1BG@LNOAKHIE@?$AAs?$AAr?$AA?9?$AAS?$AAP?$AA?9?$AAL?$AAa?$AAt?$AAn@ 0000000180063c50     libucrt:lcidtoname_downlevel.obj
 0002:0000bc68       ??_C@_1M@HBMHBGAK@?$AAs?$AAv?$AA?9?$AAF?$AAI@ 0000000180063c68     libucrt:lcidtoname_downlevel.obj
 0002:0000bc78       ??_C@_1BG@DGCJGJBE@?$AAa?$AAz?$AA?9?$AAA?$AAZ?$AA?9?$AAC?$AAy?$AAr?$AAl@ 0000000180063c78     libucrt:lcidtoname_downlevel.obj
 0002:0000bc90       ??_C@_1M@KEJDAAHB@?$AAs?$AAe?$AA?9?$AAS?$AAE@ 0000000180063c90     libucrt:lcidtoname_downlevel.obj
 0002:0000bca0       ??_C@_1M@HEIBJJAD@?$AAm?$AAs?$AA?9?$AAB?$AAN@ 0000000180063ca0     libucrt:lcidtoname_downlevel.obj
 0002:0000bcb0       ??_C@_1BG@PBGJMCEM@?$AAu?$AAz?$AA?9?$AAU?$AAZ?$AA?9?$AAC?$AAy?$AAr?$AAl@ 0000000180063cb0     libucrt:lcidtoname_downlevel.obj
 0002:0000bcc8       ??_C@_1O@LAOBCMDF@?$AAq?$AAu?$AAz?$AA?9?$AAE?$AAC@ 0000000180063cc8     libucrt:lcidtoname_downlevel.obj
 0002:0000bcd8       ??_C@_1M@POEEMAIO@?$AAa?$AAr?$AA?9?$AAE?$AAG@ 0000000180063cd8     libucrt:lcidtoname_downlevel.obj
 0002:0000bce8       ??_C@_1M@EFAKDEDL@?$AAz?$AAh?$AA?9?$AAH?$AAK@ 0000000180063ce8     libucrt:lcidtoname_downlevel.obj
 0002:0000bcf8       ??_C@_1M@HKKIJHGI@?$AAd?$AAe?$AA?9?$AAA?$AAT@ 0000000180063cf8     libucrt:lcidtoname_downlevel.obj
 0002:0000bd08       ??_C@_1M@KBFBEHJF@?$AAe?$AAn?$AA?9?$AAA?$AAU@ 0000000180063d08     libucrt:lcidtoname_downlevel.obj
 0002:0000bd18       ??_C@_1M@MNPLFAAH@?$AAe?$AAs?$AA?9?$AAE?$AAS@ 0000000180063d18     libucrt:lcidtoname_downlevel.obj
 0002:0000bd28       ??_C@_1M@HJOOJFMA@?$AAf?$AAr?$AA?9?$AAC?$AAA@ 0000000180063d28     libucrt:lcidtoname_downlevel.obj
 0002:0000bd38       ??_C@_1BG@JPOFPNAB@?$AAs?$AAr?$AA?9?$AAS?$AAP?$AA?9?$AAC?$AAy?$AAr?$AAl@ 0000000180063d38     libucrt:lcidtoname_downlevel.obj
 0002:0000bd50       ??_C@_1M@LNFOCMOB@?$AAs?$AAe?$AA?9?$AAF?$AAI@ 0000000180063d50     libucrt:lcidtoname_downlevel.obj
 0002:0000bd60       ??_C@_1O@MGJBOAMB@?$AAq?$AAu?$AAz?$AA?9?$AAP?$AAE@ 0000000180063d60     libucrt:lcidtoname_downlevel.obj
 0002:0000bd70       ??_C@_1M@GJINLBOK@?$AAa?$AAr?$AA?9?$AAL?$AAY@ 0000000180063d70     libucrt:lcidtoname_downlevel.obj
 0002:0000bd80       ??_C@_1M@GGMNHJNL@?$AAz?$AAh?$AA?9?$AAS?$AAG@ 0000000180063d80     libucrt:lcidtoname_downlevel.obj
 0002:0000bd90       ??_C@_1M@HOIKODND@?$AAd?$AAe?$AA?9?$AAL?$AAU@ 0000000180063d90     libucrt:lcidtoname_downlevel.obj
 0002:0000bda0       ??_C@_1M@DDOCCGFG@?$AAe?$AAn?$AA?9?$AAC?$AAA@ 0000000180063da0     libucrt:lcidtoname_downlevel.obj
 0002:0000bdb0       ??_C@_1M@BNOEMJLF@?$AAe?$AAs?$AA?9?$AAG?$AAT@ 0000000180063db0     libucrt:lcidtoname_downlevel.obj
 0002:0000bdc0       ??_C@_1M@EOGNKEK@?$AAf?$AAr?$AA?9?$AAC?$AAH@ 0000000180063dc0     libucrt:lcidtoname_downlevel.obj
 0002:0000bdd0       ??_C@_1M@FLIDJFHL@?$AAh?$AAr?$AA?9?$AAB?$AAA@ 0000000180063dd0     libucrt:lcidtoname_downlevel.obj
 0002:0000bde0       ??_C@_1O@FMCELNAJ@?$AAs?$AAm?$AAj?$AA?9?$AAN?$AAO@ 0000000180063de0     libucrt:lcidtoname_downlevel.obj
 0002:0000bdf0       ??_C@_1M@JHGLJMGJ@?$AAa?$AAr?$AA?9?$AAD?$AAZ@ 0000000180063df0     libucrt:lcidtoname_downlevel.obj
 0002:0000be00       ??_C@_1M@JKKFDCNP@?$AAz?$AAh?$AA?9?$AAM?$AAO@ 0000000180063e00     libucrt:lcidtoname_downlevel.obj
 0002:0000be10       ??_C@_1M@GEEFALPE@?$AAd?$AAe?$AA?9?$AAL?$AAI@ 0000000180063e10     libucrt:lcidtoname_downlevel.obj
 0002:0000be20       ??_C@_1M@IGEOFBG@?$AAe?$AAn?$AA?9?$AAN?$AAZ@ 0000000180063e20     libucrt:lcidtoname_downlevel.obj
 0002:0000be30       ??_C@_1M@KDBONEHP@?$AAe?$AAs?$AA?9?$AAC?$AAR@ 0000000180063e30     libucrt:lcidtoname_downlevel.obj
 0002:0000be40       ??_C@_1M@FHMDOHNN@?$AAf?$AAr?$AA?9?$AAL?$AAU@ 0000000180063e40     libucrt:lcidtoname_downlevel.obj
 0002:0000be50       ??_C@_1BG@NFKKMAFG@?$AAb?$AAs?$AA?9?$AAB?$AAA?$AA?9?$AAL?$AAa?$AAt?$AAn@ 0000000180063e50     libucrt:lcidtoname_downlevel.obj
 0002:0000be68       ??_C@_1O@IMNBEMCI@?$AAs?$AAm?$AAj?$AA?9?$AAS?$AAE@ 0000000180063e68     libucrt:lcidtoname_downlevel.obj
 0002:0000be78       ??_C@_1M@DHHMBNDP@?$AAa?$AAr?$AA?9?$AAM?$AAA@ 0000000180063e78     libucrt:lcidtoname_downlevel.obj
 0002:0000be88       ??_C@_1M@BNBLJCGH@?$AAe?$AAn?$AA?9?$AAI?$AAE@ 0000000180063e88     libucrt:lcidtoname_downlevel.obj
 0002:0000be98       ??_C@_1M@GEPAFMDL@?$AAe?$AAs?$AA?9?$AAP?$AAA@ 0000000180063e98     libucrt:lcidtoname_downlevel.obj
 0002:0000bea8       ??_C@_1M@OJONDMDL@?$AAf?$AAr?$AA?9?$AAM?$AAC@ 0000000180063ea8     libucrt:lcidtoname_downlevel.obj
 0002:0000beb8       ??_C@_1BG@OBCNFJB@?$AAs?$AAr?$AA?9?$AAB?$AAA?$AA?9?$AAL?$AAa?$AAt?$AAn@ 0000000180063eb8     libucrt:lcidtoname_downlevel.obj
 0002:0000bed0       ??_C@_1O@KEMEEGPO@?$AAs?$AAm?$AAa?$AA?9?$AAN?$AAO@ 0000000180063ed0     libucrt:lcidtoname_downlevel.obj
 0002:0000bee0       ??_C@_1M@ELMGFODK@?$AAa?$AAr?$AA?9?$AAT?$AAN@ 0000000180063ee0     libucrt:lcidtoname_downlevel.obj
 0002:0000bef0       ??_C@_1M@BHDLHFAF@?$AAe?$AAn?$AA?9?$AAZ?$AAA@ 0000000180063ef0     libucrt:lcidtoname_downlevel.obj
 0002:0000bf00       ??_C@_1M@BMGIGLIF@?$AAe?$AAs?$AA?9?$AAD?$AAO@ 0000000180063f00     libucrt:lcidtoname_downlevel.obj
 0002:0000bf10       ??_C@_1BG@CMBHIPBE@?$AAs?$AAr?$AA?9?$AAB?$AAA?$AA?9?$AAC?$AAy?$AAr?$AAl@ 0000000180063f10     libucrt:lcidtoname_downlevel.obj
 0002:0000bf28       ??_C@_1O@HEDBLHNP@?$AAs?$AAm?$AAa?$AA?9?$AAS?$AAE@ 0000000180063f28     libucrt:lcidtoname_downlevel.obj
 0002:0000bf38       ??_C@_1M@DAGCADIM@?$AAa?$AAr?$AA?9?$AAO?$AAM@ 0000000180063f38     libucrt:lcidtoname_downlevel.obj
 0002:0000bf48       ??_C@_1M@FODLMICG@?$AAe?$AAn?$AA?9?$AAJ?$AAM@ 0000000180063f48     libucrt:lcidtoname_downlevel.obj
 0002:0000bf58       ??_C@_1M@DNMLCIHB@?$AAe?$AAs?$AA?9?$AAV?$AAE@ 0000000180063f58     libucrt:lcidtoname_downlevel.obj
 0002:0000bf68       ??_C@_1O@EOKHMKJK@?$AAs?$AAm?$AAs?$AA?9?$AAF?$AAI@ 0000000180063f68     libucrt:lcidtoname_downlevel.obj
 0002:0000bf78       ??_C@_1M@CAFJMKOF@?$AAa?$AAr?$AA?9?$AAY?$AAE@ 0000000180063f78     libucrt:lcidtoname_downlevel.obj
 0002:0000bf88       ??_C@_1M@CBFHIJLI@?$AAe?$AAn?$AA?9?$AAC?$AAB@ 0000000180063f88     libucrt:lcidtoname_downlevel.obj
 0002:0000bf98       ??_C@_1M@BGNFLDN@?$AAe?$AAs?$AA?9?$AAC?$AAO@ 0000000180063f98     libucrt:lcidtoname_downlevel.obj
 0002:0000bfa8       ??_C@_1O@JMPHMAMC@?$AAs?$AAm?$AAn?$AA?9?$AAF?$AAI@ 0000000180063fa8     libucrt:lcidtoname_downlevel.obj
 0002:0000bfb8       ??_C@_1M@JLANABKE@?$AAa?$AAr?$AA?9?$AAS?$AAY@ 0000000180063fb8     libucrt:lcidtoname_downlevel.obj
 0002:0000bfc8       ??_C@_1M@HPKGCFGN@?$AAe?$AAn?$AA?9?$AAB?$AAZ@ 0000000180063fc8     libucrt:lcidtoname_downlevel.obj
 0002:0000bfd8       ??_C@_1M@OLJCMLGM@?$AAe?$AAs?$AA?9?$AAP?$AAE@ 0000000180063fd8     libucrt:lcidtoname_downlevel.obj
 0002:0000bfe8       ??_C@_1M@MKKGFKLE@?$AAa?$AAr?$AA?9?$AAJ?$AAO@ 0000000180063fe8     libucrt:lcidtoname_downlevel.obj
 0002:0000bff8       ??_C@_1M@EKPGLDNI@?$AAe?$AAn?$AA?9?$AAT?$AAT@ 0000000180063ff8     libucrt:lcidtoname_downlevel.obj
 0002:0000c008       ??_C@_1M@OONGHFHE@?$AAe?$AAs?$AA?9?$AAA?$AAR@ 0000000180064008     libucrt:lcidtoname_downlevel.obj
 0002:0000c018       ??_C@_1M@OOJFGBHE@?$AAa?$AAr?$AA?9?$AAL?$AAB@ 0000000180064018     libucrt:lcidtoname_downlevel.obj
 0002:0000c028       ??_C@_1M@GCEJHNEG@?$AAe?$AAn?$AA?9?$AAZ?$AAW@ 0000000180064028     libucrt:lcidtoname_downlevel.obj
 0002:0000c038       ??_C@_1M@JNOCAHJI@?$AAe?$AAs?$AA?9?$AAE?$AAC@ 0000000180064038     libucrt:lcidtoname_downlevel.obj
 0002:0000c048       ??_C@_1M@JEFHPGGB@?$AAa?$AAr?$AA?9?$AAK?$AAW@ 0000000180064048     libucrt:lcidtoname_downlevel.obj
 0002:0000c058       ??_C@_1M@MLKIBJOJ@?$AAe?$AAn?$AA?9?$AAP?$AAH@ 0000000180064058     libucrt:lcidtoname_downlevel.obj
 0002:0000c068       ??_C@_1M@BDNIPEND@?$AAe?$AAs?$AA?9?$AAC?$AAL@ 0000000180064068     libucrt:lcidtoname_downlevel.obj
 0002:0000c078       ??_C@_1M@MPNMEKBD@?$AAa?$AAr?$AA?9?$AAA?$AAE@ 0000000180064078     libucrt:lcidtoname_downlevel.obj
 0002:0000c088       ??_C@_1M@KBJALCPI@?$AAe?$AAs?$AA?9?$AAU?$AAY@ 0000000180064088     libucrt:lcidtoname_downlevel.obj
 0002:0000c098       ??_C@_1M@LLCCOAGA@?$AAa?$AAr?$AA?9?$AAB?$AAH@ 0000000180064098     libucrt:lcidtoname_downlevel.obj
 0002:0000c0a8       ??_C@_1M@PBFNCDEL@?$AAe?$AAs?$AA?9?$AAP?$AAY@ 00000001800640a8     libucrt:lcidtoname_downlevel.obj
 0002:0000c0b8       ??_C@_1M@EDGINPNP@?$AAa?$AAr?$AA?9?$AAQ?$AAA@ 00000001800640b8     libucrt:lcidtoname_downlevel.obj
 0002:0000c0c8       ??_C@_1M@MKDBIIJI@?$AAe?$AAs?$AA?9?$AAB?$AAO@ 00000001800640c8     libucrt:lcidtoname_downlevel.obj
 0002:0000c0d8       ??_C@_1M@CPKKEBLD@?$AAe?$AAs?$AA?9?$AAS?$AAV@ 00000001800640d8     libucrt:lcidtoname_downlevel.obj
 0002:0000c0e8       ??_C@_1M@NDBGMMJL@?$AAe?$AAs?$AA?9?$AAH?$AAN@ 00000001800640e8     libucrt:lcidtoname_downlevel.obj
 0002:0000c0f8       ??_C@_1M@JIJIBHDP@?$AAe?$AAs?$AA?9?$AAN?$AAI@ 00000001800640f8     libucrt:lcidtoname_downlevel.obj
 0002:0000c108       ??_C@_1M@CGFMKEEK@?$AAe?$AAs?$AA?9?$AAP?$AAR@ 0000000180064108     libucrt:lcidtoname_downlevel.obj
 0002:0000c118       ??_C@_1O@ICJHKIIK@?$AAz?$AAh?$AA?9?$AAC?$AAH?$AAT@ 0000000180064118     libucrt:lcidtoname_downlevel.obj
 0002:0000c128       ??_C@_15CLNEJCE@?$AAs?$AAr@ 0000000180064128     libucrt:lcidtoname_downlevel.obj
 0002:0000cf70       ??_C@_1M@KAHEKEIG@?$AAa?$AAf?$AA?9?$AAz?$AAa@ 0000000180064f70     libucrt:lcidtoname_downlevel.obj
 0002:0000cf80       ??_C@_1M@GIECOABL@?$AAa?$AAr?$AA?9?$AAa?$AAe@ 0000000180064f80     libucrt:lcidtoname_downlevel.obj
 0002:0000cf90       ??_C@_1M@BMLMEKGI@?$AAa?$AAr?$AA?9?$AAb?$AAh@ 0000000180064f90     libucrt:lcidtoname_downlevel.obj
 0002:0000cfa0       ??_C@_1M@DAPFDGGB@?$AAa?$AAr?$AA?9?$AAd?$AAz@ 0000000180064fa0     libucrt:lcidtoname_downlevel.obj
 0002:0000cfb0       ??_C@_1M@FJNKGKIG@?$AAa?$AAr?$AA?9?$AAe?$AAg@ 0000000180064fb0     libucrt:lcidtoname_downlevel.obj
 0002:0000cfc0       ??_C@_1M@FLGKKCLO@?$AAa?$AAr?$AA?9?$AAi?$AAq@ 0000000180064fc0     libucrt:lcidtoname_downlevel.obj
 0002:0000cfd0       ??_C@_1M@GNDIPALM@?$AAa?$AAr?$AA?9?$AAj?$AAo@ 0000000180064fd0     libucrt:lcidtoname_downlevel.obj
 0002:0000cfe0       ??_C@_1M@DDMJFMGJ@?$AAa?$AAr?$AA?9?$AAk?$AAw@ 0000000180064fe0     libucrt:lcidtoname_downlevel.obj
 0002:0000cff0       ??_C@_1M@EJALMLHM@?$AAa?$AAr?$AA?9?$AAl?$AAb@ 0000000180064ff0     libucrt:lcidtoname_downlevel.obj
 0002:0000d000       ??_C@_1M@MOBDBLOC@?$AAa?$AAr?$AA?9?$AAl?$AAy@ 0000000180065000     libucrt:lcidtoname_downlevel.obj
 0002:0000d010       ??_C@_1M@JAOCLHDH@?$AAa?$AAr?$AA?9?$AAm?$AAa@ 0000000180065010     libucrt:lcidtoname_downlevel.obj
 0002:0000d020       ??_C@_1M@JHPMKJIE@?$AAa?$AAr?$AA?9?$AAo?$AAm@ 0000000180065020     libucrt:lcidtoname_downlevel.obj
 0002:0000d030       ??_C@_1M@OEPGHFNH@?$AAa?$AAr?$AA?9?$AAq?$AAa@ 0000000180065030     libucrt:lcidtoname_downlevel.obj
 0002:0000d040       ??_C@_1M@KJDONENM@?$AAa?$AAr?$AA?9?$AAs?$AAa@ 0000000180065040     libucrt:lcidtoname_downlevel.obj
 0002:0000d050       ??_C@_1M@DMJDKLKM@?$AAa?$AAr?$AA?9?$AAs?$AAy@ 0000000180065050     libucrt:lcidtoname_downlevel.obj
 0002:0000d060       ??_C@_1M@OMFIPEDC@?$AAa?$AAr?$AA?9?$AAt?$AAn@ 0000000180065060     libucrt:lcidtoname_downlevel.obj
 0002:0000d070       ??_C@_1M@IHMHGAON@?$AAa?$AAr?$AA?9?$AAy?$AAe@ 0000000180065070     libucrt:lcidtoname_downlevel.obj
 0002:0000d080       ??_C@_1BG@KDCPGJGB@?$AAa?$AAz?$AA?9?$AAa?$AAz?$AA?9?$AAc?$AAy?$AAr?$AAl@ 0000000180065080     libucrt:lcidtoname_downlevel.obj
 0002:0000d098       ??_C@_1BG@IBCKDDOE@?$AAa?$AAz?$AA?9?$AAa?$AAz?$AA?9?$AAl?$AAa?$AAt?$AAn@ 0000000180065098     libucrt:lcidtoname_downlevel.obj
 0002:0000d0b0       ??_C@_1M@EGPFDCPD@?$AAb?$AAe?$AA?9?$AAb?$AAy@ 00000001800650b0     libucrt:lcidtoname_downlevel.obj
 0002:0000d0c0       ??_C@_1M@PCMGMCGC@?$AAb?$AAg?$AA?9?$AAb?$AAg@ 00000001800650c0     libucrt:lcidtoname_downlevel.obj
 0002:0000d0d0       ??_C@_1M@BJBMFGOB@?$AAb?$AAn?$AA?9?$AAi?$AAn@ 00000001800650d0     libucrt:lcidtoname_downlevel.obj
 0002:0000d0e0       ??_C@_1BG@EAKMMACD@?$AAb?$AAs?$AA?9?$AAb?$AAa?$AA?9?$AAl?$AAa?$AAt?$AAn@ 00000001800650e0     libucrt:lcidtoname_downlevel.obj
 0002:0000d0f8       ??_C@_1M@KGADAODK@?$AAc?$AAa?$AA?9?$AAe?$AAs@ 00000001800650f8     libucrt:lcidtoname_downlevel.obj
 0002:0000d108       ??_C@_1M@COAJPDHI@?$AAc?$AAs?$AA?9?$AAc?$AAz@ 0000000180065108     libucrt:lcidtoname_downlevel.obj
 0002:0000d118       ??_C@_1M@DHBHFONH@?$AAc?$AAy?$AA?9?$AAg?$AAb@ 0000000180065118     libucrt:lcidtoname_downlevel.obj
 0002:0000d128       ??_C@_1M@IMGKELGA@?$AAd?$AAa?$AA?9?$AAd?$AAk@ 0000000180065128     libucrt:lcidtoname_downlevel.obj
 0002:0000d138       ??_C@_1M@NNDGDNGA@?$AAd?$AAe?$AA?9?$AAa?$AAt@ 0000000180065138     libucrt:lcidtoname_downlevel.obj
 0002:0000d148       ??_C@_1M@IKDBHEEM@?$AAd?$AAe?$AA?9?$AAc?$AAh@ 0000000180065148     libucrt:lcidtoname_downlevel.obj
 0002:0000d158       ??_C@_1M@GFFOJMCJ@?$AAd?$AAe?$AA?9?$AAd?$AAe@ 0000000180065158     libucrt:lcidtoname_downlevel.obj
 0002:0000d168       ??_C@_1M@MDNLKBPM@?$AAd?$AAe?$AA?9?$AAl?$AAi@ 0000000180065168     libucrt:lcidtoname_downlevel.obj
 0002:0000d178       ??_C@_1M@NJBEEJNL@?$AAd?$AAe?$AA?9?$AAl?$AAu@ 0000000180065178     libucrt:lcidtoname_downlevel.obj
 0002:0000d188       ??_C@_1O@GNNELBAP@?$AAd?$AAi?$AAv?$AA?9?$AAm?$AAv@ 0000000180065188     libucrt:lcidtoname_downlevel.obj
 0002:0000d198       ??_C@_1M@EJLEOGAE@?$AAe?$AAl?$AA?9?$AAg?$AAr@ 0000000180065198     libucrt:lcidtoname_downlevel.obj
 0002:0000d1a8       ??_C@_1M@GMPONJN@?$AAe?$AAn?$AA?9?$AAa?$AAu@ 00000001800651a8     libucrt:lcidtoname_downlevel.obj
 0002:0000d1b8       ??_C@_1M@NIDIIPGF@?$AAe?$AAn?$AA?9?$AAb?$AAz@ 00000001800651b8     libucrt:lcidtoname_downlevel.obj
 0002:0000d1c8       ??_C@_1M@JEHMIMFO@?$AAe?$AAn?$AA?9?$AAc?$AAa@ 00000001800651c8     libucrt:lcidtoname_downlevel.obj
 0002:0000d1d8       ??_C@_1M@IGMJCDLA@?$AAe?$AAn?$AA?9?$AAc?$AAb@ 00000001800651d8     libucrt:lcidtoname_downlevel.obj
 0002:0000d1e8       ??_C@_1M@BNFIGBKG@?$AAe?$AAn?$AA?9?$AAg?$AAb@ 00000001800651e8     libucrt:lcidtoname_downlevel.obj
 0002:0000d1f8       ??_C@_1M@LKIFDIGP@?$AAe?$AAn?$AA?9?$AAi?$AAe@ 00000001800651f8     libucrt:lcidtoname_downlevel.obj
 0002:0000d208       ??_C@_1M@PJKFGCCO@?$AAe?$AAn?$AA?9?$AAj?$AAm@ 0000000180065208     libucrt:lcidtoname_downlevel.obj
 0002:0000d218       ??_C@_1M@KPPKEPBO@?$AAe?$AAn?$AA?9?$AAn?$AAz@ 0000000180065218     libucrt:lcidtoname_downlevel.obj
 0002:0000d228       ??_C@_1M@GMDGLDOB@?$AAe?$AAn?$AA?9?$AAp?$AAh@ 0000000180065228     libucrt:lcidtoname_downlevel.obj
 0002:0000d238       ??_C@_1M@ONGIBJNA@?$AAe?$AAn?$AA?9?$AAt?$AAt@ 0000000180065238     libucrt:lcidtoname_downlevel.obj
 0002:0000d248       ??_C@_1M@LLODPCMM@?$AAe?$AAn?$AA?9?$AAu?$AAs@ 0000000180065248     libucrt:lcidtoname_downlevel.obj
 0002:0000d258       ??_C@_1M@LAKFNPAN@?$AAe?$AAn?$AA?9?$AAz?$AAa@ 0000000180065258     libucrt:lcidtoname_downlevel.obj
 0002:0000d268       ??_C@_1M@MFNHNHEO@?$AAe?$AAn?$AA?9?$AAz?$AAw@ 0000000180065268     libucrt:lcidtoname_downlevel.obj
 0002:0000d278       ??_C@_1M@EJEINPHM@?$AAe?$AAs?$AA?9?$AAa?$AAr@ 0000000180065278     libucrt:lcidtoname_downlevel.obj
 0002:0000d288       ??_C@_1M@GNKPCCJA@?$AAe?$AAs?$AA?9?$AAb?$AAo@ 0000000180065288     libucrt:lcidtoname_downlevel.obj
 0002:0000d298       ??_C@_1M@LEEGFONL@?$AAe?$AAs?$AA?9?$AAc?$AAl@ 0000000180065298     libucrt:lcidtoname_downlevel.obj
 0002:0000d2a8       ??_C@_1M@KGPDPBDF@?$AAe?$AAs?$AA?9?$AAc?$AAo@ 00000001800652a8     libucrt:lcidtoname_downlevel.obj
 0002:0000d2b8       ??_C@_1M@EIAHOHH@?$AAe?$AAs?$AA?9?$AAc?$AAr@ 00000001800652b8     libucrt:lcidtoname_downlevel.obj
 0002:0000d2c8       ??_C@_1M@LLPGMBIN@?$AAe?$AAs?$AA?9?$AAd?$AAo@ 00000001800652c8     libucrt:lcidtoname_downlevel.obj
 0002:0000d2d8       ??_C@_1M@DKHMKNJA@?$AAe?$AAs?$AA?9?$AAe?$AAc@ 00000001800652d8     libucrt:lcidtoname_downlevel.obj
 0002:0000d2e8       ??_C@_1M@GKGFPKAP@?$AAe?$AAs?$AA?9?$AAe?$AAs@ 00000001800652e8     libucrt:lcidtoname_downlevel.obj
 0002:0000d2f8       ??_C@_1M@LKHKGDLN@?$AAe?$AAs?$AA?9?$AAg?$AAt@ 00000001800652f8     libucrt:lcidtoname_downlevel.obj
 0002:0000d308       ??_C@_1M@HEIIGGJD@?$AAe?$AAs?$AA?9?$AAh?$AAn@ 0000000180065308     libucrt:lcidtoname_downlevel.obj
 0002:0000d318       ??_C@_1M@FBDHPPGD@?$AAe?$AAs?$AA?9?$AAm?$AAx@ 0000000180065318     libucrt:lcidtoname_downlevel.obj
 0002:0000d328       ??_C@_1M@DPAGLNDH@?$AAe?$AAs?$AA?9?$AAn?$AAi@ 0000000180065328     libucrt:lcidtoname_downlevel.obj
 0002:0000d338       ??_C@_1M@MDGOPGDD@?$AAe?$AAs?$AA?9?$AAp?$AAa@ 0000000180065338     libucrt:lcidtoname_downlevel.obj
 0002:0000d348       ??_C@_1M@EMAMGBGE@?$AAe?$AAs?$AA?9?$AAp?$AAe@ 0000000180065348     libucrt:lcidtoname_downlevel.obj
 0002:0000d358       ??_C@_1M@IBMCAOEC@?$AAe?$AAs?$AA?9?$AAp?$AAr@ 0000000180065358     libucrt:lcidtoname_downlevel.obj
 0002:0000d368       ??_C@_1M@FGMDIJED@?$AAe?$AAs?$AA?9?$AAp?$AAy@ 0000000180065368     libucrt:lcidtoname_downlevel.obj
 0002:0000d378       ??_C@_1M@IIDEOLLL@?$AAe?$AAs?$AA?9?$AAs?$AAv@ 0000000180065378     libucrt:lcidtoname_downlevel.obj
 0002:0000d388       ??_C@_1M@GAOBIPA@?$AAe?$AAs?$AA?9?$AAu?$AAy@ 0000000180065388     libucrt:lcidtoname_downlevel.obj
 0002:0000d398       ??_C@_1M@JKFFICHJ@?$AAe?$AAs?$AA?9?$AAv?$AAe@ 0000000180065398     libucrt:lcidtoname_downlevel.obj
 0002:0000d3a8       ??_C@_1M@PNMLOJDF@?$AAe?$AAt?$AA?9?$AAe?$AAe@ 00000001800653a8     libucrt:lcidtoname_downlevel.obj
 0002:0000d3b8       ??_C@_1M@GHHLIKEI@?$AAe?$AAu?$AA?9?$AAe?$AAs@ 00000001800653b8     libucrt:lcidtoname_downlevel.obj
 0002:0000d3c8       ??_C@_1M@PBNONODE@?$AAf?$AAa?$AA?9?$AAi?$AAr@ 00000001800653c8     libucrt:lcidtoname_downlevel.obj
 0002:0000d3d8       ??_C@_1M@JEEHPMIL@?$AAf?$AAi?$AA?9?$AAf?$AAi@ 00000001800653d8     libucrt:lcidtoname_downlevel.obj
 0002:0000d3e8       ??_C@_1M@LMDCNDBA@?$AAf?$AAo?$AA?9?$AAf?$AAo@ 00000001800653e8     libucrt:lcidtoname_downlevel.obj
 0002:0000d3f8       ??_C@_1M@JKEOHLDK@?$AAf?$AAr?$AA?9?$AAb?$AAe@ 00000001800653f8     libucrt:lcidtoname_downlevel.obj
 0002:0000d408       ??_C@_1M@NOHADPMI@?$AAf?$AAr?$AA?9?$AAc?$AAa@ 0000000180065408     libucrt:lcidtoname_downlevel.obj
 0002:0000d418       ??_C@_1M@KDHIHAEC@?$AAf?$AAr?$AA?9?$AAc?$AAh@ 0000000180065418     libucrt:lcidtoname_downlevel.obj
 0002:0000d428       ??_C@_1M@MMBBFGAK@?$AAf?$AAr?$AA?9?$AAf?$AAr@ 0000000180065428     libucrt:lcidtoname_downlevel.obj
 0002:0000d438       ??_C@_1M@PAFNENNF@?$AAf?$AAr?$AA?9?$AAl?$AAu@ 0000000180065438     libucrt:lcidtoname_downlevel.obj
 0002:0000d448       ??_C@_1M@EOHDJGDD@?$AAf?$AAr?$AA?9?$AAm?$AAc@ 0000000180065448     libucrt:lcidtoname_downlevel.obj
 0002:0000d458       ??_C@_1M@FAPLLOPF@?$AAg?$AAl?$AA?9?$AAe?$AAs@ 0000000180065458     libucrt:lcidtoname_downlevel.obj
 0002:0000d468       ??_C@_1M@FOPBFLOO@?$AAg?$AAu?$AA?9?$AAi?$AAn@ 0000000180065468     libucrt:lcidtoname_downlevel.obj
 0002:0000d478       ??_C@_1M@KBMCINPM@?$AAh?$AAe?$AA?9?$AAi?$AAl@ 0000000180065478     libucrt:lcidtoname_downlevel.obj
 0002:0000d488       ??_C@_1M@BBPHKFPJ@?$AAh?$AAi?$AA?9?$AAi?$AAn@ 0000000180065488     libucrt:lcidtoname_downlevel.obj
 0002:0000d498       ??_C@_1M@PMBNDPHD@?$AAh?$AAr?$AA?9?$AAb?$AAa@ 0000000180065498     libucrt:lcidtoname_downlevel.obj
 0002:0000d4a8       ??_C@_1M@BPCKOEGE@?$AAh?$AAr?$AA?9?$AAh?$AAr@ 00000001800654a8     libucrt:lcidtoname_downlevel.obj
 0002:0000d4b8       ??_C@_1M@GACBMHKE@?$AAh?$AAu?$AA?9?$AAh?$AAu@ 00000001800654b8     libucrt:lcidtoname_downlevel.obj
 0002:0000d4c8       ??_C@_1M@MILPAJJC@?$AAh?$AAy?$AA?9?$AAa?$AAm@ 00000001800654c8     libucrt:lcidtoname_downlevel.obj
 0002:0000d4d8       ??_C@_1M@BABBICEC@?$AAi?$AAd?$AA?9?$AAi?$AAd@ 00000001800654d8     libucrt:lcidtoname_downlevel.obj
 0002:0000d4e8       ??_C@_1M@BIKNHHPF@?$AAi?$AAs?$AA?9?$AAi?$AAs@ 00000001800654e8     libucrt:lcidtoname_downlevel.obj
 0002:0000d4f8       ??_C@_1M@NMPCJPHE@?$AAi?$AAt?$AA?9?$AAc?$AAh@ 00000001800654f8     libucrt:lcidtoname_downlevel.obj
 0002:0000d508       ??_C@_1M@GHKGFEDF@?$AAi?$AAt?$AA?9?$AAi?$AAt@ 0000000180065508     libucrt:lcidtoname_downlevel.obj
 0002:0000d518       ??_C@_1M@NIEJCJJA@?$AAj?$AAa?$AA?9?$AAj?$AAp@ 0000000180065518     libucrt:lcidtoname_downlevel.obj
 0002:0000d528       ??_C@_1M@JILFNBIM@?$AAk?$AAa?$AA?9?$AAg?$AAe@ 0000000180065528     libucrt:lcidtoname_downlevel.obj
 0002:0000d538       ??_C@_1M@PACPMGPH@?$AAk?$AAk?$AA?9?$AAk?$AAz@ 0000000180065538     libucrt:lcidtoname_downlevel.obj
 0002:0000d548       ??_C@_1M@IELFGMHA@?$AAk?$AAn?$AA?9?$AAi?$AAn@ 0000000180065548     libucrt:lcidtoname_downlevel.obj
 0002:0000d558       ??_C@_1O@IBBJHCH@?$AAk?$AAo?$AAk?$AA?9?$AAi?$AAn@ 0000000180065558     libucrt:lcidtoname_downlevel.obj
 0002:0000d568       ??_C@_1M@DMHAEOGC@?$AAk?$AAo?$AA?9?$AAk?$AAr@ 0000000180065568     libucrt:lcidtoname_downlevel.obj
 0002:0000d578       ??_C@_1M@HBAHBIGA@?$AAk?$AAy?$AA?9?$AAk?$AAg@ 0000000180065578     libucrt:lcidtoname_downlevel.obj
 0002:0000d588       ??_C@_1M@KPMILCJG@?$AAl?$AAt?$AA?9?$AAl?$AAt@ 0000000180065588     libucrt:lcidtoname_downlevel.obj
 0002:0000d598       ??_C@_1M@BDEKKCA@?$AAl?$AAv?$AA?9?$AAl?$AAv@ 0000000180065598     libucrt:lcidtoname_downlevel.obj
 0002:0000d5a8       ??_C@_1M@ELCKCCJJ@?$AAm?$AAi?$AA?9?$AAn?$AAz@ 00000001800655a8     libucrt:lcidtoname_downlevel.obj
 0002:0000d5b8       ??_C@_1M@CBOOLAPA@?$AAm?$AAk?$AA?9?$AAm?$AAk@ 00000001800655b8     libucrt:lcidtoname_downlevel.obj
 0002:0000d5c8       ??_C@_1M@GPHNBJKN@?$AAm?$AAl?$AA?9?$AAi?$AAn@ 00000001800655c8     libucrt:lcidtoname_downlevel.obj
 0002:0000d5d8       ??_C@_1M@PABJILIG@?$AAm?$AAn?$AA?9?$AAm?$AAn@ 00000001800655d8     libucrt:lcidtoname_downlevel.obj
 0002:0000d5e8       ??_C@_1M@FGBKKIPG@?$AAm?$AAr?$AA?9?$AAi?$AAn@ 00000001800655e8     libucrt:lcidtoname_downlevel.obj
 0002:0000d5f8       ??_C@_1M@NDBPDDAL@?$AAm?$AAs?$AA?9?$AAb?$AAn@ 00000001800655f8     libucrt:lcidtoname_downlevel.obj
 0002:0000d608       ??_C@_1M@OPIHOOPI@?$AAm?$AAs?$AA?9?$AAm?$AAy@ 0000000180065608     libucrt:lcidtoname_downlevel.obj
 0002:0000d618       ??_C@_1M@PPDBCNFM@?$AAm?$AAt?$AA?9?$AAm?$AAt@ 0000000180065618     libucrt:lcidtoname_downlevel.obj
 0002:0000d628       ??_C@_1M@KDJDKMDD@?$AAn?$AAb?$AA?9?$AAn?$AAo@ 0000000180065628     libucrt:lcidtoname_downlevel.obj
 0002:0000d638       ??_C@_1M@KFCFLMJP@?$AAn?$AAl?$AA?9?$AAb?$AAe@ 0000000180065638     libucrt:lcidtoname_downlevel.obj
 0002:0000d648       ??_C@_1M@KPOPDDGO@?$AAn?$AAl?$AA?9?$AAn?$AAl@ 0000000180065648     libucrt:lcidtoname_downlevel.obj
 0002:0000d658       ??_C@_1M@LJKPEMLN@?$AAn?$AAn?$AA?9?$AAn?$AAo@ 0000000180065658     libucrt:lcidtoname_downlevel.obj
 0002:0000d668       ??_C@_1M@BDGHHBFL@?$AAn?$AAs?$AA?9?$AAz?$AAa@ 0000000180065668     libucrt:lcidtoname_downlevel.obj
 0002:0000d678       ??_C@_1M@IDEHOAP@?$AAp?$AAa?$AA?9?$AAi?$AAn@ 0000000180065678     libucrt:lcidtoname_downlevel.obj
 0002:0000d688       ??_C@_1M@HDBKGOGH@?$AAp?$AAl?$AA?9?$AAp?$AAl@ 0000000180065688     libucrt:lcidtoname_downlevel.obj
 0002:0000d698       ??_C@_1M@LJLLCMEH@?$AAp?$AAt?$AA?9?$AAb?$AAr@ 0000000180065698     libucrt:lcidtoname_downlevel.obj
 0002:0000d6a8       ??_C@_1M@NCMONAAL@?$AAp?$AAt?$AA?9?$AAp?$AAt@ 00000001800656a8     libucrt:lcidtoname_downlevel.obj
 0002:0000d6b8       ??_C@_1O@EAKMAJDN@?$AAq?$AAu?$AAz?$AA?9?$AAb?$AAo@ 00000001800656b8     libucrt:lcidtoname_downlevel.obj
 0002:0000d6c8       ??_C@_1O@BHHPIGDN@?$AAq?$AAu?$AAz?$AA?9?$AAe?$AAc@ 00000001800656c8     libucrt:lcidtoname_downlevel.obj
 0002:0000d6d8       ??_C@_1O@GBAPEKMJ@?$AAq?$AAu?$AAz?$AA?9?$AAp?$AAe@ 00000001800656d8     libucrt:lcidtoname_downlevel.obj
 0002:0000d6e8       ??_C@_1M@CLGLEFBO@?$AAr?$AAo?$AA?9?$AAr?$AAo@ 00000001800656e8     libucrt:lcidtoname_downlevel.obj
 0002:0000d6f8       ??_C@_1M@CEEDODME@?$AAr?$AAu?$AA?9?$AAr?$AAu@ 00000001800656f8     libucrt:lcidtoname_downlevel.obj
 0002:0000d708       ??_C@_1M@HPKKKMPP@?$AAs?$AAa?$AA?9?$AAi?$AAn@ 0000000180065708     libucrt:lcidtoname_downlevel.obj
 0002:0000d718       ??_C@_1M@BKMAIGOJ@?$AAs?$AAe?$AA?9?$AAf?$AAi@ 0000000180065718     libucrt:lcidtoname_downlevel.obj
 0002:0000d728       ??_C@_1M@NDPIFLFI@?$AAs?$AAe?$AA?9?$AAn?$AAo@ 0000000180065728     libucrt:lcidtoname_downlevel.obj
 0002:0000d738       ??_C@_1M@DANKKHJ@?$AAs?$AAe?$AA?9?$AAs?$AAe@ 0000000180065738     libucrt:lcidtoname_downlevel.obj
 0002:0000d748       ??_C@_1M@PNBLONPJ@?$AAs?$AAk?$AA?9?$AAs?$AAk@ 0000000180065748     libucrt:lcidtoname_downlevel.obj
 0002:0000d758       ??_C@_1M@LFMODOAL@?$AAs?$AAl?$AA?9?$AAs?$AAi@ 0000000180065758     libucrt:lcidtoname_downlevel.obj
 0002:0000d768       ??_C@_1O@DFKOMPG@?$AAs?$AAm?$AAa?$AA?9?$AAn?$AAo@ 0000000180065768     libucrt:lcidtoname_downlevel.obj
 0002:0000d778       ??_C@_1O@NDKPBNNH@?$AAs?$AAm?$AAa?$AA?9?$AAs?$AAe@ 0000000180065778     libucrt:lcidtoname_downlevel.obj
 0002:0000d788       ??_C@_1O@PLLKBHAB@?$AAs?$AAm?$AAj?$AA?9?$AAn?$AAo@ 0000000180065788     libucrt:lcidtoname_downlevel.obj
 0002:0000d798       ??_C@_1O@CLEPOGCA@?$AAs?$AAm?$AAj?$AA?9?$AAs?$AAe@ 0000000180065798     libucrt:lcidtoname_downlevel.obj
 0002:0000d7a8       ??_C@_1O@DLGJGKMK@?$AAs?$AAm?$AAn?$AA?9?$AAf?$AAi@ 00000001800657a8     libucrt:lcidtoname_downlevel.obj
 0002:0000d7b8       ??_C@_1O@OJDJGAJC@?$AAs?$AAm?$AAs?$AA?9?$AAf?$AAi@ 00000001800657b8     libucrt:lcidtoname_downlevel.obj
 0002:0000d7c8       ??_C@_1M@BOFOGHPB@?$AAs?$AAq?$AA?9?$AAa?$AAl@ 00000001800657c8     libucrt:lcidtoname_downlevel.obj
 0002:0000d7d8       ??_C@_1BG@LJBBIPGB@?$AAs?$AAr?$AA?9?$AAb?$AAa?$AA?9?$AAc?$AAy?$AAr?$AAl@ 00000001800657d8     libucrt:lcidtoname_downlevel.obj
 0002:0000d7f0       ??_C@_1BG@JLBENFOE@?$AAs?$AAr?$AA?9?$AAb?$AAa?$AA?9?$AAl?$AAa?$AAt?$AAn@ 00000001800657f0     libucrt:lcidtoname_downlevel.obj
 0002:0000d808       ??_C@_1BG@KODPNHE@?$AAs?$AAr?$AA?9?$AAs?$AAp?$AA?9?$AAc?$AAy?$AAr?$AAl@ 0000000180065808     libucrt:lcidtoname_downlevel.obj
 0002:0000d820       ??_C@_1BG@CIOGKHPB@?$AAs?$AAr?$AA?9?$AAs?$AAp?$AA?9?$AAl?$AAa?$AAt?$AAn@ 0000000180065820     libucrt:lcidtoname_downlevel.obj
 0002:0000d838       ??_C@_1M@NGFJLMAC@?$AAs?$AAv?$AA?9?$AAf?$AAi@ 0000000180065838     libucrt:lcidtoname_downlevel.obj
 0002:0000d848       ??_C@_1M@MPJEJAJC@?$AAs?$AAv?$AA?9?$AAs?$AAe@ 0000000180065848     libucrt:lcidtoname_downlevel.obj
 0002:0000d858       ??_C@_1M@MPNDHLFK@?$AAs?$AAw?$AA?9?$AAk?$AAe@ 0000000180065858     libucrt:lcidtoname_downlevel.obj
 0002:0000d868       ??_C@_1O@KOHBJJI@?$AAs?$AAy?$AAr?$AA?9?$AAs?$AAy@ 0000000180065868     libucrt:lcidtoname_downlevel.obj
 0002:0000d878       ??_C@_1M@LDCEFHA@?$AAt?$AAa?$AA?9?$AAi?$AAn@ 0000000180065878     libucrt:lcidtoname_downlevel.obj
 0002:0000d888       ??_C@_1M@CNJOFAK@?$AAt?$AAe?$AA?9?$AAi?$AAn@ 0000000180065888     libucrt:lcidtoname_downlevel.obj
 0002:0000d898       ??_C@_1M@GNAECACD@?$AAt?$AAh?$AA?9?$AAt?$AAh@ 0000000180065898     libucrt:lcidtoname_downlevel.obj
 0002:0000d8a8       ??_C@_1M@CHBIHOJO@?$AAt?$AAn?$AA?9?$AAz?$AAa@ 00000001800658a8     libucrt:lcidtoname_downlevel.obj
 0002:0000d8b8       ??_C@_1M@GCCMIGPJ@?$AAt?$AAr?$AA?9?$AAt?$AAr@ 00000001800658b8     libucrt:lcidtoname_downlevel.obj
 0002:0000d8c8       ??_C@_1M@CELMCNBK@?$AAt?$AAt?$AA?9?$AAr?$AAu@ 00000001800658c8     libucrt:lcidtoname_downlevel.obj
 0002:0000d8d8       ??_C@_1M@KLMCELGA@?$AAu?$AAk?$AA?9?$AAu?$AAa@ 00000001800658d8     libucrt:lcidtoname_downlevel.obj
 0002:0000d8e8       ??_C@_1M@EPAJJAJF@?$AAu?$AAr?$AA?9?$AAp?$AAk@ 00000001800658e8     libucrt:lcidtoname_downlevel.obj
 0002:0000d8f8       ??_C@_1BG@GEGPMCDJ@?$AAu?$AAz?$AA?9?$AAu?$AAz?$AA?9?$AAc?$AAy?$AAr?$AAl@ 00000001800658f8     libucrt:lcidtoname_downlevel.obj
 0002:0000d910       ??_C@_1BG@EGGKJILM@?$AAu?$AAz?$AA?9?$AAu?$AAz?$AA?9?$AAl?$AAa?$AAt?$AAn@ 0000000180065910     libucrt:lcidtoname_downlevel.obj
 0002:0000d928       ??_C@_1M@GFOCLFF@?$AAv?$AAi?$AA?9?$AAv?$AAn@ 0000000180065928     libucrt:lcidtoname_downlevel.obj
 0002:0000d938       ??_C@_1M@CPAMEDFI@?$AAx?$AAh?$AA?9?$AAz?$AAa@ 0000000180065938     libucrt:lcidtoname_downlevel.obj
 0002:0000d948       ??_C@_1O@EBKIFIGN@?$AAz?$AAh?$AA?9?$AAc?$AAh?$AAs@ 0000000180065948     libucrt:lcidtoname_downlevel.obj
 0002:0000d958       ??_C@_1O@NMHPGANE@?$AAz?$AAh?$AA?9?$AAc?$AAh?$AAt@ 0000000180065958     libucrt:lcidtoname_downlevel.obj
 0002:0000d968       ??_C@_1M@LPINJOMC@?$AAz?$AAh?$AA?9?$AAc?$AAn@ 0000000180065968     libucrt:lcidtoname_downlevel.obj
 0002:0000d978       ??_C@_1M@OCJEJODD@?$AAz?$AAh?$AA?9?$AAh?$AAk@ 0000000180065978     libucrt:lcidtoname_downlevel.obj
 0002:0000d988       ??_C@_1M@DNDLJINH@?$AAz?$AAh?$AA?9?$AAm?$AAo@ 0000000180065988     libucrt:lcidtoname_downlevel.obj
 0002:0000d998       ??_C@_1M@MBFDNDND@?$AAz?$AAh?$AA?9?$AAs?$AAg@ 0000000180065998     libucrt:lcidtoname_downlevel.obj
 0002:0000d9a8       ??_C@_1M@IMEPLEPE@?$AAz?$AAh?$AA?9?$AAt?$AAw@ 00000001800659a8     libucrt:lcidtoname_downlevel.obj
 0002:0000d9b8       ??_C@_1M@BBGHNHJP@?$AAz?$AAu?$AA?9?$AAz?$AAa@ 00000001800659b8     libucrt:lcidtoname_downlevel.obj
 0002:0000d9c4       ??_C@_01GBGANLPD@0@        00000001800659c4     libucrt:cfout.obj
 0002:0000d9c8       ??_C@_05DNEBIAHO@1?$CDINF@ 00000001800659c8     libucrt:cfout.obj
 0002:0000d9d0       ??_C@_06IMKFLFPG@1?$CDQNAN@ 00000001800659d0     libucrt:cfout.obj
 0002:0000d9d8       ??_C@_06PGGFOGJG@1?$CDSNAN@ 00000001800659d8     libucrt:cfout.obj
 0002:0000d9e0       ??_C@_05PHHOCPM@1?$CDIND@  00000001800659e0     libucrt:cfout.obj
 0002:0000dc50       ??_C@_1BA@BALFACEM@?$AAC?$AAO?$AAN?$AAO?$AAU?$AAT?$AA$@ 0000000180065c50     libucrt:initcon.obj
 0002:0000dc60       __log10_256_lead           0000000180065c60     libucrt:log10_256_lead_tail_table.obj
 0002:0000e470       __log10_256_tail           0000000180066470     libucrt:log10_256_lead_tail_table.obj
 0002:0000ec78       ??_C@_1BK@DBDEIDLH@?$AAK?$AAE?$AAR?$AAN?$AAE?$AAL?$AA3?$AA2?$AA?4?$AAD?$AAL?$AAL@ 0000000180066c78     DelayImp:delayhlp.obj
 0002:0000ec98       ??_C@_0BI@OMNLIJDB@AcquireSRWLockExclusive@ 0000000180066c98     DelayImp:delayhlp.obj
 0002:0000ecb0       ??_C@_0BI@HMIEPCNJ@ReleaseSRWLockExclusive@ 0000000180066cb0     DelayImp:delayhlp.obj
 0002:0000ecc8       __pfnDliFailureHook2       0000000180066cc8     DelayImp:delayhk1.obj
 0002:0000ecd0       _load_config_used          0000000180066cd0     LIBCMT:loadcfg.obj
 0002:0000ee08       ??_C@_0BC@BDKFLDHL@unknown?5exception@ 0000000180066e08     Backend.obj
 0002:0000ee20       ??_C@_0BF@KINCDENJ@bad?5array?5new?5length@ 0000000180066e20     Backend.obj
 0002:0000ee38       ??_C@_07CIFAGBMG@unknown@  0000000180066e38     Backend.obj
 0002:0000ee40       ??_C@_0BA@JFNIOLAK@string?5too?5long@ 0000000180066e40     Backend.obj
 0002:0000ee50       ??_C@_1CO@EGNPJLKI@?$AAp?$AAe?$AAr?$AAs?$AAi?$AAs?$AAt?$AAe?$AAn?$AAt?$AA?$CI?$AA?$CJ?$AA?4?$AAI?$AAs@ 0000000180066e50     Backend.obj
 0002:0000ee80       ??_C@_1DA@FBGAEOIO@?$AA?$CB?$AAp?$AAe?$AAr?$AAs?$AAi?$AAs?$AAt?$AAe?$AAn?$AAt?$AA?$CI?$AA?$CJ?$AA?4?$AAI@ 0000000180066e80     Backend.obj
 0002:0000eeb0       ??_C@_1CO@JCKLEFMA@?$AA?$CB?$AAp?$AAe?$AAr?$AAs?$AAi?$AAs?$AAt?$AAe?$AAn?$AAt?$AA?$CI?$AA?$CJ?$AA?4?$AAI@ 0000000180066eb0     Backend.obj
 0002:0000eee0       ??_C@_1BE@GMLLOIPJ@?$AAr?$AAe?$AAf?$AAs?$AA_?$AA?5?$AA?$DO?$AA?5?$AA0@ 0000000180066ee0     Backend.obj
 0002:0000eef8       ??_C@_1CC@GBFLAAPF@?$AAw?$AAr?$AAa?$AAp?$AA?9?$AA?$DO?$AAr?$AAe?$AAf?$AAs?$AA_?$AA?5?$AA?$DN?$AA?$DN?$AA?5@ 0000000180066ef8     Backend.obj
 0002:0000ef20       ??_C@_1IA@CCIFDHFH@?$AAD?$AA?3?$AA?2?$AAa?$AA?2?$AAn?$AAo?$AAd?$AAe?$AA?9?$AAc?$AAa?$AAn?$AAv?$AAa@ 0000000180066f20     Backend.obj
 0002:0000efa0       ??_C@_1EC@MGGLMBLC@?$AAo?$AAb?$AAj?$AAe?$AAc?$AAt?$AA?9?$AA?$DO?$AAI?$AAn?$AAt?$AAe?$AAr?$AAn?$AAa@ 0000000180066fa0     Backend.obj
 0002:0000efe8       ??_7Backend@@6B@           0000000180066fe8     Backend.obj
 0002:0000f030       ??_7exception@stdext@@6B@  0000000180067030     Backend.obj
 0002:0000f048       ??_7ObjectWrap@Nan@@6B@    0000000180067048     Backend.obj
 0002:0000f060       ??_7bad_array_new_length@stdext@@6B@ 0000000180067060     Backend.obj
 0002:0000f078       ??_C@_05NGOMGBBD@image@    0000000180067078     ImageBackend.obj
 0002:0000f080       ??_C@_1HC@GFEOMEAF@?$AAD?$AA?3?$AA?2?$AAa?$AA?2?$AAn?$AAo?$AAd?$AAe?$AA?9?$AAc?$AAa?$AAn?$AAv?$AAa@ 0000000180067080     ImageBackend.obj
 0002:0000f0f8       ??_C@_1BC@DIMDFFBM@?$AA?$CB?$AAs?$AAu?$AAr?$AAf?$AAa?$AAc?$AAe@ 00000001800670f8     ImageBackend.obj
 0002:0000f110       ??_C@_1BA@BHHNPNF@?$AAs?$AAu?$AAr?$AAf?$AAa?$AAc?$AAe@ 0000000180067110     ImageBackend.obj
 0002:0000f120       ??_C@_0N@KBCACLBD@ImageBackend@ 0000000180067120     ImageBackend.obj
 0002:0000f130       ??_7ImageBackend@@6B@      0000000180067130     ImageBackend.obj
 0002:0000f178       ??_C@_03MJPNCPKC@pdf@      0000000180067178     PdfBackend.obj
 0002:0000f180       ??_C@_0L@HCGIDJMC@PdfBackend@ 0000000180067180     PdfBackend.obj
 0002:0000f190       ??_C@_0BA@FOIKENOD@vector?5too?5long@ 0000000180067190     PdfBackend.obj
 0002:0000f1a0       ??_7PdfBackend@@6B@        00000001800671a0     PdfBackend.obj
 0002:0000f1e8       ??_C@_03NNPBMGBD@svg@      00000001800671e8     SvgBackend.obj
 0002:0000f1f0       ??_C@_1GO@EKGNLMIA@?$AAD?$AA?3?$AA?2?$AAa?$AA?2?$AAn?$AAo?$AAd?$AAe?$AA?9?$AAc?$AAa?$AAn?$AAv?$AAa@ 00000001800671f0     SvgBackend.obj
 0002:0000f260       ??_C@_1BE@LCFLFJLD@?$AA?$CB?$AA_?$AAc?$AAl?$AAo?$AAs?$AAu?$AAr?$AAe@ 0000000180067260     SvgBackend.obj
 0002:0000f278       ??_C@_0L@NPKKBKFF@SvgBackend@ 0000000180067278     SvgBackend.obj
 0002:0000f288       ??_7SvgBackend@@6B@        0000000180067288     SvgBackend.obj
 0002:0000f2d0       ??_C@_1GE@FJOIPOPI@?$AAD?$AA?3?$AA?2?$AAa?$AA?2?$AAn?$AAo?$AAd?$AAe?$AA?9?$AAc?$AAa?$AAn?$AAv?$AAa@ 00000001800672d0     BMPParser.obj
 0002:0000f338       ??_C@_1DA@GJKBCAIL@?$AAs?$AAt?$AAa?$AAt?$AAu?$AAs?$AA?5?$AA?$DN?$AA?$DN?$AA?5?$AAS?$AAt?$AAa?$AAt?$AAu@ 0000000180067338     BMPParser.obj
 0002:0000f368       ??_C@_0M@OPOGKKPL@file?5header@ 0000000180067368     BMPParser.obj
 0002:0000f378       ??_C@_0BG@JPBAHECP@file?5header?5signature@ 0000000180067378     BMPParser.obj
 0002:0000f390       ??_C@_02JKMCABAH@BA@       0000000180067390     BMPParser.obj
 0002:0000f394       ??_C@_05BFGHBGGP@?5?$CCBA?$CC@ 0000000180067394     BMPParser.obj
 0002:0000f39c       ??_C@_02FDNJOBDI@CI@       000000018006739c     BMPParser.obj
 0002:0000f3a0       ??_C@_05KDMICALC@?5?$CCCI?$CC@ 00000001800673a0     BMPParser.obj
 0002:0000f3a8       ??_C@_02MINJEICA@CP@       00000001800673a8     BMPParser.obj
 0002:0000f3ac       ??_C@_05LADPLIEN@?5?$CCCP?$CC@ 00000001800673ac     BMPParser.obj
 0002:0000f3b4       ??_C@_02KEKBIMGE@IC@       00000001800673b4     BMPParser.obj
 0002:0000f3b8       ??_C@_05MBOCEFAA@?5?$CCIC?$CC@ 00000001800673b8     BMPParser.obj
 0002:0000f3c0       ??_C@_02LCNFJAAN@PT@       00000001800673c0     BMPParser.obj
 0002:0000f3c4       ??_C@_05PFJKOIOA@?5?$CCPT?$CC@ 00000001800673c4     BMPParser.obj
 0002:0000f3cc       ??_C@_02DGHHEOAL@BM@       00000001800673cc     BMPParser.obj
 0002:0000f3d0       ??_C@_0BH@PGODKMKI@inconsistent?5file?5size@ 00000001800673d0     BMPParser.obj
 0002:0000f3e8       ??_C@_0L@DKDHPBLO@DIB?5header@ 00000001800673e8     BMPParser.obj
 0002:0000f3f8       ??_C@_0BF@JGAMBPJ@?5?$CCOS22XBITMAPHEADER?$CC@ 00000001800673f8     BMPParser.obj
 0002:0000f410       ??_C@_0BB@GLFIFBPJ@image?5width?5is?50@ 0000000180067410     BMPParser.obj
 0002:0000f428       ??_C@_0BF@PICPCPNH@negative?5image?5width@ 0000000180067428     BMPParser.obj
 0002:0000f440       ??_C@_0BG@DIENJMKE@too?5large?5image?5width@ 0000000180067440     BMPParser.obj
 0002:0000f458       ??_C@_0BC@BPGKCLEL@image?5height?5is?50@ 0000000180067458     BMPParser.obj
 0002:0000f470       ??_C@_0BH@MGLIIGAD@too?5large?5image?5height@ 0000000180067470     BMPParser.obj
 0002:0000f488       ??_C@_0CB@EHNMIHLN@number?5of?5color?5planes?5must?5be?5@ 0000000180067488     BMPParser.obj
 0002:0000f4b0       ??_C@_0M@CGFHNEKC@color?5depth@ 00000001800674b0     BMPParser.obj
 0002:0000f4c0       ??_C@_0BB@JGEMFNKM@compression?5type@ 00000001800674c0     BMPParser.obj
 0002:0000f4d8       ??_C@_0L@LHCCDPID@?5?$CCBI_RLE8?$CC@ 00000001800674d8     BMPParser.obj
 0002:0000f4e8       ??_C@_0L@LODIMGOH@?5?$CCBI_RLE4?$CC@ 00000001800674e8     BMPParser.obj
 0002:0000f4f8       ??_C@_0L@KCBKOKJL@?5?$CCBI_JPEG?$CC@ 00000001800674f8     BMPParser.obj
 0002:0000f508       ??_C@_09CJGDEMME@?5?$CCBI_PNG?$CC@ 0000000180067508     BMPParser.obj
 0002:0000f518       ??_C@_0BF@IIABODNP@?5?$CCBI_ALPHABITFIELDS?$CC@ 0000000180067518     BMPParser.obj
 0002:0000f530       ??_C@_0L@OLAPJCD@?5?$CCBI_CMYK?$CC@ 0000000180067530     BMPParser.obj
 0002:0000f540       ??_C@_0P@LMMOCJLO@?5?$CCBI_CMYKRLE8?$CC@ 0000000180067540     BMPParser.obj
 0002:0000f550       ??_C@_0P@LFNENANK@?5?$CCBI_CMYKRLE4?$CC@ 0000000180067550     BMPParser.obj
 0002:0000f560       ??_C@_0EN@COPDNOCO@compression?5BI_BITFIELDS?5can?5be@ 0000000180067560     BMPParser.obj
 0002:0000f5b0       ??_C@_0CI@DAENBHLK@color?5palette?5and?5bit?5depth?5com@ 00000001800675b0     BMPParser.obj
 0002:0000f5d8       ??_C@_04CCANGBDI@Win?5@    00000001800675d8     BMPParser.obj
 0002:0000f5e0       ??_C@_04FBDBODBG@sRGB@     00000001800675e0     BMPParser.obj
 0002:0000f5e8       ??_C@_01BJJEKLCA@?$CC@     00000001800675e8     BMPParser.obj
 0002:0000f5f0       ??_C@_0O@CJMICHBL@color?5space?5?$CC@ 00000001800675f0     BMPParser.obj
 0002:0000f600       ??_C@_0CL@BAIMHKPA@image?5data?5overlaps?5with?5anothe@ 0000000180067600     BMPParser.obj
 0002:0000f630       ??_C@_0L@BENKOINO@image?5data@ 0000000180067630     BMPParser.obj
 0002:0000f640       ??_C@_0BI@IFJLKLBA@missing?5image?5data?5size@ 0000000180067640     BMPParser.obj
 0002:0000f658       ??_C@_0BI@PFLPMPIG@invalid?5image?5data?5size@ 0000000180067658     BMPParser.obj
 0002:0000f670       ??_C@_0BG@MANBHLLD@not?5enough?5image?5data@ 0000000180067670     BMPParser.obj
 0002:0000f688       ??_C@_0BK@KGDODFCD@unable?5to?5allocate?5memory@ 0000000180067688     BMPParser.obj
 0002:0000f6a4       ??_C@_03NLJIHOMM@?5?9?5@   00000001800676a4     BMPParser.obj
 0002:0000f6a8       ??_C@_0BI@MNHGEGHJ@Error?5while?5processing?5@ 00000001800676a8     BMPParser.obj
 0002:0000f6c0       ??_C@_0BH@CFIIDOJD@unexpected?5end?5of?5file@ 00000001800676c0     BMPParser.obj
 0002:0000f6d7       ??_C@_00CNPNBAHC@@         00000001800676d7     BMPParser.obj
 0002:0000f6d8       ??_C@_0BD@NNNHJFDD@invalid?5color?5mask@ 00000001800676d8     BMPParser.obj
 0002:0000f6f0       ??_C@_0N@FMIEHHDB@unsupported?5@ 00000001800676f0     BMPParser.obj
 0002:0000f700       ??_C@_08OHKLBDEG@unknown?5@ 0000000180067700     BMPParser.obj
 0002:0000f710       ??_C@_08OMFJPINA@Backends@ 0000000180067710     Backends.obj
 0002:0000f720       ??_C@_1JE@JJMAAKOP@?$AAD?$AA?3?$AA?2?$AAa?$AA?2?$AAn?$AAo?$AAd?$AAe?$AA?9?$AAc?$AAa?$AAn?$AAv?$AAa@ 0000000180067720     Canvas.obj
 0002:0000f7c0       ??_C@_1FK@CBGIJHDF@?$AAv?$AAa?$AAl?$AAu?$AAe?$AA?4?$AAs?$AAi?$AAz?$AAe?$AA?$CI?$AA?$CJ?$AA?5?$AA?$DM?$AA?$DN@ 00000001800677c0     Canvas.obj
 0002:0000f820       ??_C@_1GI@NMFKHHFO@?$AAD?$AA?3?$AA?2?$AAa?$AA?2?$AAn?$AAo?$AAd?$AAe?$AA?9?$AAc?$AAa?$AAn?$AAv?$AAa@ 0000000180067820     Canvas.obj
 0002:0000f890       ??_C@_1GA@PFOOBIAG@?$AAl?$AAe?$AAn?$AAg?$AAt?$AAh?$AA?5?$AA?$DM?$AA?$DN?$AA?5?$AAi?$AAm?$AAp?$AA?3?$AA?3@ 0000000180067890     Canvas.obj
 0002:0000f8f0       ??_C@_1FM@LOELJOFK@?$AAs?$AAi?$AAz?$AAe?$AA?5?$AA?$DM?$AA?$DN?$AA?5?$AAi?$AAm?$AAp?$AA?3?$AA?3?$AAk?$AAM@ 00000001800678f0     Canvas.obj
 0002:0000f950       ??_C@_1BO@OPFMAOCA@?$AAl?$AAe?$AAn?$AA?5?$AA?$DM?$AA?$DN?$AA?5?$AAI?$AAN?$AAT?$AA_?$AAM?$AAA?$AAX@ 0000000180067950     Canvas.obj
 0002:0000f970       ??_C@_1BE@CKDJNAPC@?$AAs?$AAt?$AAr?$AA_?$AA?5?$AA?$CB?$AA?$DN?$AA?5?$AA0@ 0000000180067970     Canvas.obj
 0002:0000f984       ??_C@_06IJIHIEPH@1?46?437@ 0000000180067984     Canvas.obj
 0002:0000f98c       ??_C@_02LMMGGCAJ@?3?5@     000000018006798c     Canvas.obj
 0002:0000f990       ??_C@_08LLGCOLLL@iostream@ 0000000180067990     Canvas.obj
 0002:0000f9a0       ??_C@_0BA@ELKIONDK@bad?5locale?5name@ 00000001800679a0     Canvas.obj
 0002:0000f9b0       ??_C@_0BF@PHHKMMFD@ios_base?3?3badbit?5set@ 00000001800679b0     Canvas.obj
 0002:0000f9c8       ??_C@_0BG@FMKFHCIL@ios_base?3?3failbit?5set@ 00000001800679c8     Canvas.obj
 0002:0000f9e0       ??_C@_0BF@OOHOMBOF@ios_base?3?3eofbit?5set@ 00000001800679e0     Canvas.obj
 0002:0000f9f8       ??_C@_0CD@BOHAHBFM@canvas?3empty_closure_output_buf@ 00000001800679f8     Canvas.obj
 0002:0000fa20       ??_C@_0CA@PKBJJIPN@canvas?3term_closure_destination@ 0000000180067a20     Canvas.obj
 0002:0000fa40       ??_C@_06PBIJCONE@Canvas@   0000000180067a40     Canvas.obj
 0002:0000fa48       ??_C@_08GOCDALDA@toBuffer@ 0000000180067a48     Canvas.obj
 0002:0000fa58       ??_C@_0O@IOKOGJGN@streamPNGSync@ 0000000180067a58     Canvas.obj
 0002:0000fa68       ??_C@_0O@OBICOFIG@streamPDFSync@ 0000000180067a68     Canvas.obj
 0002:0000fa78       ??_C@_0P@GMDNPKGK@streamJPEGSync@ 0000000180067a78     Canvas.obj
 0002:0000fa88       ??_C@_04GPMDFGEJ@type@     0000000180067a88     Canvas.obj
 0002:0000fa90       ??_C@_06LNMIFCNI@stride@   0000000180067a90     Canvas.obj
 0002:0000fa98       ??_C@_05IGKADHGO@width@    0000000180067a98     Canvas.obj
 0002:0000faa0       ??_C@_06LNLHEAAG@height@   0000000180067aa0     Canvas.obj
 0002:0000faa8       ??_C@_0P@DNOOAMCM@PNG_NO_FILTERS@ 0000000180067aa8     Canvas.obj
 0002:0000fab8       ??_C@_0BA@NECJFJGB@PNG_FILTER_NONE@ 0000000180067ab8     Canvas.obj
 0002:0000fac8       ??_C@_0P@ILKINAJE@PNG_FILTER_SUB@ 0000000180067ac8     Canvas.obj
 0002:0000fad8       ??_C@_0O@PHEANGBB@PNG_FILTER_UP@ 0000000180067ad8     Canvas.obj
 0002:0000fae8       ??_C@_0P@OIJAFJM@PNG_FILTER_AVG@ 0000000180067ae8     Canvas.obj
 0002:0000faf8       ??_C@_0BB@EOMICOFG@PNG_FILTER_PAETH@ 0000000180067af8     Canvas.obj
 0002:0000fb10       ??_C@_0BA@HBOOLNBH@PNG_ALL_FILTERS@ 0000000180067b10     Canvas.obj
 0002:0000fb20       ??_C@_0O@KCCDDIBD@_registerFont@ 0000000180067b20     Canvas.obj
 0002:0000fb30       ??_C@_0DD@NOKGMICM@Class?5constructors?5cannot?5be?5in@ 0000000180067b30     Canvas.obj
 0002:0000fb68       ??_C@_0BC@PALKPJEA@Invalid?5arguments@ 0000000180067b68     Canvas.obj
 0002:0000fb80       ??_C@_0BK@LEHHNKDG@canvas?3ToBufferAsyncAfter@ 0000000180067b80     Canvas.obj
 0002:0000fba0       ??_C@_0BB@CHLGOGDL@compressionLevel@ 0000000180067ba0     Canvas.obj
 0002:0000fbb8       ??_C@_0L@CAGNKJED@resolution@ 0000000180067bb8     Canvas.obj
 0002:0000fbc8       ??_C@_07LOIMJIII@filters@  0000000180067bc8     Canvas.obj
 0002:0000fbd0       ??_C@_07JKIHKJOO@palette@  0000000180067bd0     Canvas.obj
 0002:0000fbd8       ??_C@_0CI@BHLKFIE@Palette?5length?5must?5be?5a?5multip@ 0000000180067bd8     Canvas.obj
 0002:0000fc00       ??_C@_0BA@IGMJCIAO@backgroundIndex@ 0000000180067c00     Canvas.obj
 0002:0000fc10       ??_C@_07DADGLCBN@quality@  0000000180067c10     Canvas.obj
 0002:0000fc18       ??_C@_0BC@PBNJDFOD@chromaSubsampling@ 0000000180067c18     Canvas.obj
 0002:0000fc30       ??_C@_0M@BECHMDJA@progressive@ 0000000180067c30     Canvas.obj
 0002:0000fc3c       ??_C@_06FHIJNKHO@?$CFFT?$CFTZ@ 0000000180067c3c     Canvas.obj
 0002:0000fc44       ??_C@_05PHLGJONK@title@    0000000180067c44     Canvas.obj
 0002:0000fc4c       ??_C@_06LIPPPFCI@author@   0000000180067c4c     Canvas.obj
 0002:0000fc58       ??_C@_07JNNGEGGO@subject@  0000000180067c58     Canvas.obj
 0002:0000fc60       ??_C@_08KBIEDDDE@keywords@ 0000000180067c60     Canvas.obj
 0002:0000fc70       ??_C@_07PJPKCGHK@creator@  0000000180067c70     Canvas.obj
 0002:0000fc78       ??_C@_0N@NMBFAPFM@creationDate@ 0000000180067c78     Canvas.obj
 0002:0000fc88       ??_C@_07FKDDNFDN@modDate@  0000000180067c88     Canvas.obj
 0002:0000fc90       ??_C@_03DGOGAGNC@raw@      0000000180067c90     Canvas.obj
 0002:0000fc98       ??_C@_0CE@IOCECGHO@Data?5exceeds?5maximum?5buffer?5len@ 0000000180067c98     Canvas.obj
 0002:0000fcc0       ??_C@_09NGJJJBGE@image?1png@ 0000000180067cc0     Canvas.obj
 0002:0000fcd0       ??_C@_0L@PJKHLKFB@image?1jpeg@ 0000000180067cd0     Canvas.obj
 0002:0000fce0       ??_C@_0BB@BCHOLLGI@canvas?3StreamPNG@ 0000000180067ce0     Canvas.obj
 0002:0000fcf8       ??_C@_0BL@NEPODJIN@callback?5function?5required@ 0000000180067cf8     Canvas.obj
 0002:0000fd18       ??_C@_0BB@GPCAPPP@canvas?3StreamPDF@ 0000000180067d18     Canvas.obj
 0002:0000fd30       ??_C@_0BC@FANAGBIP@wrong?5canvas?5type@ 0000000180067d30     Canvas.obj
 0002:0000fd48       ??_C@_0BE@BPOGMHI@Wrong?5argument?5type@ 0000000180067d48     Canvas.obj
 0002:0000fd60       ??_C@_0KD@OFKOCKPC@The?5second?5argument?5to?5register@ 0000000180067d60     Canvas.obj
 0002:0000fe08       ??_C@_0BK@COFJPHCD@Could?5not?5parse?5font?5file@ 0000000180067e08     Canvas.obj
 0002:0000fe24       ??_C@_06NBOBHOCP@family@   0000000180067e24     Canvas.obj
 0002:0000fe2c       ??_C@_06CMCBKMCB@weight@   0000000180067e2c     Canvas.obj
 0002:0000fe34       ??_C@_05IAKJCFIM@style@    0000000180067e34     Canvas.obj
 0002:0000fe3c       ??_C@_06IKLLLDHL@normal@   0000000180067e3c     Canvas.obj
 0002:0000fe48       ??_C@_0CO@PJJOAFFD@Could?5not?5load?5font?5to?5the?5syst@ 0000000180067e48     Canvas.obj
 0002:0000fe78       ??_C@_06DAHKLION@italic@   0000000180067e78     Canvas.obj
 0002:0000fe80       ??_C@_07PNBIOHPA@oblique@  0000000180067e80     Canvas.obj
 0002:0000fe88       ??_C@_04PJDGFHHN@bold@     0000000180067e88     Canvas.obj
 0002:0000fe90       ??_C@_03GNABGMEE@100@      0000000180067e90     Canvas.obj
 0002:0000fe94       ??_C@_03HPLEMDKK@200@      0000000180067e94     Canvas.obj
 0002:0000fe98       ??_C@_03MHAIKEMP@300@      0000000180067e98     Canvas.obj
 0002:0000fe9c       ??_C@_03FKNPJMHG@400@      0000000180067e9c     Canvas.obj
 0002:0000fea0       ??_C@_03OCGDPLBD@500@      0000000180067ea0     Canvas.obj
 0002:0000fea4       ??_C@_03PANGFEPN@600@      0000000180067ea4     Canvas.obj
 0002:0000fea8       ??_C@_03EIGKDDJI@700@      0000000180067ea8     Canvas.obj
 0002:0000feac       ??_C@_03BAAJCDMO@800@      0000000180067eac     Canvas.obj
 0002:0000feb0       ??_C@_03KILFEEKL@900@      0000000180067eb0     Canvas.obj
 0002:0000feb8       ??_C@_07JKKCBBMM@context@  0000000180067eb8     Canvas.obj
 0002:0000fec0       ??_C@_1JA@PPNCFCKL@?$AAD?$AA?3?$AA?2?$AAa?$AA?2?$AAn?$AAo?$AAd?$AAe?$AA?9?$AAc?$AAa?$AAn?$AAv?$AAa@ 0000000180067ec0     Canvas.obj
 0002:0000ff50       ??_C@_1GK@KNJIIFLH@?$AAr?$AAe?$AAi?$AAn?$AAt?$AAe?$AAr?$AAp?$AAr?$AAe?$AAt?$AA_?$AAc?$AAa?$AAs@ 0000000180067f50     Canvas.obj
 0002:0000ffc0       ??_C@_1CE@LNAGEONJ@?$AA?$CB?$AAo?$AAb?$AAj?$AAe?$AAc?$AAt?$AA?4?$AAI?$AAs?$AAE?$AAm?$AAp?$AAt?$AAy@ 0000000180067fc0     Canvas.obj
 0002:0000ffe8       ??_C@_0BL@GOIGLPKN@unordered_map?1set?5too?5long@ 0000000180067fe8     Canvas.obj
 0002:00010008       ??_C@_0BK@OGNNAFAB@invalid?5hash?5bucket?5count@ 0000000180068008     Canvas.obj
 0002:00010028       ??_7?$basic_streambuf@DU?$char_traits@D@std@@@std@@6B@ 0000000180068028     Canvas.obj
 0002:000100a0       ??_7ios_base@std@@6B@      00000001800680a0     Canvas.obj
 0002:000100a8       ??_7?$basic_ios@DU?$char_traits@D@std@@@std@@6B@ 00000001800680a8     Canvas.obj
 0002:000100b0       ??_7?$basic_stringbuf@DU?$char_traits@D@std@@V?$allocator@D@2@@std@@6B@ 00000001800680b0     Canvas.obj
 0002:00010128       ??_7_Iostream_error_category2@std@@6B@ 0000000180068128     Canvas.obj
 0002:00010158       ??_7failure@ios_base@std@@6B@ 0000000180068158     Canvas.obj
 0002:00010158       ??_7_System_error@std@@6B@ 0000000180068158     Canvas.obj
 0002:00010158       ??_7system_error@std@@6B@  0000000180068158     Canvas.obj
 0002:00010170       ??_7?$basic_istream@DU?$char_traits@D@std@@@std@@6B@ 0000000180068170     Canvas.obj
 0002:00010178       ??_7Canvas@@6B@            0000000180068178     Canvas.obj
 0002:00010190       ?_Iostream_error@?4??message@_Iostream_error_category2@std@@UEBA?AV?$basic_string@DU?$char_traits@D@std@@V?$allocator@D@2@@3@H@Z@4QBDB 0000000180068190     Canvas.obj
 0002:000101a8       ??_8?$basic_istringstream@DU?$char_traits@D@std@@V?$allocator@D@2@@std@@7B@ 00000001800681a8     Canvas.obj
 0002:000101b0       ??_7?$basic_istringstream@DU?$char_traits@D@std@@V?$allocator@D@2@@std@@6B@ 00000001800681b0     Canvas.obj
 0002:000101b8       ??_C@_0P@CKNMLMDB@CanvasGradient@ 00000001800681b8     CanvasGradient.obj
 0002:000101c8       ??_C@_0N@FFOKKILE@addColorStop@ 00000001800681c8     CanvasGradient.obj
 0002:000101d8       ??_C@_0BC@KNPMEBHA@invalid?5arguments@ 00000001800681d8     CanvasGradient.obj
 0002:000101f0       ??_C@_0BA@ELGKPKEI@offset?5required@ 00000001800681f0     CanvasGradient.obj
 0002:00010200       ??_C@_0BG@HHHCEBEM@color?5string?5required@ 0000000180068200     CanvasGradient.obj
 0002:00010218       ??_C@_0BD@JKDEPLNJ@parse?5color?5failed@ 0000000180068218     CanvasGradient.obj
 0002:00010230       ??_7Gradient@@6B@          0000000180068230     CanvasGradient.obj
 0002:00010248       ??_C@_0O@KEPDKAFI@CanvasPattern@ 0000000180068248     CanvasPattern.obj
 0002:00010258       ??_C@_0CG@CKGIHBBA@Image?5given?5has?5not?5completed?5l@ 0000000180068258     CanvasPattern.obj
 0002:00010280       ??_C@_0BJ@NBALILEB@Image?5or?5Canvas?5expected@ 0000000180068280     CanvasPattern.obj
 0002:000102a0       ??_C@_09OGFADPEI@no?9repeat@ 00000001800682a0     CanvasPattern.obj
 0002:000102b0       ??_C@_08HMIFKPGE@repeat?9x@ 00000001800682b0     CanvasPattern.obj
 0002:000102c0       ??_C@_08GFJOJOCF@repeat?9y@ 00000001800682c0     CanvasPattern.obj
 0002:000102d0       ??_7Pattern@@6B@           00000001800682d0     CanvasPattern.obj
 0002:000102e8       ??_C@_03JBJLGPFL@end@      00000001800682e8     CanvasRenderingContext2d.obj
 0002:000102f0       ??_C@_0BB@GCADKGJO@map?1set?5too?5long@ 00000001800682f0     CanvasRenderingContext2d.obj
 0002:00010308       ??_C@_0BJ@HOMNLOJF@CanvasRenderingContext2D@ 0000000180068308     CanvasRenderingContext2d.obj
 0002:00010328       ??_C@_09LANPKMCJ@drawImage@ 0000000180068328     CanvasRenderingContext2d.obj
 0002:00010338       ??_C@_0N@HMHAOANH@putImageData@ 0000000180068338     CanvasRenderingContext2d.obj
 0002:00010348       ??_C@_0N@LJBMKNKJ@getImageData@ 0000000180068348     CanvasRenderingContext2d.obj
 0002:00010358       ??_C@_0BA@LENOHGDH@createImageData@ 0000000180068358     CanvasRenderingContext2d.obj
 0002:00010368       ??_C@_07IEJLLIOD@addPage@  0000000180068368     CanvasRenderingContext2d.obj
 0002:00010370       ??_C@_04EMMDIJJL@save@     0000000180068370     CanvasRenderingContext2d.obj
 0002:00010378       ??_C@_07HICINA@restore@    0000000180068378     CanvasRenderingContext2d.obj
 0002:00010380       ??_C@_06CEHMNFAL@rotate@   0000000180068380     CanvasRenderingContext2d.obj
 0002:00010388       ??_C@_09ODNGOEIO@translate@ 0000000180068388     CanvasRenderingContext2d.obj
 0002:00010398       ??_C@_09IFONHNKG@transform@ 0000000180068398     CanvasRenderingContext2d.obj
 0002:000103a8       ??_C@_0N@KLMELGON@getTransform@ 00000001800683a8     CanvasRenderingContext2d.obj
 0002:000103b8       ??_C@_0P@KBHJLFLN@resetTransform@ 00000001800683b8     CanvasRenderingContext2d.obj
 0002:000103c8       ??_C@_0N@NPHKHKKB@setTransform@ 00000001800683c8     CanvasRenderingContext2d.obj
 0002:000103d8       ??_C@_0O@MDNHBEAB@isPointInPath@ 00000001800683d8     CanvasRenderingContext2d.obj
 0002:000103e8       ??_C@_05MHMEBBGO@scale@    00000001800683e8     CanvasRenderingContext2d.obj
 0002:000103f0       ??_C@_04POIGMEJN@clip@     00000001800683f0     CanvasRenderingContext2d.obj
 0002:000103f8       ??_C@_04OBAECEGJ@fill@     00000001800683f8     CanvasRenderingContext2d.obj
 0002:00010400       ??_C@_06JDPPEKDJ@stroke@   0000000180068400     CanvasRenderingContext2d.obj
 0002:00010408       ??_C@_08BKNBKKHP@fillText@ 0000000180068408     CanvasRenderingContext2d.obj
 0002:00010418       ??_C@_0L@NKNGGLJB@strokeText@ 0000000180068418     CanvasRenderingContext2d.obj
 0002:00010428       ??_C@_08IFOCBDEO@fillRect@ 0000000180068428     CanvasRenderingContext2d.obj
 0002:00010438       ??_C@_0L@EFOFNCKA@strokeRect@ 0000000180068438     CanvasRenderingContext2d.obj
 0002:00010448       ??_C@_09CADLENBP@clearRect@ 0000000180068448     CanvasRenderingContext2d.obj
 0002:00010454       ??_C@_04LHPFHFPH@rect@     0000000180068454     CanvasRenderingContext2d.obj
 0002:00010460       ??_C@_0M@PDPLNFGN@measureText@ 0000000180068460     CanvasRenderingContext2d.obj
 0002:0001046c       ??_C@_06ICOKFDHB@moveTo@   000000018006846c     CanvasRenderingContext2d.obj
 0002:00010474       ??_C@_06KCFEGHJL@lineTo@   0000000180068474     CanvasRenderingContext2d.obj
 0002:00010480       ??_C@_0O@PAEGDEKM@bezierCurveTo@ 0000000180068480     CanvasRenderingContext2d.obj
 0002:00010490       ??_C@_0BB@NNCDNEFE@quadraticCurveTo@ 0000000180068490     CanvasRenderingContext2d.obj
 0002:000104a8       ??_C@_09GMDIDHBP@beginPath@ 00000001800684a8     CanvasRenderingContext2d.obj
 0002:000104b8       ??_C@_09FFNFMCIM@closePath@ 00000001800684b8     CanvasRenderingContext2d.obj
 0002:000104c4       ??_C@_03EEIEDENP@arc@      00000001800684c4     CanvasRenderingContext2d.obj
 0002:000104c8       ??_C@_05KOMEJIOF@arcTo@    00000001800684c8     CanvasRenderingContext2d.obj
 0002:000104d0       ??_C@_07IANGJLLC@ellipse@  00000001800684d0     CanvasRenderingContext2d.obj
 0002:000104d8       ??_C@_0M@KIBHMOJH@setLineDash@ 00000001800684d8     CanvasRenderingContext2d.obj
 0002:000104e8       ??_C@_0M@KHAJBIBE@getLineDash@ 00000001800684e8     CanvasRenderingContext2d.obj
 0002:000104f8       ??_C@_0O@IIFIBGIF@createPattern@ 00000001800684f8     CanvasRenderingContext2d.obj
 0002:00010508       ??_C@_0BF@FLJOOEKA@createLinearGradient@ 0000000180068508     CanvasRenderingContext2d.obj
 0002:00010520       ??_C@_0BF@MHOEOHFA@createRadialGradient@ 0000000180068520     CanvasRenderingContext2d.obj
 0002:00010538       ??_C@_0M@GJLGNIPC@pixelFormat@ 0000000180068538     CanvasRenderingContext2d.obj
 0002:00010548       ??_C@_0P@HGKACBEG@patternQuality@ 0000000180068548     CanvasRenderingContext2d.obj
 0002:00010558       ??_C@_0BG@NBHIGNIP@imageSmoothingEnabled@ 0000000180068558     CanvasRenderingContext2d.obj
 0002:00010570       ??_C@_0BJ@KOAEPHEF@globalCompositeOperation@ 0000000180068570     CanvasRenderingContext2d.obj
 0002:00010590       ??_C@_0M@EJNLOLOE@globalAlpha@ 0000000180068590     CanvasRenderingContext2d.obj
 0002:000105a0       ??_C@_0M@JPJLLJDB@shadowColor@ 00000001800685a0     CanvasRenderingContext2d.obj
 0002:000105b0       ??_C@_0L@EFNIPLDK@miterLimit@ 00000001800685b0     CanvasRenderingContext2d.obj
 0002:000105c0       ??_C@_09PELAPJEH@lineWidth@ 00000001800685c0     CanvasRenderingContext2d.obj
 0002:000105d0       ??_C@_07IPBACFHB@lineCap@  00000001800685d0     CanvasRenderingContext2d.obj
 0002:000105d8       ??_C@_08CCMLJKBL@lineJoin@ 00000001800685d8     CanvasRenderingContext2d.obj
 0002:000105e8       ??_C@_0P@NNEFDNMM@lineDashOffset@ 00000001800685e8     CanvasRenderingContext2d.obj
 0002:000105f8       ??_C@_0O@FOAIOCIO@shadowOffsetX@ 00000001800685f8     CanvasRenderingContext2d.obj
 0002:00010608       ??_C@_0O@EHBDNDMP@shadowOffsetY@ 0000000180068608     CanvasRenderingContext2d.obj
 0002:00010618       ??_C@_0L@FJBIPGOL@shadowBlur@ 0000000180068618     CanvasRenderingContext2d.obj
 0002:00010628       ??_C@_09BEIGEBLF@antialias@ 0000000180068628     CanvasRenderingContext2d.obj
 0002:00010638       ??_C@_0BA@GALDJJKL@textDrawingMode@ 0000000180068638     CanvasRenderingContext2d.obj
 0002:00010648       ??_C@_0BB@FMAKGOMH@currentTransform@ 0000000180068648     CanvasRenderingContext2d.obj
 0002:00010660       ??_C@_09DCCGDJMC@fillStyle@ 0000000180068660     CanvasRenderingContext2d.obj
 0002:00010670       ??_C@_0M@HFFEPBHM@strokeStyle@ 0000000180068670     CanvasRenderingContext2d.obj
 0002:0001067c       ??_C@_04EFPADHIC@font@     000000018006867c     CanvasRenderingContext2d.obj
 0002:00010688       ??_C@_0N@KIMHKGNF@textBaseline@ 0000000180068688     CanvasRenderingContext2d.obj
 0002:00010698       ??_C@_09PKLPGIBN@textAlign@ 0000000180068698     CanvasRenderingContext2d.obj
 0002:000106a8       ??_C@_0BJ@OLEJJKDH@CanvasRenderingContext2d@ 00000001800686a8     CanvasRenderingContext2d.obj
 0002:000106c8       ??_C@_0BN@JFEMENH@CanvasRenderingContext2dInit@ 00000001800686c8     CanvasRenderingContext2d.obj
 0002:000106e8       ??_C@_04ECGOMOIE@sans@     00000001800686e8     CanvasRenderingContext2d.obj
 0002:000106f0       ??_C@_0BJ@MMHEOABP@Unexpected?5gradient?5type@ 00000001800686f0     CanvasRenderingContext2d.obj
 0002:00010710       ??_C@_0BN@FEKPFJFP@Failed?5to?5initialize?5context@ 0000000180068710     CanvasRenderingContext2d.obj
 0002:00010730       ??_C@_07NOFPBGJH@evenodd@  0000000180068730     CanvasRenderingContext2d.obj
 0002:00010738       ??_C@_0BA@IBFIJLCO@Canvas?5expected@ 0000000180068738     CanvasRenderingContext2d.obj
 0002:00010748       ??_C@_06OECNJAC@RGBA32@    0000000180068748     CanvasRenderingContext2d.obj
 0002:00010750       ??_C@_05EIHACBEG@RGB24@    0000000180068750     CanvasRenderingContext2d.obj
 0002:00010758       ??_C@_02GGHJHNOB@A8@       0000000180068758     CanvasRenderingContext2d.obj
 0002:00010760       ??_C@_09FDIJCLOJ@RGB16_565@ 0000000180068760     CanvasRenderingContext2d.obj
 0002:0001076c       ??_C@_02LHLLMGKI@A1@       000000018006876c     CanvasRenderingContext2d.obj
 0002:00010770       ??_C@_05IAEKHIAN@alpha@    0000000180068770     CanvasRenderingContext2d.obj
 0002:00010778       ??_C@_0CF@DPCLDGFG@only?5PDF?5canvases?5support?5?4addP@ 0000000180068778     CanvasRenderingContext2d.obj
 0002:000107a0       ??_C@_0BD@DJPHEEKJ@ImageData?5expected@ 00000001800687a0     CanvasRenderingContext2d.obj
 0002:000107b8       ??_C@_0DJ@CKCCPANE@putImageData?5for?5CANVAS_FORMAT_@ 00000001800687b8     CanvasRenderingContext2d.obj
 0002:000107f8       ??_C@_0BF@EKHJHFGA@Invalid?5pixel?5format@ 00000001800687f8     CanvasRenderingContext2d.obj
 0002:00010810       ??_C@_0CH@NDMGIAMG@IndexSizeError?3?5The?5source?5widt@ 0000000180068810     CanvasRenderingContext2d.obj
 0002:00010838       ??_C@_0CI@HDADGBDO@IndexSizeError?3?5The?5source?5heig@ 0000000180068838     CanvasRenderingContext2d.obj
 0002:00010860       ??_C@_0BC@GJDMJLID@Canvas?5width?5is?50@ 0000000180068860     CanvasRenderingContext2d.obj
 0002:00010878       ??_C@_0BD@KPLINHKD@Canvas?5height?5is?50@ 0000000180068878     CanvasRenderingContext2d.obj
 0002:00010890       ??_C@_0DJ@DCIKNENI@getImageData?5for?5CANVAS_FORMAT_@ 0000000180068890     CanvasRenderingContext2d.obj
 0002:000108d0       ??_C@_0CF@NIOBFMGH@The?5first?5argument?5must?5be?5an?5o@ 00000001800688d0     CanvasRenderingContext2d.obj
 0002:000108f8       ??_C@_0M@OABMHCHE@source?9over@ 00000001800688f8     CanvasRenderingContext2d.obj
 0002:00010904       ??_C@_05MEHLAELG@clear@    0000000180068904     CanvasRenderingContext2d.obj
 0002:0001090c       ??_C@_04COAGEIMF@copy@     000000018006890c     CanvasRenderingContext2d.obj
 0002:00010918       ??_C@_0M@BLMAJMLK@destination@ 0000000180068918     CanvasRenderingContext2d.obj
 0002:00010928       ??_C@_0BB@CIGJAIPI@destination?9over@ 0000000180068928     CanvasRenderingContext2d.obj
 0002:00010940       ??_C@_09CMAEPNDN@source?9in@ 0000000180068940     CanvasRenderingContext2d.obj
 0002:00010950       ??_C@_0P@GAHJLNBO@destination?9in@ 0000000180068950     CanvasRenderingContext2d.obj
 0002:00010960       ??_C@_0L@CGAPOHFD@source?9out@ 0000000180068960     CanvasRenderingContext2d.obj
 0002:00010970       ??_C@_0BA@IECEOLGB@destination?9out@ 0000000180068970     CanvasRenderingContext2d.obj
 0002:00010980       ??_C@_0M@MKIEODMK@source?9atop@ 0000000180068980     CanvasRenderingContext2d.obj
 0002:00010990       ??_C@_0BB@CPBJJEG@destination?9atop@ 0000000180068990     CanvasRenderingContext2d.obj
 0002:000109a4       ??_C@_03COLCDPPJ@xor@      00000001800689a4     CanvasRenderingContext2d.obj
 0002:000109a8       ??_C@_07IEMLKEO@lighter@   00000001800689a8     CanvasRenderingContext2d.obj
 0002:000109b0       ??_C@_08MMOCDOEL@multiply@ 00000001800689b0     CanvasRenderingContext2d.obj
 0002:000109bc       ??_C@_06LPLGMLP@screen@    00000001800689bc     CanvasRenderingContext2d.obj
 0002:000109c8       ??_C@_07BJNHBMF@overlay@   00000001800689c8     CanvasRenderingContext2d.obj
 0002:000109d0       ??_C@_06EJFBIMH@darken@    00000001800689d0     CanvasRenderingContext2d.obj
 0002:000109d8       ??_C@_07OODLOHBD@lighten@  00000001800689d8     CanvasRenderingContext2d.obj
 0002:000109e0       ??_C@_0M@HJIFAOGP@color?9dodge@ 00000001800689e0     CanvasRenderingContext2d.obj
 0002:000109f0       ??_C@_0L@BNODHIAO@color?9burn@ 00000001800689f0     CanvasRenderingContext2d.obj
 0002:00010a00       ??_C@_0L@CEKGHIKD@hard?9light@ 0000000180068a00     CanvasRenderingContext2d.obj
 0002:00010a10       ??_C@_0L@DKCPCJMJ@soft?9light@ 0000000180068a10     CanvasRenderingContext2d.obj
 0002:00010a20       ??_C@_0L@CHCOIIBP@difference@ 0000000180068a20     CanvasRenderingContext2d.obj
 0002:00010a30       ??_C@_09GJPEMMGJ@exclusion@ 0000000180068a30     CanvasRenderingContext2d.obj
 0002:00010a3c       ??_C@_03GKJJMKFG@hue@      0000000180068a3c     CanvasRenderingContext2d.obj
 0002:00010a40       ??_C@_0L@MOLEDBMN@saturation@ 0000000180068a40     CanvasRenderingContext2d.obj
 0002:00010a4c       ??_C@_05PEENBMOG@color@    0000000180068a4c     CanvasRenderingContext2d.obj
 0002:00010a58       ??_C@_0L@MLCMHDMB@luminosity@ 0000000180068a58     CanvasRenderingContext2d.obj
 0002:00010a68       ??_C@_08MEKLKAIJ@saturate@ 0000000180068a68     CanvasRenderingContext2d.obj
 0002:00010a74       ??_C@_04LBNBHAJC@fast@     0000000180068a74     CanvasRenderingContext2d.obj
 0002:00010a7c       ??_C@_04DDJAGGFE@good@     0000000180068a7c     CanvasRenderingContext2d.obj
 0002:00010a84       ??_C@_04MLDDEBAF@best@     0000000180068a84     CanvasRenderingContext2d.obj
 0002:00010a90       ??_C@_07NHJEPDMH@nearest@  0000000180068a90     CanvasRenderingContext2d.obj
 0002:00010a98       ??_C@_08LJMMPFJO@bilinear@ 0000000180068a98     CanvasRenderingContext2d.obj
 0002:00010aa4       ??_C@_04CGFJFPFD@none@     0000000180068aa4     CanvasRenderingContext2d.obj
 0002:00010aac       ??_C@_04GEBBKIAA@gray@     0000000180068aac     CanvasRenderingContext2d.obj
 0002:00010ab8       ??_C@_08JOJOGLJH@subpixel@ 0000000180068ab8     CanvasRenderingContext2d.obj
 0002:00010ac8       ??_C@_07DLHCIBDH@default@  0000000180068ac8     CanvasRenderingContext2d.obj
 0002:00010ad0       ??_C@_04LNEJFJGI@path@     0000000180068ad0     CanvasRenderingContext2d.obj
 0002:00010ad8       ??_C@_05OIOMJNBL@glyph@    0000000180068ad8     CanvasRenderingContext2d.obj
 0002:00010ae0       ??_C@_01INIBCBCB@f@        0000000180068ae0     CanvasRenderingContext2d.obj
 0002:00010ae4       ??_C@_01KGKMHCOC@e@        0000000180068ae4     CanvasRenderingContext2d.obj
 0002:00010ae8       ??_C@_01LPLHEDKD@d@        0000000180068ae8     CanvasRenderingContext2d.obj
 0002:00010aec       ??_C@_01PAPGNFGE@c@        0000000180068aec     CanvasRenderingContext2d.obj
 0002:00010af0       ??_C@_01OJONOECF@b@        0000000180068af0     CanvasRenderingContext2d.obj
 0002:00010af4       ??_C@_01MCMALHOG@a@        0000000180068af4     CanvasRenderingContext2d.obj
 0002:00010af8       ??_C@_0BD@BOGGAILC@Expected?5DOMMatrix@ 0000000180068af8     CanvasRenderingContext2d.obj
 0002:00010b0c       ??_C@_05JDNDNKBA@bevel@    0000000180068b0c     CanvasRenderingContext2d.obj
 0002:00010b14       ??_C@_05MIMAKCN@round@     0000000180068b14     CanvasRenderingContext2d.obj
 0002:00010b1c       ??_C@_05NJDNHCJA@miter@    0000000180068b1c     CanvasRenderingContext2d.obj
 0002:00010b24       ??_C@_06ICDKOIFG@square@   0000000180068b24     CanvasRenderingContext2d.obj
 0002:00010b2c       ??_C@_04JOGFAABP@butt@     0000000180068b2c     CanvasRenderingContext2d.obj
 0002:00010b34       ??_C@_06LGDBIFHB@repeat@   0000000180068b34     CanvasRenderingContext2d.obj
 0002:00010b40       ??_C@_0BA@LKDIBKDD@10px?5sans?9serif@ 0000000180068b40     CanvasRenderingContext2d.obj
 0002:00010b50       ??_C@_04IAGNFIBA@size@     0000000180068b50     CanvasRenderingContext2d.obj
 0002:00010b58       ??_C@_04NPEDKLDA@unit@     0000000180068b58     CanvasRenderingContext2d.obj
 0002:00010b60       ??_C@_0L@LMHKFCHN@sans?9serif@ 0000000180068b60     CanvasRenderingContext2d.obj
 0002:00010b70       ??_C@_0L@OJPAHFPD@alphabetic@ 0000000180068b70     CanvasRenderingContext2d.obj
 0002:00010b7c       ??_C@_03FGFCOCMD@top@      0000000180068b7c     CanvasRenderingContext2d.obj
 0002:00010b80       ??_C@_06PMMPCIPB@bottom@   0000000180068b80     CanvasRenderingContext2d.obj
 0002:00010b88       ??_C@_06CGLIEPEJ@middle@   0000000180068b88     CanvasRenderingContext2d.obj
 0002:00010b90       ??_C@_0M@JCPEIEF@ideographic@ 0000000180068b90     CanvasRenderingContext2d.obj
 0002:00010ba0       ??_C@_07IDCFLKHN@hanging@  0000000180068ba0     CanvasRenderingContext2d.obj
 0002:00010ba8       ??_C@_05FAGFPHJG@start@    0000000180068ba8     CanvasRenderingContext2d.obj
 0002:00010bb0       ??_C@_06BBLOAEEI@center@   0000000180068bb0     CanvasRenderingContext2d.obj
 0002:00010bb8       ??_C@_04GOOOJOPP@left@     0000000180068bb8     CanvasRenderingContext2d.obj
 0002:00010bc0       ??_C@_05DHJDAOHK@right@    0000000180068bc0     CanvasRenderingContext2d.obj
 0002:00010bc8       ??_C@_0BG@IGICBKHO@actualBoundingBoxLeft@ 0000000180068bc8     CanvasRenderingContext2d.obj
 0002:00010be0       ??_C@_0BH@KNMENBEI@actualBoundingBoxRight@ 0000000180068be0     CanvasRenderingContext2d.obj
 0002:00010bf8       ??_C@_0BI@NBNJEOJE@actualBoundingBoxAscent@ 0000000180068bf8     CanvasRenderingContext2d.obj
 0002:00010c10       ??_C@_0BJ@LKCIMDON@actualBoundingBoxDescent@ 0000000180068c10     CanvasRenderingContext2d.obj
 0002:00010c30       ??_C@_0P@FGHEPLGI@emHeightAscent@ 0000000180068c30     CanvasRenderingContext2d.obj
 0002:00010c40       ??_C@_0BA@OKENAGP@emHeightDescent@ 0000000180068c40     CanvasRenderingContext2d.obj
 0002:00010c50       ??_C@_0BD@NGFBNEGE@alphabeticBaseline@ 0000000180068c50     CanvasRenderingContext2d.obj
 0002:00010c68       ??_7Context2d@@6B@         0000000180068c68     CanvasRenderingContext2d.obj
 0002:00010c80       ??_C@_0M@CEEDCJLA@transparent@ 0000000180068c80     color.obj
 0002:00010c90       ??_C@_09GNHGKALJ@aliceblue@ 0000000180068c90     color.obj
 0002:00010ca0       ??_C@_0N@OJFLMGEJ@antiquewhite@ 0000000180068ca0     color.obj
 0002:00010cb0       ??_C@_04GANAGBLL@aqua@     0000000180068cb0     color.obj
 0002:00010cb8       ??_C@_0L@MOKEMMG@aquamarine@ 0000000180068cb8     color.obj
 0002:00010cc4       ??_C@_05CNOJAJLP@azure@    0000000180068cc4     color.obj
 0002:00010ccc       ??_C@_05EJOPPCPO@beige@    0000000180068ccc     color.obj
 0002:00010cd4       ??_C@_06HGAAELGA@bisque@   0000000180068cd4     color.obj
 0002:00010cdc       ??_C@_05BIMBDNDC@black@    0000000180068cdc     color.obj
 0002:00010ce8       ??_C@_0P@CMCBOAOE@blanchedalmond@ 0000000180068ce8     color.obj
 0002:00010cf8       ??_C@_04OBGPFBCN@blue@     0000000180068cf8     color.obj
 0002:00010d00       ??_C@_0L@LKLKALMM@blueviolet@ 0000000180068d00     color.obj
 0002:00010d0c       ??_C@_05EBJGJMAL@brown@    0000000180068d0c     color.obj
 0002:00010d18       ??_C@_09JHLANABP@burlywood@ 0000000180068d18     color.obj
 0002:00010d28       ??_C@_09KIJDGGAG@cadetblue@ 0000000180068d28     color.obj
 0002:00010d38       ??_C@_0L@CHNAEACO@chartreuse@ 0000000180068d38     color.obj
 0002:00010d48       ??_C@_09BPADAHOC@chocolate@ 0000000180068d48     color.obj
 0002:00010d54       ??_C@_05JKFECOJP@coral@    0000000180068d54     color.obj
 0002:00010d60       ??_C@_0P@KLMOGGLK@cornflowerblue@ 0000000180068d60     color.obj
 0002:00010d70       ??_C@_08DECOJLB@cornsilk@  0000000180068d70     color.obj
 0002:00010d80       ??_C@_07DAGIGOOE@crimson@  0000000180068d80     color.obj
 0002:00010d88       ??_C@_04EDBDANFH@cyan@     0000000180068d88     color.obj
 0002:00010d90       ??_C@_08MFEOPMII@darkblue@ 0000000180068d90     color.obj
 0002:00010da0       ??_C@_08GHDCKAPC@darkcyan@ 0000000180068da0     color.obj
 0002:00010db0       ??_C@_0O@GGJPBKNE@darkgoldenrod@ 0000000180068db0     color.obj
 0002:00010dc0       ??_C@_08EADAAFKF@darkgray@ 0000000180068dc0     color.obj
 0002:00010dd0       ??_C@_09MHNMOMAI@darkgreen@ 0000000180068dd0     color.obj
 0002:00010de0       ??_C@_08EHDJKNHJ@darkgrey@ 0000000180068de0     color.obj
 0002:00010df0       ??_C@_09FAPDIPMK@darkkhaki@ 0000000180068df0     color.obj
 0002:00010e00       ??_C@_0M@MEEFECHN@darkmagenta@ 0000000180068e00     color.obj
 0002:00010e10       ??_C@_0P@BGCLDNDK@darkolivegreen@ 0000000180068e10     color.obj
 0002:00010e20       ??_C@_0L@ICJJPBF@darkorange@ 0000000180068e20     color.obj
 0002:00010e30       ??_C@_0L@EEAHIPOC@darkorchid@ 0000000180068e30     color.obj
 0002:00010e40       ??_C@_07MFAOOMGP@darkred@  0000000180068e40     color.obj
 0002:00010e48       ??_C@_0L@CKNHPKLG@darksalmon@ 0000000180068e48     color.obj
 0002:00010e58       ??_C@_0N@FBOCOPGH@darkseagreen@ 0000000180068e58     color.obj
 0002:00010e68       ??_C@_0O@PABAFENG@darkslateblue@ 0000000180068e68     color.obj
 0002:00010e78       ??_C@_0O@HFGOKNPL@darkslategray@ 0000000180068e78     color.obj
 0002:00010e88       ??_C@_0O@HCGHAFCH@darkslategrey@ 0000000180068e88     color.obj
 0002:00010e98       ??_C@_0O@HKLGOIEA@darkturquoise@ 0000000180068e98     color.obj
 0002:00010ea8       ??_C@_0L@NGBKDFME@darkviolet@ 0000000180068ea8     color.obj
 0002:00010eb8       ??_C@_08CJGCPHKF@deeppink@ 0000000180068eb8     color.obj
 0002:00010ec8       ??_C@_0M@BGGBNDNG@deepskyblue@ 0000000180068ec8     color.obj
 0002:00010ed8       ??_C@_07DJPEDLIH@dimgray@  0000000180068ed8     color.obj
 0002:00010ee0       ??_C@_07DOPNJDFL@dimgrey@  0000000180068ee0     color.obj
 0002:00010ee8       ??_C@_0L@MIOOBLBJ@dodgerblue@ 0000000180068ee8     color.obj
 0002:00010ef8       ??_C@_09ELCPEDIM@firebrick@ 0000000180068ef8     color.obj
 0002:00010f08       ??_C@_0M@FFMCAIP@floralwhite@ 0000000180068f08     color.obj
 0002:00010f18       ??_C@_0M@HBKAKFBN@forestgreen@ 0000000180068f18     color.obj
 0002:00010f28       ??_C@_07FHEBJCGF@fuchsia@  0000000180068f28     color.obj
 0002:00010f30       ??_C@_09MIGKOGAO@gainsboro@ 0000000180068f30     color.obj
 0002:00010f40       ??_C@_0L@CELMEDAA@ghostwhite@ 0000000180068f40     color.obj
 0002:00010f4c       ??_C@_04DBNGNIAN@gold@     0000000180068f4c     color.obj
 0002:00010f58       ??_C@_09KJDOAGJL@goldenrod@ 0000000180068f58     color.obj
 0002:00010f64       ??_C@_05GBEEJKMC@green@    0000000180068f64     color.obj
 0002:00010f70       ??_C@_0M@LFPLFELJ@greenyellow@ 0000000180068f70     color.obj
 0002:00010f7c       ??_C@_04GDBIAANM@grey@     0000000180068f7c     color.obj
 0002:00010f88       ??_C@_08BKNCNHLL@honeydew@ 0000000180068f88     color.obj
 0002:00010f98       ??_C@_07PCCOEED@hotpink@   0000000180068f98     color.obj
 0002:00010fa0       ??_C@_09IELIJPNO@indianred@ 0000000180068fa0     color.obj
 0002:00010fac       ??_C@_06MLCCIEFE@indigo@   0000000180068fac     color.obj
 0002:00010fb4       ??_C@_05NNJJIMHF@ivory@    0000000180068fb4     color.obj
 0002:00010fbc       ??_C@_05PGGLPJAA@khaki@    0000000180068fbc     color.obj
 0002:00010fc8       ??_C@_08KJDCPJPL@lavender@ 0000000180068fc8     color.obj
 0002:00010fd8       ??_C@_0O@CCCMFNCK@lavenderblush@ 0000000180068fd8     color.obj
 0002:00010fe8       ??_C@_09MONDINDP@lawngreen@ 0000000180068fe8     color.obj
 0002:00010ff8       ??_C@_0N@ICDCAEHK@lemonchiffon@ 0000000180068ff8     color.obj
 0002:00011008       ??_C@_09NBIPJLA@lightblue@ 0000000180069008     color.obj
 0002:00011018       ??_C@_0L@BEAGLGMO@lightcoral@ 0000000180069018     color.obj
 0002:00011028       ??_C@_09KPGEKFMK@lightcyan@ 0000000180069028     color.obj
 0002:00011038       ??_C@_0BF@PJADCIND@lightgoldenrodyellow@ 0000000180069038     color.obj
 0002:00011050       ??_C@_09IIGGAAJN@lightgray@ 0000000180069050     color.obj
 0002:00011060       ??_C@_0L@OPBGACJD@lightgreen@ 0000000180069060     color.obj
 0002:00011070       ??_C@_09IPGPKIEB@lightgrey@ 0000000180069070     color.obj
 0002:00011080       ??_C@_09KOBGKMHP@lightpink@ 0000000180069080     color.obj
 0002:00011090       ??_C@_0M@ENCCHKJE@lightsalmon@ 0000000180069090     color.obj
 0002:000110a0       ??_C@_0O@BLOIENJC@lightseagreen@ 00000001800690a0     color.obj
 0002:000110b0       ??_C@_0N@JIFIFCAN@lightskyblue@ 00000001800690b0     color.obj
 0002:000110c0       ??_C@_0P@LIPDKBMK@lightslategray@ 00000001800690c0     color.obj
 0002:000110d0       ??_C@_0P@LPPKAJBG@lightslategrey@ 00000001800690d0     color.obj
 0002:000110e0       ??_C@_0P@EIHJHAMG@lightsteelblue@ 00000001800690e0     color.obj
 0002:000110f0       ??_C@_0M@FBHPKJLB@lightyellow@ 00000001800690f0     color.obj
 0002:000110fc       ??_C@_04HLLEONLG@lime@     00000001800690fc     color.obj
 0002:00011108       ??_C@_09JKHHFGDO@limegreen@ 0000000180069108     color.obj
 0002:00011114       ??_C@_05MLLCELJD@linen@    0000000180069114     color.obj
 0002:00011120       ??_C@_07EMDGAPCI@magenta@  0000000180069120     color.obj
 0002:00011128       ??_C@_06BDPIEPJF@maroon@   0000000180069128     color.obj
 0002:00011130       ??_C@_0BB@HHCOFKIC@mediumaquamarine@ 0000000180069130     color.obj
 0002:00011148       ??_C@_0L@CEFFILOH@mediumblue@ 0000000180069148     color.obj
 0002:00011158       ??_C@_0N@GIADPNAO@mediumorchid@ 0000000180069158     color.obj
 0002:00011168       ??_C@_0N@DDGNBDHJ@mediumpurple@ 0000000180069168     color.obj
 0002:00011178       ??_C@_0P@BNCCGPJD@mediumseagreen@ 0000000180069178     color.obj
 0002:00011188       ??_C@_0BA@EKIMKCFD@mediumslateblue@ 0000000180069188     color.obj
 0002:00011198       ??_C@_0BC@POGDBPNO@mediumspringgreen@ 0000000180069198     color.obj
 0002:000111b0       ??_C@_0BA@MACKBOMF@mediumturquoise@ 00000001800691b0     color.obj
 0002:000111c0       ??_C@_0BA@PNNCDMHM@mediumvioletred@ 00000001800691c0     color.obj
 0002:000111d0       ??_C@_0N@PJDKAOHK@midnightblue@ 00000001800691d0     color.obj
 0002:000111e0       ??_C@_09INCGBEJA@mintcream@ 00000001800691e0     color.obj
 0002:000111f0       ??_C@_09HABDAMOF@mistyrose@ 00000001800691f0     color.obj
 0002:00011200       ??_C@_08OIIPPDDA@moccasin@ 0000000180069200     color.obj
 0002:00011210       ??_C@_0M@OKLAMJCL@navajowhite@ 0000000180069210     color.obj
 0002:0001121c       ??_C@_04DCMEIHPF@navy@     000000018006921c     color.obj
 0002:00011228       ??_C@_07MBCGBJON@oldlace@  0000000180069228     color.obj
 0002:00011230       ??_C@_05OFIFEKBG@olive@    0000000180069230     color.obj
 0002:00011238       ??_C@_09CNLBGLAE@olivedrab@ 0000000180069238     color.obj
 0002:00011244       ??_C@_06HDDOCMMN@orange@   0000000180069244     color.obj
 0002:00011250       ??_C@_09OPJMLMBK@orangered@ 0000000180069250     color.obj
 0002:0001125c       ??_C@_06DPBADMDK@orchid@   000000018006925c     color.obj
 0002:00011268       ??_C@_0O@KONOLMEH@palegoldenrod@ 0000000180069268     color.obj
 0002:00011278       ??_C@_09NAJHJFNO@palegreen@ 0000000180069278     color.obj
 0002:00011288       ??_C@_0O@LCPHEOND@paleturquoise@ 0000000180069288     color.obj
 0002:00011298       ??_C@_0O@IPAPGMGK@palevioletred@ 0000000180069298     color.obj
 0002:000112a8       ??_C@_0L@NPJMDDDD@papayawhip@ 00000001800692a8     color.obj
 0002:000112b8       ??_C@_09GELOGGEC@peachpuff@ 00000001800692b8     color.obj
 0002:000112c4       ??_C@_04MJMKNOJB@peru@     00000001800692c4     color.obj
 0002:000112cc       ??_C@_04ECGBAEOC@pink@     00000001800692cc     color.obj
 0002:000112d4       ??_C@_04DDJGBPMH@plum@     00000001800692d4     color.obj
 0002:000112e0       ??_C@_0L@MNADNFAH@powderblue@ 00000001800692e0     color.obj
 0002:000112ec       ??_C@_06GEHONCEN@purple@   00000001800692ec     color.obj
 0002:000112f8       ??_C@_0O@JGOBAAIL@rebeccapurple@ 00000001800692f8     color.obj
 0002:00011308       ??_C@_03FAAAOPJM@red@      0000000180069308     color.obj
 0002:00011310       ??_C@_09DJJHENIF@rosybrown@ 0000000180069310     color.obj
 0002:00011320       ??_C@_09FEEJNHFN@royalblue@ 0000000180069320     color.obj
 0002:00011330       ??_C@_0M@MOEGEDCP@saddlebrown@ 0000000180069330     color.obj
 0002:0001133c       ??_C@_06FBMAEJGO@salmon@   000000018006933c     color.obj
 0002:00011348       ??_C@_0L@HLMGLGHH@sandybrown@ 0000000180069348     color.obj
 0002:00011358       ??_C@_08EKGLDJFB@seagreen@ 0000000180069358     color.obj
 0002:00011368       ??_C@_08MFJLKPPC@seashell@ 0000000180069368     color.obj
 0002:00011374       ??_C@_06CEGMHAGE@sienna@   0000000180069374     color.obj
 0002:0001137c       ??_C@_06NBGLMDBG@silver@   000000018006937c     color.obj
 0002:00011388       ??_C@_07MFCMKLDM@skyblue@  0000000180069388     color.obj
 0002:00011390       ??_C@_09DPLBEIJJ@slateblue@ 0000000180069390     color.obj
 0002:000113a0       ??_C@_09LKMPLBLE@slategray@ 00000001800693a0     color.obj
 0002:000113b0       ??_C@_09LNMGBJGI@slategrey@ 00000001800693b0     color.obj
 0002:000113bc       ??_C@_04HPKDHBOB@snow@     00000001800693bc     color.obj
 0002:000113c8       ??_C@_0M@IPKJFOEB@springgreen@ 00000001800693c8     color.obj
 0002:000113d8       ??_C@_09EKEFGALI@steelblue@ 00000001800693d8     color.obj
 0002:000113e4       ??_C@_03IIINPABG@tan@      00000001800693e4     color.obj
 0002:000113e8       ??_C@_04LJCKMMGA@teal@     00000001800693e8     color.obj
 0002:000113f0       ??_C@_07CGANODJO@thistle@  00000001800693f0     color.obj
 0002:000113f8       ??_C@_06NALDPNEI@tomato@   00000001800693f8     color.obj
 0002:00011400       ??_C@_09LFBHPEAP@turquoise@ 0000000180069400     color.obj
 0002:0001140c       ??_C@_06KNANIGBM@violet@   000000018006940c     color.obj
 0002:00011414       ??_C@_05PPOGEFHN@wheat@    0000000180069414     color.obj
 0002:0001141c       ??_C@_05PMAELIEO@white@    000000018006941c     color.obj
 0002:00011428       ??_C@_0L@FDFMBGNF@whitesmoke@ 0000000180069428     color.obj
 0002:00011434       ??_C@_06ENJNJKEL@yellow@   0000000180069434     color.obj
 0002:00011440       ??_C@_0M@GCLLLGON@yellowgreen@ 0000000180069440     color.obj
 0002:00011450       ??_C@_0O@CAFKCKKM@?$CD?$CF?42x?$CF?42x?$CF?42x@ 0000000180069450     color.obj
 0002:00011460       ??_C@_0BH@IMKFBGII@rgba?$CI?$CFd?0?5?$CFd?0?5?$CFd?0?5?$CF?42f?$CJ@ 0000000180069460     color.obj
 0002:00011478       ??_C@_04KDAMFBD@rgb?$CI@   0000000180069478     color.obj
 0002:00011480       ??_C@_05KGKCGJPO@rgba?$CI@ 0000000180069480     color.obj
 0002:00011488       ??_C@_05HBFAAOHC@hsla?$CI@ 0000000180069488     color.obj
 0002:00011490       ??_C@_04PFIFKHPC@hsl?$CI@  0000000180069490     color.obj
 0002:00011498       ??_C@_04CLILDBFP@rgba@     0000000180069498     color.obj
 0002:000114a0       ??_C@_03FNOJMHE@rgb@       00000001800694a0     color.obj
 0002:000114a4       ??_C@_04NEDOFDLO@hsla@     00000001800694a4     color.obj
 0002:000114ac       ??_C@_03LPNGANKN@hsl@      00000001800694ac     color.obj
 0002:000114b0       ??_C@_05NBEAGECF@Image@    00000001800694b0     Image.obj
 0002:000114b8       ??_C@_08IPNIAGNA@complete@ 00000001800694b8     Image.obj
 0002:000114c8       ??_C@_0N@KIMBCBLK@naturalWidth@ 00000001800694c8     Image.obj
 0002:000114d8       ??_C@_0O@DMCHDHNN@naturalHeight@ 00000001800694d8     Image.obj
 0002:000114e8       ??_C@_08ELMFDEKI@dataMode@ 00000001800694e8     Image.obj
 0002:000114f8       ??_C@_0L@ICMMJJAL@MODE_IMAGE@ 00000001800694f8     Image.obj
 0002:00011508       ??_C@_09IDBFNFDI@MODE_MIME@ 0000000180069508     Image.obj
 0002:00011518       ??_C@_09BHHNHDEH@GetSource@ 0000000180069518     Image.obj
 0002:00011528       ??_C@_09DJDIFCNF@SetSource@ 0000000180069528     Image.obj
 0002:00011534       ??_C@_06FKJAAAAK@onload@   0000000180069534     Image.obj
 0002:00011540       ??_C@_07MAAHHAB@onerror@   0000000180069540     Image.obj
 0002:00011548       ??_C@_0DH@EAEKIGFG@Method?5Image?4GetSource?5called?5o@ 0000000180069548     Image.obj
 0002:00011580       ??_C@_0DH@LKAJPGED@Method?5Image?4SetSource?5called?5o@ 0000000180069580     Image.obj
 0002:000115b8       ??_C@_0BH@DEJIGAIG@Unsupported?5image?5type@ 00000001800695b8     Image.obj
 0002:000115d0       ??_C@_02JDPG@rb@           00000001800695d0     Image.obj
 0002:000115d4       ??_C@_05FFKPLNPJ@fopen@    00000001800695d4     Image.obj
 0002:000115dc       ??_C@_06GLDDLHNF@malloc@   00000001800695dc     Image.obj
 0002:000115e8       ??_C@_0BK@DBBCPGCH@Unsupported?5JPEG?5encoding@ 00000001800695e8     Image.obj
 0002:00011668       ??_7Image@@6B@             0000000180069668     Image.obj
 0002:000116b0       ??_C@_09NIGIGFDC@ImageData@ 00000001800696b0     ImageData.obj
 0002:000116c0       ??_C@_0BK@BFELGOEH@The?5source?5width?5is?5zero?4@ 00000001800696c0     ImageData.obj
 0002:000116e0       ??_C@_0BL@EMOEEHOI@The?5source?5height?5is?5zero?4@ 00000001800696e0     ImageData.obj
 0002:00011700       ??_C@_0CH@IEOMAMPI@The?5input?5data?5has?5a?5zero?5byte?5@ 0000000180069700     ImageData.obj
 0002:00011730       ??_C@_0GB@KDECOCKL@Expected?5?$CIUint8ClampedArray?0?5wi@ 0000000180069730     ImageData.obj
 0002:00011794       ??_C@_04PJOLNDGD@data@     0000000180069794     ImageData.obj
 0002:000117a0       ??_7ImageData@@6B@         00000001800697a0     ImageData.obj
 0002:000117b8       ??_C@_0N@OGDOEBIM@cairoVersion@ 00000001800697b8     init.obj
 0002:000117c8       ??_C@_04PEOOHEKN@?$CFd?$CFc@ 00000001800697c8     init.obj
 0002:000117d0       ??_C@_02DPKJAMEF@?$CFd@    00000001800697d0     init.obj
 0002:000117d8       ??_C@_0M@PLCFBBDI@jpegVersion@ 00000001800697d8     init.obj
 0002:000117e8       ??_C@_08FOJKHHJA@?$CFd?4?$CFd?4?$CFd@ 00000001800697e8     init.obj
 0002:000117f8       ??_C@_0L@KDJIMHFH@gifVersion@ 00000001800697f8     init.obj
 0002:00011804       ??_C@_06DPJLDBDB@2?450?43@ 0000000180069804     init.obj
 0002:00011810       ??_C@_0M@KEEKNGNA@rsvgVersion@ 0000000180069810     init.obj
 0002:00011820       ??_C@_0BA@MCPGPJBI@freetypeVersion@ 0000000180069820     init.obj
 0002:00011830       ??_C@_0CJ@BILPCDG@D?3?2a?2node?9canvas?2node?9canvas?2sr@ 0000000180069830     init.obj
 0002:0001185c       ??_C@_06DODEBHEI@canvas@   000000018006985c     init.obj
 0002:00011864       ??_C@_03BNMJFLDC@MAC@      0000000180069864     register_font.obj
 0002:00011868       ??_C@_08NLKHJAFK@UTF?916BE@ 0000000180069868     register_font.obj
 0002:00011874       ??_C@_05EGJIMALK@UTF?98@   0000000180069874     register_font.obj
 0002:00011880       ??_C@_08JDDNMFDB@node?4exe@ 0000000180069880     win_delay_load_hook.obj
 0002:00011890       __pfnDliNotifyHook2        0000000180069890     win_delay_load_hook.obj
 0002:00011898       __real@00000000            0000000180069898     color.obj
 0002:0001189c       __real@3a800000            000000018006989c     CanvasRenderingContext2d.obj
 0002:000118a0       __real@3dcccccd            00000001800698a0     color.obj
 0002:000118a4       __real@3f000000            00000001800698a4     CanvasRenderingContext2d.obj
 0002:000118a8       __real@3f13cd36            00000001800698a8     CanvasRenderingContext2d.obj
 0002:000118b0       __real@3f50000000000000    00000001800698b0     CanvasRenderingContext2d.obj
 0002:000118b8       __real@3f800000            00000001800698b8     color.obj
 0002:000118c0       __real@3fe0000000000000    00000001800698c0     CanvasRenderingContext2d.obj
 0002:000118c8       __real@3fe5555555555555    00000001800698c8     CanvasRenderingContext2d.obj
 0002:000118d0       __real@3ff0000000000000    00000001800698d0     CanvasRenderingContext2d.obj
 0002:000118d8       __real@3ff6666666666666    00000001800698d8     CanvasRenderingContext2d.obj
 0002:000118e0       __real@3ff8000000000000    00000001800698e0     closure.obj
 0002:000118e8       __real@40000000            00000001800698e8     color.obj
 0002:000118f0       __real@4000000000000000    00000001800698f0     CanvasRenderingContext2d.obj
 0002:000118f8       __real@400921fb54442d18    00000001800698f8     CanvasRenderingContext2d.obj
 0002:00011900       __real@401921fb54442d18    0000000180069900     CanvasRenderingContext2d.obj
 0002:00011908       __real@40400000            0000000180069908     color.obj
 0002:00011910       __real@4043af5f6fd21ff3    0000000180069910     Canvas.obj
 0002:00011918       __real@4059000000000000    0000000180069918     Canvas.obj
 0002:00011920       __real@406fe00000000000    0000000180069920     color.obj
 0002:00011928       __real@40800000            0000000180069928     color.obj
 0002:00011930       __real@408f400000000000    0000000180069930     Canvas.obj
 0002:00011938       __real@4090000000000000    0000000180069938     CanvasRenderingContext2d.obj
 0002:00011940       __real@40c00000            0000000180069940     color.obj
 0002:00011948       __real@40c4000000000000    0000000180069948     CanvasRenderingContext2d.obj
 0002:00011950       __real@41200000            0000000180069950     color.obj
 0002:00011954       __real@42c80000            0000000180069954     color.obj
 0002:00011958       __real@437f0000            0000000180069958     color.obj
 0002:0001195c       __real@43b40000            000000018006995c     color.obj
 0002:00011960       __real@43e0000000000000    0000000180069960     closure.obj
 0002:00011968       __real@477fff00            0000000180069968     CanvasRenderingContext2d.obj
 0002:0001196c       __real@5f000000            000000018006996c     Canvas.obj
 0002:00011970       __real@7ff0000000000000    0000000180069970     CanvasRenderingContext2d.obj
 0002:00011978       __real@bff0000000000000    0000000180069978     Canvas.obj
 0002:00011980       __real@c0c00000            0000000180069980     color.obj
 0002:00011988       __real@fff0000000000000    0000000180069988     CanvasRenderingContext2d.obj
 0002:00011990       __xmm@000000000000000f0000000000000000 0000000180069990     Image.obj
 0002:000119a0       __xmm@3ff00000000000000000000000000000 00000001800699a0     CanvasRenderingContext2d.obj
 0002:000119b0       __xmm@7fffffffffffffff7fffffffffffffff 00000001800699b0     CanvasRenderingContext2d.obj
 0002:000119c0       __xmm@80000000000000008000000000000000 00000001800699c0     CanvasRenderingContext2d.obj
 0002:000119d0       __xmm@80000000800000008000000080000000 00000001800699d0     CanvasRenderingContext2d.obj
 0002:000119e0       __real@3c91a62633145c07    00000001800699e0     libucrt:acos.obj
 0002:000119e8       __real@3f0951665d321061    00000001800699e8     libucrt:acos.obj
 0002:000119f0       __real@3f51e5f887a62135    00000001800699f0     libucrt:acos.obj
 0002:000119f8       __real@3fac28d390c29690    00000001800699f8     libucrt:acos.obj
 0002:00011a00       __real@3fbb1a422982ce76    0000000180069a00     libucrt:acos.obj
 0002:00011a08       __real@3fcd1e4180029834    0000000180069a08     libucrt:acos.obj
 0002:00011a10       __real@3fd1a2bec1b7ef59    0000000180069a10     libucrt:acos.obj
 0002:00011a18       __real@3fdc7b297e269eac    0000000180069a18     libucrt:acos.obj
 0002:00011a20       __real@3fee324ab418f78d    0000000180069a20     libucrt:acos.obj
 0002:00011a28       __real@3ff5d6b12001f228    0000000180069a28     libucrt:acos.obj
 0002:00011a30       __real@3ff921fb54442d18    0000000180069a30     libucrt:acos.obj
 0002:00011a38       __real@40062021571dccfc    0000000180069a38     libucrt:acos.obj
 0002:00011a40       __real@400a4646f903cdea    0000000180069a40     libucrt:acos.obj
 0002:00011a48       ??_C@_05FFFCHCED@acosf@    0000000180069a48     libucrt:acosf.obj
 0002:00011a50       __real@3b81ce6b            0000000180069a50     libucrt:acosf.obj
 0002:00011a54       __real@3d678bdd            0000000180069a54     libucrt:acosf.obj
 0002:00011a58       __real@3e3c94dc            0000000180069a58     libucrt:acosf.obj
 0002:00011a5c       __real@3f561f0d            0000000180069a5c     libucrt:acosf.obj
 0002:00011a60       __real@3f8d6fa5            0000000180069a60     libucrt:acosf.obj
 0002:00011a64       __real@3fc90fdb            0000000180069a64     libucrt:acosf.obj
 0002:00011a68       __real@40490fdb            0000000180069a68     libucrt:acosf.obj
 0002:00011a6c       __real@bc5b3fe1            0000000180069a6c     libucrt:acosf.obj
 0002:00011a70       __real@bf800000            0000000180069a70     libucrt:acosf.obj
 0002:00011a74       ??_C@_05OOAOEJGP@fmodf@    0000000180069a74     libucrt:fmodf.obj
 0002:00011a7c       ??_C@_05KGFAIMPG@sqrtf@    0000000180069a7c     libucrt:sqrtf.obj
 0002:00011f40       __L_2_by_pi_bits           0000000180069f40     libucrt:l2_by_pi_bits.obj
 0002:00012080       ??_R4exception@std@@6B@    000000018006a080     libcpmt:xthrow.obj
 0002:000120a8       ??_R3exception@std@@8      000000018006a0a8     libcpmt:xthrow.obj
 0002:000120c0       ??_R2exception@std@@8      000000018006a0c0     libcpmt:xthrow.obj
 0002:000120d0       ??_R1A@?0A@EA@exception@std@@8 000000018006a0d0     libcpmt:xthrow.obj
 0002:000120f8       ??_R4bad_alloc@std@@6B@    000000018006a0f8     libcpmt:xthrow.obj
 0002:00012120       ??_R3bad_alloc@std@@8      000000018006a120     libcpmt:xthrow.obj
 0002:00012138       ??_R2bad_alloc@std@@8      000000018006a138     libcpmt:xthrow.obj
 0002:00012150       ??_R1A@?0A@EA@bad_alloc@std@@8 000000018006a150     libcpmt:xthrow.obj
 0002:00012178       ??_R4bad_function_call@std@@6B@ 000000018006a178     libcpmt:xthrow.obj
 0002:000121a0       ??_R3bad_function_call@std@@8 000000018006a1a0     libcpmt:xthrow.obj
 0002:000121b8       ??_R2bad_function_call@std@@8 000000018006a1b8     libcpmt:xthrow.obj
 0002:000121d0       ??_R1A@?0A@EA@bad_function_call@std@@8 000000018006a1d0     libcpmt:xthrow.obj
 0002:000121f8       ??_R4logic_error@std@@6B@  000000018006a1f8     libcpmt:xthrow.obj
 0002:00012220       ??_R3logic_error@std@@8    000000018006a220     libcpmt:xthrow.obj
 0002:00012238       ??_R2logic_error@std@@8    000000018006a238     libcpmt:xthrow.obj
 0002:00012250       ??_R1A@?0A@EA@logic_error@std@@8 000000018006a250     libcpmt:xthrow.obj
 0002:00012278       ??_R4length_error@std@@6B@ 000000018006a278     libcpmt:xthrow.obj
 0002:000122a0       ??_R3length_error@std@@8   000000018006a2a0     libcpmt:xthrow.obj
 0002:000122b8       ??_R2length_error@std@@8   000000018006a2b8     libcpmt:xthrow.obj
 0002:000122d8       ??_R1A@?0A@EA@length_error@std@@8 000000018006a2d8     libcpmt:xthrow.obj
 0002:00012300       ??_R4runtime_error@std@@6B@ 000000018006a300     libcpmt:xthrow.obj
 0002:00012328       ??_R3runtime_error@std@@8  000000018006a328     libcpmt:xthrow.obj
 0002:00012340       ??_R2runtime_error@std@@8  000000018006a340     libcpmt:xthrow.obj
 0002:00012358       ??_R1A@?0A@EA@runtime_error@std@@8 000000018006a358     libcpmt:xthrow.obj
 0002:00012380       ??_R4_Facet_base@std@@6B@  000000018006a380     libcpmt:locale0.obj
 0002:000123a8       ??_R3_Facet_base@std@@8    000000018006a3a8     libcpmt:locale0.obj
 0002:000123c0       ??_R2_Facet_base@std@@8    000000018006a3c0     libcpmt:locale0.obj
 0002:000123d0       ??_R1A@?0A@EA@_Facet_base@std@@8 000000018006a3d0     libcpmt:locale0.obj
 0002:000123f8       ??_R4_Locimp@locale@std@@6B@ 000000018006a3f8     libcpmt:locale0.obj
 0002:00012420       ??_R3_Locimp@locale@std@@8 000000018006a420     libcpmt:locale0.obj
 0002:00012438       ??_R2_Locimp@locale@std@@8 000000018006a438     libcpmt:locale0.obj
 0002:00012460       ??_R1A@?0A@EA@_Locimp@locale@std@@8 000000018006a460     libcpmt:locale0.obj
 0002:00012488       ??_R1A@?0A@EA@facet@locale@std@@8 000000018006a488     libcpmt:locale0.obj
 0002:000124b0       ??_R3facet@locale@std@@8   000000018006a4b0     libcpmt:locale0.obj
 0002:000124c8       ??_R2facet@locale@std@@8   000000018006a4c8     libcpmt:locale0.obj
 0002:000124e8       ??_R17?0A@EA@_Crt_new_delete@std@@8 000000018006a4e8     libcpmt:locale0.obj
 0002:00012510       ??_R3_Crt_new_delete@std@@8 000000018006a510     libcpmt:locale0.obj
 0002:00012528       ??_R2_Crt_new_delete@std@@8 000000018006a528     libcpmt:locale0.obj
 0002:00012538       ??_R1A@?0A@EA@_Crt_new_delete@std@@8 000000018006a538     libcpmt:locale0.obj
 0002:00012560       ??_R4bad_array_new_length@std@@6B@ 000000018006a560     libcpmt:locale.obj
 0002:00012588       ??_R3bad_array_new_length@std@@8 000000018006a588     libcpmt:locale.obj
 0002:000125a0       ??_R2bad_array_new_length@std@@8 000000018006a5a0     libcpmt:locale.obj
 0002:000125c0       ??_R1A@?0A@EA@bad_array_new_length@std@@8 000000018006a5c0     libcpmt:locale.obj
 0002:000125e8       ??_R3ctype_base@std@@8     000000018006a5e8     libcpmt:locale.obj
 0002:00012600       ??_R2ctype_base@std@@8     000000018006a600     libcpmt:locale.obj
 0002:00012628       ??_R1A@?0A@EA@ctype_base@std@@8 000000018006a628     libcpmt:locale.obj
 0002:00012650       ??_R4?$ctype@D@std@@6B@    000000018006a650     libcpmt:locale.obj
 0002:00012678       ??_R3?$ctype@D@std@@8      000000018006a678     libcpmt:locale.obj
 0002:00012690       ??_R2?$ctype@D@std@@8      000000018006a690     libcpmt:locale.obj
 0002:000126c0       ??_R1A@?0A@EA@?$ctype@D@std@@8 000000018006a6c0     libcpmt:locale.obj
 0002:000126e8       ??_R4type_info@@6B@        000000018006a6e8     LIBCMT:std_type_info_static.obj
 0002:00012710       ??_R3type_info@@8          000000018006a710     LIBCMT:std_type_info_static.obj
 0002:00012728       ??_R2type_info@@8          000000018006a728     LIBCMT:std_type_info_static.obj
 0002:00012738       ??_R1A@?0A@EA@type_info@@8 000000018006a738     LIBCMT:std_type_info_static.obj
 0002:00012760       ??_R4bad_exception@std@@6B@ 000000018006a760     libvcruntime:frame.obj
 0002:00012788       ??_R3bad_exception@std@@8  000000018006a788     libvcruntime:frame.obj
 0002:000127a0       ??_R2bad_exception@std@@8  000000018006a7a0     libvcruntime:frame.obj
 0002:000127b8       ??_R1A@?0A@EA@bad_exception@std@@8 000000018006a7b8     libvcruntime:frame.obj
 0002:00012c18       __rtc_iaa                  000000018006ac18     LIBCMT:initsect.obj
 0002:00012c20       __rtc_izz                  000000018006ac20     LIBCMT:initsect.obj
 0002:00012c28       __rtc_taa                  000000018006ac28     LIBCMT:initsect.obj
 0002:00012c30       __rtc_tzz                  000000018006ac30     LIBCMT:initsect.obj
 0002:000183b0       _CT??_R0?AVbad_alloc@std@@@8??0bad_alloc@std@@QEAA@AEBV01@@Z24 00000001800703b0     libcpmt:xthrow.obj
 0002:000183d8       _CT??_R0?AVexception@std@@@8??0exception@std@@QEAA@AEBV01@@Z24 00000001800703d8     libcpmt:xthrow.obj
 0002:00018400       _CT??_R0?AVruntime_error@std@@@8??0runtime_error@std@@QEAA@AEBV01@@Z24 0000000180070400     libcpmt:xthrow.obj
 0002:00018428       _TI2?AVbad_alloc@std@@     0000000180070428     libcpmt:xthrow.obj
 0002:00018448       _CTA2?AVbad_alloc@std@@    0000000180070448     libcpmt:xthrow.obj
 0002:00018460       _CT??_R0?AVlogic_error@std@@@8??0logic_error@std@@QEAA@AEBV01@@Z24 0000000180070460     libcpmt:xthrow.obj
 0002:00018488       _TI3?AVlength_error@std@@  0000000180070488     libcpmt:xthrow.obj
 0002:000184a8       _CTA3?AVlength_error@std@@ 00000001800704a8     libcpmt:xthrow.obj
 0002:000184c8       _CT??_R0?AVlength_error@std@@@8??0length_error@std@@QEAA@AEBV01@@Z24 00000001800704c8     libcpmt:xthrow.obj
 0002:000184f0       _TI2?AVruntime_error@std@@ 00000001800704f0     libcpmt:xthrow.obj
 0002:00018510       _CTA2?AVruntime_error@std@@ 0000000180070510     libcpmt:xthrow.obj
 0002:00018528       _TI2?AVbad_function_call@std@@ 0000000180070528     libcpmt:xthrow.obj
 0002:00018548       _CTA2?AVbad_function_call@std@@ 0000000180070548     libcpmt:xthrow.obj
 0002:00018560       _CT??_R0?AVbad_function_call@std@@@8??0bad_function_call@std@@QEAA@AEBV01@@Z24 0000000180070560     libcpmt:xthrow.obj
 0002:00018588       _TI3?AVbad_array_new_length@std@@ 0000000180070588     libcpmt:locale.obj
 0002:000185a8       _CTA3?AVbad_array_new_length@std@@ 00000001800705a8     libcpmt:locale.obj
 0002:000185c8       _CT??_R0?AVbad_array_new_length@std@@@8??0bad_array_new_length@std@@QEAA@AEBV01@@Z24 00000001800705c8     libcpmt:locale.obj
 0002:000185f0       _TI2?AVbad_exception@std@@ 00000001800705f0     libvcruntime:frame.obj
 0002:00018610       _CTA2?AVbad_exception@std@@ 0000000180070610     libvcruntime:frame.obj
 0002:00018628       _CT??_R0?AVbad_exception@std@@@8??0bad_exception@std@@QEAA@AEBV01@@Z24 0000000180070628     libvcruntime:frame.obj
 0002:00018650       _CT??_R0?AW4_cairo_status@@@84 0000000180070650     Canvas.obj
 0002:00018678       _CTA2PEAD                  0000000180070678     Canvas.obj
 0002:00018690       _CT??_R0PEAD@88            0000000180070690     Canvas.obj
 0002:000186b8       _TI2PEAD                   00000001800706b8     Canvas.obj
 0002:000186d8       _CT??_R0PEAX@88            00000001800706d8     Canvas.obj
 0002:00018700       _CTA1?AW4_cairo_status@@   0000000180070700     Canvas.obj
 0002:00018710       _TI1?AW4_cairo_status@@    0000000180070710     Canvas.obj
 0002:0001872c       __DELAY_IMPORT_DESCRIPTOR_node_exe 000000018007072c     node:node.exe
 0002:0001874c       __NULL_DELAY_IMPORT_DESCRIPTOR 000000018007074c     node:node.exe
 0002:00018ab8       \177node_NULL_THUNK_DATA_DLN 0000000180070ab8     node:node.exe
 0002:0001a778       \177node_NULL_THUNK_DATA_DLB 0000000180072778     node:node.exe
 0002:0001ad10       __IMPORT_DESCRIPTOR_KERNEL32 0000000180072d10     kernel32:KERNEL32.dll
 0002:0001ad24       __IMPORT_DESCRIPTOR_GDI32  0000000180072d24     gdi32:GDI32.dll
 0002:0001ad38       _head_D__a__temp_msys_msys64_mingw64_lib_libcairo_2_lib 0000000180072d38     libcairo-2:dgjch.o
 0002:0001ad4c       _head_D__a__temp_msys_msys64_mingw64_lib_libpng16_16_lib 0000000180072d4c     libpng16-16:dwpeh.o
 0002:0001ad60       _head_D__a__temp_msys_msys64_mingw64_lib_libjpeg_8_lib 0000000180072d60     libjpeg-8:dqkkh.o
 0002:0001ad74       _head_D__a__temp_msys_msys64_mingw64_lib_libpango_1_0_0_lib 0000000180072d74     libpango-1.0-0:dsrih.o
 0002:0001ad88       _head_D__a__temp_msys_msys64_mingw64_lib_libpangocairo_1_0_0_lib 0000000180072d88     libpangocairo-1.0-0:dsxbh.o
 0002:0001ad9c       _head_D__a__temp_msys_msys64_mingw64_lib_libgobject_2_0_0_lib 0000000180072d9c     libgobject-2.0-0:dauhh.o
 0002:0001adb0       _head_D__a__temp_msys_msys64_mingw64_lib_libglib_2_0_0_lib 0000000180072db0     libglib-2.0-0:diogh.o
 0002:0001adc4       _head_D__a__temp_msys_msys64_mingw64_lib_libgif_7_lib 0000000180072dc4     libgif-7:dykbh.o
 0002:0001add8       _head_D__a__temp_msys_msys64_mingw64_lib_libfreetype_6_lib 0000000180072dd8     libfreetype-6:dmmkh.o
 0002:0001adec       _head_D__a__temp_msys_msys64_mingw64_lib_librsvg_2_2_lib 0000000180072dec     librsvg-2-2:dewdh.o
 0002:0001ae00       __NULL_IMPORT_DESCRIPTOR   0000000180072e00     kernel32:KERNEL32.dll
 0002:0001d30c       __D__a__temp_msys_msys64_mingw64_lib_libcairo_2_lib_iname 000000018007530c     libcairo-2:dgjct.o
 0002:0001d37c       __D__a__temp_msys_msys64_mingw64_lib_libpng16_16_lib_iname 000000018007537c     libpng16-16:dwpet.o
 0002:0001d3d4       __D__a__temp_msys_msys64_mingw64_lib_libjpeg_8_lib_iname 00000001800753d4     libjpeg-8:dqkkt.o
 0002:0001d44c       __D__a__temp_msys_msys64_mingw64_lib_libpango_1_0_0_lib_iname 000000018007544c     libpango-1.0-0:dsrit.o
 0002:0001d474       __D__a__temp_msys_msys64_mingw64_lib_libpangocairo_1_0_0_lib_iname 0000000180075474     libpangocairo-1.0-0:dsxbt.o
 0002:0001d490       __D__a__temp_msys_msys64_mingw64_lib_libgobject_2_0_0_lib_iname 0000000180075490     libgobject-2.0-0:dauht.o
 0002:0001d4c8       __D__a__temp_msys_msys64_mingw64_lib_libglib_2_0_0_lib_iname 00000001800754c8     libglib-2.0-0:diogt.o
 0002:0001d4e8       __D__a__temp_msys_msys64_mingw64_lib_libgif_7_lib_iname 00000001800754e8     libgif-7:dykbt.o
 0002:0001d514       __D__a__temp_msys_msys64_mingw64_lib_libfreetype_6_lib_iname 0000000180075514     libfreetype-6:dmmkt.o
 0002:0001d534       __D__a__temp_msys_msys64_mingw64_lib_librsvg_2_2_lib_iname 0000000180075534     librsvg-2-2:dewdt.o
 0003:00000004       ?_Sync@ios_base@std@@0_NA  0000000180076004     libcpmt:ios.obj
 0003:00000010       __scrt_native_dllmain_reason 0000000180076010     LIBCMT:utility.obj
 0003:00000018       __security_cookie_complement 0000000180076018     LIBCMT:gs_cookie.obj
 0003:00000020       __security_cookie          0000000180076020     LIBCMT:gs_cookie.obj
 0003:00000028       _fltused                   0000000180076028     LIBCMT:fltused.obj
 0003:00000030       __isa_available            0000000180076030     LIBCMT:cpu_disp.obj
 0003:00000034       __isa_enabled              0000000180076034     LIBCMT:cpu_disp.obj
 0003:00000038       __memcpy_nt_iters          0000000180076038     LIBCMT:cpu_disp.obj
 0003:00000040       __memset_nt_iters          0000000180076040     LIBCMT:cpu_disp.obj
 0003:00000060       __abort_behavior           0000000180076060     libucrt:abort.obj
 0003:00000070       _iob                       0000000180076070     libucrt:_file.obj
 0003:00000180       _pctype                    0000000180076180     libucrt:ctype.obj
 0003:00000188       _pwctype                   0000000180076188     libucrt:ctype.obj
 0003:00000190       __acrt_lconv_c             0000000180076190     libucrt:localeconv.obj
 0003:00000228       __acrt_lconv               0000000180076228     libucrt:localeconv.obj
 0003:00000230       __acrt_lconv_static_decimal 0000000180076230     libucrt:localeconv.obj
 0003:00000234       __acrt_lconv_static_W_decimal 0000000180076234     libucrt:localeconv.obj
 0003:00000250       __acrt_initial_locale_data 0000000180076250     libucrt:nlsdata.obj
 0003:000003a8       __acrt_initial_locale_pointers 00000001800763a8     libucrt:nlsdata.obj
 0003:000003b8       __acrt_wide_c_locale_string 00000001800763b8     libucrt:nlsdata.obj
 0003:000003bc       __mb_cur_max               00000001800763bc     libucrt:nlsdata.obj
 0003:000003c0       __badioinfo                00000001800763c0     libucrt:ioinit.obj
 0003:00000410       _lookuptrailbytes          0000000180076410     libucrt:read.obj
 0003:00000510       __globallocalestatus       0000000180076510     libucrt:glstatus.obj
 0003:000006e0       __acrt_initial_multibyte_data 00000001800766e0     libucrt:mbctype.obj
 0003:00000c30       ?_Static@?1???$_Immortalize_memcpy_image@V_Iostream_error_category2@std@@@std@@YAAEBV_Iostream_error_category2@1@XZ@4U?$_Constexpr_immortalize_impl@V_Iostream_error_category2@std@@@1@A 0000000180076c30     Canvas.obj
 0003:00000c80       ??_R0?AVbad_alloc@std@@@8  0000000180076c80     libcpmt:xthrow.obj
 0003:00000ca8       ??_R0?AVexception@std@@@8  0000000180076ca8     libcpmt:xthrow.obj
 0003:00000cd0       ??_R0?AVruntime_error@std@@@8 0000000180076cd0     libcpmt:xthrow.obj
 0003:00000cf8       ??_R0?AVlogic_error@std@@@8 0000000180076cf8     libcpmt:xthrow.obj
 0003:00000d20       ??_R0?AVlength_error@std@@@8 0000000180076d20     libcpmt:xthrow.obj
 0003:00000d48       ??_R0?AVbad_function_call@std@@@8 0000000180076d48     libcpmt:xthrow.obj
 0003:00000d78       ??_R0?AVbad_array_new_length@std@@@8 0000000180076d78     libcpmt:locale.obj
 0003:00000da8       ??_R0?AVbad_exception@std@@@8 0000000180076da8     libvcruntime:frame.obj
 0003:00000dd0       ??_R0?AVbad_alloc@stdext@@@8 0000000180076dd0     PdfBackend.obj
 0003:00000df8       ??_R0?AW4_cairo_status@@@8 0000000180076df8     Canvas.obj
 0003:00000e20       ??_R0PEAD@8                0000000180076e20     Canvas.obj
 0003:00000e38       ??_R0PEAX@8                0000000180076e38     Canvas.obj
 0003:00000f10       ??_R0?AV_Facet_base@std@@@8 0000000180076f10     libcpmt:locale0.obj
 0003:00000f38       ??_R0?AV_Locimp@locale@std@@@8 0000000180076f38     libcpmt:locale0.obj
 0003:00000f68       ??_R0?AVfacet@locale@std@@@8 0000000180076f68     libcpmt:locale0.obj
 0003:00000f90       ??_R0?AU_Crt_new_delete@std@@@8 0000000180076f90     libcpmt:locale0.obj
 0003:00000fc0       ??_R0?AUctype_base@std@@@8 0000000180076fc0     libcpmt:locale.obj
 0003:00000fe8       ??_R0?AV?$ctype@D@std@@@8  0000000180076fe8     libcpmt:locale.obj
 0003:00001010       ??_R0?AVtype_info@@@8      0000000180077010     LIBCMT:std_type_info_static.obj
 0003:00001030       __imp_?GetCurrentContext@Isolate@v8@@QEAA?AV?$Local@VContext@v8@@@2@XZ 0000000180077030     node:node.exe
 0003:00001038       __imp_?GetCurrent@Isolate@v8@@SAPEAV12@XZ 0000000180077038     node:node.exe
 0003:00001040       __imp_??1HandleScope@v8@@QEAA@XZ 0000000180077040     node:node.exe
 0003:00001048       __imp_??0HandleScope@v8@@QEAA@PEAVIsolate@1@@Z 0000000180077048     node:node.exe
 0003:00001050       __imp_?ClearWeak@V8@v8@@CAPEAXPEAPEAVObject@internal@2@@Z 0000000180077050     node:node.exe
 0003:00001058       __imp_?MakeWeak@V8@v8@@CAXPEAPEAVObject@internal@2@PEAXP6AXAEBV?$WeakCallbackInfo@X@2@@ZW4WeakCallbackType@2@@Z 0000000180077058     node:node.exe
 0003:00001060       __imp_?DisposeGlobal@V8@v8@@CAXPEAPEAVObject@internal@2@@Z 0000000180077060     node:node.exe
 0003:00001068       __imp_?GlobalizeReference@V8@v8@@CAPEAPEAVObject@internal@2@PEAVIsolate@42@PEAPEAV342@@Z 0000000180077068     node:node.exe
 0003:00001070       __imp_?Uint32Value@Value@v8@@QEBA?AV?$Maybe@I@2@V?$Local@VContext@v8@@@2@@Z 0000000180077070     node:node.exe
 0003:00001078       __imp_?IsNumber@Value@v8@@QEBA_NXZ 0000000180077078     node:node.exe
 0003:00001080       __imp_?SetAlignedPointerInInternalField@Object@v8@@QEAAXHPEAX@Z 0000000180077080     node:node.exe
 0003:00001088       __imp_?InternalFieldCount@Object@v8@@QEAAHXZ 0000000180077088     node:node.exe
 0003:00001090       __imp_?Value@External@v8@@QEBAPEAXXZ 0000000180077090     node:node.exe
 0003:00001098       __imp_?New@External@v8@@SA?AV?$Local@VExternal@v8@@@2@PEAVIsolate@2@PEAX@Z 0000000180077098     node:node.exe
 0003:000010a0       __imp_?CheckMemoryPressure@Isolate@v8@@AEAAXXZ 00000001800770a0     node:node.exe
 0003:000010a8       __imp_?ReportExternalAllocationLimitReached@Isolate@v8@@AEAAXXZ 00000001800770a8     node:node.exe
 0003:000010b0       __imp_?CreateHandle@HandleScope@v8@@KAPEAPEAVObject@internal@2@PEAVIsolate@42@PEAV342@@Z 00000001800770b0     node:node.exe
 0003:000010b8       __imp_?CreateHandle@HandleScope@v8@@CAPEAPEAVObject@internal@2@PEAVHeapObject@42@PEAV342@@Z 00000001800770b8     node:node.exe
 0003:000010c0       __imp_?SetClassName@FunctionTemplate@v8@@QEAAXV?$Local@VString@v8@@@2@@Z 00000001800770c0     node:node.exe
 0003:000010c8       __imp_?InstanceTemplate@FunctionTemplate@v8@@QEAA?AV?$Local@VObjectTemplate@v8@@@2@XZ 00000001800770c8     node:node.exe
 0003:000010d0       __imp_?GetFunction@FunctionTemplate@v8@@QEAA?AV?$MaybeLocal@VFunction@v8@@@2@V?$Local@VContext@v8@@@2@@Z 00000001800770d0     node:node.exe
 0003:000010d8       __imp_?New@FunctionTemplate@v8@@SA?AV?$Local@VFunctionTemplate@v8@@@2@PEAVIsolate@2@P6AXAEBV?$FunctionCallbackInfo@VValue@v8@@@2@@ZV?$Local@VValue@v8@@@2@V?$Local@VSignature@v8@@@2@HW4ConstructorBehavior@2@W4SideEffectType@2@@Z 00000001800770d8     node:node.exe
 0003:000010e0       __imp_?ToLocalEmpty@V8@v8@@CAXXZ 00000001800770e0     node:node.exe
 0003:000010e8       __imp_?Escape@EscapableHandleScope@v8@@AEAAPEAPEAVObject@internal@2@PEAPEAV342@@Z 00000001800770e8     node:node.exe
 0003:000010f0       __imp_??0EscapableHandleScope@v8@@QEAA@PEAVIsolate@1@@Z 00000001800770f0     node:node.exe
 0003:000010f8       __imp_?NewFromUtf8@String@v8@@SA?AV?$MaybeLocal@VString@v8@@@2@PEAVIsolate@2@PEBDW4NewStringType@2@H@Z 00000001800770f8     node:node.exe
 0003:00001100       __imp_?SlowGetInternalField@Object@v8@@AEAA?AV?$Local@VValue@v8@@@2@H@Z 0000000180077100     node:node.exe
 0003:00001108       __imp_?SetInternalField@Object@v8@@QEAAXHV?$Local@VValue@v8@@@2@@Z 0000000180077108     node:node.exe
 0003:00001110       __imp_?Set@Object@v8@@QEAA?AV?$Maybe@_N@2@V?$Local@VContext@v8@@@2@V?$Local@VValue@v8@@@2@1@Z 0000000180077110     node:node.exe
 0003:00001118       __imp_?SetInternalFieldCount@ObjectTemplate@v8@@QEAAXH@Z 0000000180077118     node:node.exe
 0003:00001120       __imp_?NewInstance@ObjectTemplate@v8@@QEAA?AV?$MaybeLocal@VObject@v8@@@2@V?$Local@VContext@v8@@@2@@Z 0000000180077120     node:node.exe
 0003:00001128       __imp_?New@ObjectTemplate@v8@@SA?AV?$Local@VObjectTemplate@v8@@@2@PEAVIsolate@2@V?$Local@VFunctionTemplate@v8@@@2@@Z 0000000180077128     node:node.exe
 0003:00001130       __imp_??1EscapableHandleScope@v8@@QEAA@XZ 0000000180077130     node:node.exe
 0003:00001138       __imp_?New@Object@v8@@SA?AV?$Local@VObject@v8@@@2@PEAVIsolate@2@@Z 0000000180077138     node:node.exe
 0003:00001140       __imp_uv_queue_work        0000000180077140     node:node.exe
 0003:00001148       __imp_?GetIsolate@Context@v8@@QEAAPEAVIsolate@2@XZ 0000000180077148     node:node.exe
 0003:00001150       __imp_?Global@Context@v8@@QEAA?AV?$Local@VObject@v8@@@2@XZ 0000000180077150     node:node.exe
 0003:00001158       __imp_?NewFromUnsigned@Integer@v8@@SA?AV?$Local@VInteger@v8@@@2@PEAVIsolate@2@I@Z 0000000180077158     node:node.exe
 0003:00001160       __imp_?New@Signature@v8@@SA?AV?$Local@VSignature@v8@@@2@PEAVIsolate@2@V?$Local@VFunctionTemplate@v8@@@2@@Z 0000000180077160     node:node.exe
 0003:00001168       __imp_?ThrowException@Isolate@v8@@QEAA?AV?$Local@VValue@v8@@@2@V32@@Z 0000000180077168     node:node.exe
 0003:00001170       __imp_?Length@TypedArray@v8@@QEAA_KXZ 0000000180077170     node:node.exe
 0003:00001178       __imp_?Set@Template@v8@@QEAAXV?$Local@VName@v8@@@2@V?$Local@VData@v8@@@2@W4PropertyAttribute@2@@Z 0000000180077178     node:node.exe
 0003:00001180       __imp_?ByteLength@ArrayBufferView@v8@@QEAA_KXZ 0000000180077180     node:node.exe
 0003:00001188       __imp_?ByteOffset@ArrayBufferView@v8@@QEAA_KXZ 0000000180077188     node:node.exe
 0003:00001190       __imp_?Buffer@ArrayBufferView@v8@@QEAA?AV?$Local@VArrayBuffer@v8@@@2@XZ 0000000180077190     node:node.exe
 0003:00001198       __imp_?Error@Exception@v8@@SA?AV?$Local@VValue@v8@@@2@V?$Local@VString@v8@@@2@@Z 0000000180077198     node:node.exe
 0003:000011a0       __imp_?TypeError@Exception@v8@@SA?AV?$Local@VValue@v8@@@2@V?$Local@VString@v8@@@2@@Z 00000001800771a0     node:node.exe
 0003:000011a8       __imp_?New@AccessorSignature@v8@@SA?AV?$Local@VAccessorSignature@v8@@@2@PEAVIsolate@2@V?$Local@VFunctionTemplate@v8@@@2@@Z 00000001800771a8     node:node.exe
 0003:000011b0       __imp_?ValueOf@Date@v8@@QEBANXZ 00000001800771b0     node:node.exe
 0003:000011b8       __imp_?HasInstance@FunctionTemplate@v8@@QEAA_NV?$Local@VValue@v8@@@2@@Z 00000001800771b8     node:node.exe
 0003:000011c0       __imp_?PrototypeTemplate@FunctionTemplate@v8@@QEAA?AV?$Local@VObjectTemplate@v8@@@2@XZ 00000001800771c0     node:node.exe
 0003:000011c8       __imp_?GetContents@ArrayBuffer@v8@@QEAA?AVContents@12@XZ 00000001800771c8     node:node.exe
 0003:000011d0       __imp_?StrictEquals@Value@v8@@QEBA_NV?$Local@VValue@v8@@@2@@Z 00000001800771d0     node:node.exe
 0003:000011d8       __imp_?NumberValue@Value@v8@@QEBA?AV?$Maybe@N@2@V?$Local@VContext@v8@@@2@@Z 00000001800771d8     node:node.exe
 0003:000011e0       __imp_?BooleanValue@Value@v8@@QEBA?AV?$Maybe@_N@2@V?$Local@VContext@v8@@@2@@Z 00000001800771e0     node:node.exe
 0003:000011e8       __imp_?ToUint32@Value@v8@@QEBA?AV?$MaybeLocal@VUint32@v8@@@2@V?$Local@VContext@v8@@@2@@Z 00000001800771e8     node:node.exe
 0003:000011f0       __imp_?ToObject@Value@v8@@QEBA?AV?$MaybeLocal@VObject@v8@@@2@V?$Local@VContext@v8@@@2@@Z 00000001800771f0     node:node.exe
 0003:000011f8       __imp_?ToString@Value@v8@@QEBA?AV?$MaybeLocal@VString@v8@@@2@V?$Local@VContext@v8@@@2@@Z 00000001800771f8     node:node.exe
 0003:00001200       __imp_?IsUint8ClampedArray@Value@v8@@QEBA_NXZ 0000000180077200     node:node.exe
 0003:00001208       __imp_?IsArrayBufferView@Value@v8@@QEBA_NXZ 0000000180077208     node:node.exe
 0003:00001210       __imp_?IsDate@Value@v8@@QEBA_NXZ 0000000180077210     node:node.exe
 0003:00001218       __imp_?IsUint32@Value@v8@@QEBA_NXZ 0000000180077218     node:node.exe
 0003:00001220       __imp_?IsBoolean@Value@v8@@QEBA_NXZ 0000000180077220     node:node.exe
 0003:00001228       __imp_?IsObject@Value@v8@@QEBA_NXZ 0000000180077228     node:node.exe
 0003:00001230       __imp_?IsFunction@Value@v8@@QEBA_NXZ 0000000180077230     node:node.exe
 0003:00001238       __imp_?ReThrow@TryCatch@v8@@QEAA?AV?$Local@VValue@v8@@@2@XZ 0000000180077238     node:node.exe
 0003:00001240       __imp_?HasCaught@TryCatch@v8@@QEBA_NXZ 0000000180077240     node:node.exe
 0003:00001248       __imp_??1TryCatch@v8@@QEAA@XZ 0000000180077248     node:node.exe
 0003:00001250       __imp_??0TryCatch@v8@@QEAA@PEAVIsolate@1@@Z 0000000180077250     node:node.exe
 0003:00001258       __imp_?WriteUtf8@String@v8@@QEBAHPEADHPEAHH@Z 0000000180077258     node:node.exe
 0003:00001260       __imp_?Length@String@v8@@QEBAHXZ 0000000180077260     node:node.exe
 0003:00001268       __imp_?New@Number@v8@@SA?AV?$Local@VNumber@v8@@@2@PEAVIsolate@2@N@Z 0000000180077268     node:node.exe
 0003:00001270       __imp_?SlowGetAlignedPointerFromInternalField@Object@v8@@AEAAPEAXH@Z 0000000180077270     node:node.exe
 0003:00001278       __imp_?Get@Object@v8@@QEAA?AV?$MaybeLocal@VValue@v8@@@2@V?$Local@VContext@v8@@@2@V?$Local@VValue@v8@@@2@@Z 0000000180077278     node:node.exe
 0003:00001280       __imp_?Call@Function@v8@@QEAA?AV?$MaybeLocal@VValue@v8@@@2@V?$Local@VContext@v8@@@2@V?$Local@VValue@v8@@@2@HQEAV52@@Z 0000000180077280     node:node.exe
 0003:00001288       __imp_?SetAccessor@ObjectTemplate@v8@@QEAAXV?$Local@VName@v8@@@2@P6AX0AEBV?$PropertyCallbackInfo@VValue@v8@@@2@@ZP6AX0V?$Local@VValue@v8@@@2@AEBV?$PropertyCallbackInfo@X@2@@Z3W4AccessControl@2@W4PropertyAttribute@2@V?$Local@VAccessorSignature@v8@@@2@@Z 0000000180077288     node:node.exe
 0003:00001290       __imp_?EmitAsyncDestroy@node@@YAXPEAVIsolate@v8@@Uasync_context@1@@Z 0000000180077290     node:node.exe
 0003:00001298       __imp_?New@Buffer@node@@YA?AV?$MaybeLocal@VObject@v8@@@v8@@PEAVIsolate@4@PEAD_KP6AX1PEAX@Z3@Z 0000000180077298     node:node.exe
 0003:000012a0       __imp_?New@Buffer@node@@YA?AV?$MaybeLocal@VObject@v8@@@v8@@PEAVIsolate@4@PEAD_K@Z 00000001800772a0     node:node.exe
 0003:000012a8       __imp_?Copy@Buffer@node@@YA?AV?$MaybeLocal@VObject@v8@@@v8@@PEAVIsolate@4@PEBD_K@Z 00000001800772a8     node:node.exe
 0003:000012b0       __imp_?MakeCallback@node@@YA?AV?$MaybeLocal@VValue@v8@@@v8@@PEAVIsolate@3@V?$Local@VObject@v8@@@3@V?$Local@VFunction@v8@@@3@HPEAV?$Local@VValue@v8@@@3@Uasync_context@1@@Z 00000001800772b0     node:node.exe
 0003:000012b8       __imp_?EmitAsyncInit@node@@YA?AUasync_context@1@PEAVIsolate@v8@@V?$Local@VObject@v8@@@4@V?$Local@VString@v8@@@4@N@Z 00000001800772b8     node:node.exe
 0003:000012c0       __imp_uv_default_loop      00000001800772c0     node:node.exe
 0003:000012c8       __imp_?New@Uint8ClampedArray@v8@@SA?AV?$Local@VUint8ClampedArray@v8@@@2@V?$Local@VArrayBuffer@v8@@@2@_K1@Z 00000001800772c8     node:node.exe
 0003:000012d0       __imp_?New@Integer@v8@@SA?AV?$Local@VInteger@v8@@@2@PEAVIsolate@2@H@Z 00000001800772d0     node:node.exe
 0003:000012d8       __imp_?New@Array@v8@@SA?AV?$Local@VArray@v8@@@2@PEAVIsolate@2@H@Z 00000001800772d8     node:node.exe
 0003:000012e0       __imp_?Length@Array@v8@@QEBAIXZ 00000001800772e0     node:node.exe
 0003:000012e8       __imp_?New@ArrayBuffer@v8@@SA?AV?$Local@VArrayBuffer@v8@@@2@PEAVIsolate@2@_K@Z 00000001800772e8     node:node.exe
 0003:000012f0       __imp_?FromJustIsNothing@V8@v8@@CAXXZ 00000001800772f0     node:node.exe
 0003:000012f8       __imp_?InstanceOf@Value@v8@@QEAA?AV?$Maybe@_N@2@V?$Local@VContext@v8@@@2@V?$Local@VObject@v8@@@2@@Z 00000001800772f8     node:node.exe
 0003:00001300       __imp_?Int32Value@Value@v8@@QEBA?AV?$Maybe@H@2@V?$Local@VContext@v8@@@2@@Z 0000000180077300     node:node.exe
 0003:00001308       __imp_?ToInt32@Value@v8@@QEBA?AV?$MaybeLocal@VInt32@v8@@@2@V?$Local@VContext@v8@@@2@@Z 0000000180077308     node:node.exe
 0003:00001310       __imp_?IsArray@Value@v8@@QEBA_NXZ 0000000180077310     node:node.exe
 0003:00001318       __imp_?New@Float64Array@v8@@SA?AV?$Local@VFloat64Array@v8@@@2@V?$Local@VArrayBuffer@v8@@@2@_K1@Z 0000000180077318     node:node.exe
 0003:00001320       __imp_?New@Uint16Array@v8@@SA?AV?$Local@VUint16Array@v8@@@2@V?$Local@VArrayBuffer@v8@@@2@_K1@Z 0000000180077320     node:node.exe
 0003:00001328       __imp_?Get@Object@v8@@QEAA?AV?$MaybeLocal@VValue@v8@@@2@V?$Local@VContext@v8@@@2@I@Z 0000000180077328     node:node.exe
 0003:00001330       __imp_?NewInstance@Function@v8@@QEBA?AV?$MaybeLocal@VObject@v8@@@2@V?$Local@VContext@v8@@@2@HQEAV?$Local@VValue@v8@@@2@@Z 0000000180077330     node:node.exe
 0003:00001338       __imp_?New@Function@v8@@SA?AV?$MaybeLocal@VFunction@v8@@@2@V?$Local@VContext@v8@@@2@P6AXAEBV?$FunctionCallbackInfo@VValue@v8@@@2@@ZV?$Local@VValue@v8@@@2@HW4ConstructorBehavior@2@W4SideEffectType@2@@Z 0000000180077338     node:node.exe
 0003:00001340       __imp_?HasInstance@Buffer@node@@YA_NV?$Local@VValue@v8@@@v8@@@Z 0000000180077340     node:node.exe
 0003:00001348       __imp_?Data@Buffer@node@@YAPEADV?$Local@VObject@v8@@@v8@@@Z 0000000180077348     node:node.exe
 0003:00001350       __imp_?Length@Buffer@node@@YA_KV?$Local@VObject@v8@@@v8@@@Z 0000000180077350     node:node.exe
 0003:00001358       __imp_?ErrnoException@node@@YA?AV?$Local@VValue@v8@@@v8@@PEAVIsolate@3@HPEBD11@Z 0000000180077358     node:node.exe
 0003:00001360       __imp_?RangeError@Exception@v8@@SA?AV?$Local@VValue@v8@@@2@V?$Local@VString@v8@@@2@@Z 0000000180077360     node:node.exe
 0003:00001368       __imp_?IsUint16Array@Value@v8@@QEBA_NXZ 0000000180077368     node:node.exe
 0003:00001370       __imp_node_module_register 0000000180077370     node:node.exe
 0003:00001378       \177node_NULL_THUNK_DATA_DLA 0000000180077378     node:node.exe
 0003:00001380       __hmod__node_exe           0000000180077380     node:node.exe
 0003:00001390       ?_Raise_handler@std@@3P6AXAEBVexception@stdext@@@ZEA 0000000180077390     libcpmt:raisehan.obj
 0003:000014f0       ?_Id_cnt@id@locale@std@@0HA 00000001800774f0     libcpmt:locale0.obj
 0003:000014f8       ?_Clocptr@_Locimp@locale@std@@0PEAV123@EA 00000001800774f8     libcpmt:locale0.obj
 0003:00001500       ?id@?$ctype@_W@std@@2V0locale@2@A 0000000180077500     libcpmt:locale0.obj
 0003:00001508       ?id@?$ctype@D@std@@2V0locale@2@A 0000000180077508     libcpmt:locale0.obj
 0003:00001510       ?id@?$codecvt@GDU_Mbstatet@@@std@@2V0locale@2@A 0000000180077510     libcpmt:locale0.obj
 0003:00001518       ?id@?$ctype@G@std@@2V0locale@2@A 0000000180077518     libcpmt:locale0.obj
 0003:00001530       ?id@?$codecvt@_WDU_Mbstatet@@@std@@2V0locale@2@A 0000000180077530     libcpmt:locale0.obj
 0003:00001560       ?_Index@ios_base@std@@0HA  0000000180077560     libcpmt:ios.obj
 0003:000015d0       ?id@?$num_get@DV?$istreambuf_iterator@DU?$char_traits@D@std@@@std@@@std@@2V0locale@2@A 00000001800775d0     libcpmt:locale.obj
 0003:000015d8       ?id@?$num_put@DV?$ostreambuf_iterator@DU?$char_traits@D@std@@@std@@@std@@2V0locale@2@A 00000001800775d8     libcpmt:locale.obj
 0003:000015e0       ?id@?$numpunct@D@std@@2V0locale@2@A 00000001800775e0     libcpmt:locale.obj
 0003:000015e8       ?id@?$codecvt@DDU_Mbstatet@@@std@@2V0locale@2@A 00000001800775e8     libcpmt:locale.obj
 0003:000015f0       ?_Ptr_cin@std@@3PEAV?$basic_istream@DU?$char_traits@D@std@@@1@EA 00000001800775f0     libcpmt:iosptrs.obj
 0003:000015f8       ?_Ptr_cout@std@@3PEAV?$basic_ostream@DU?$char_traits@D@std@@@1@EA 00000001800775f8     libcpmt:iosptrs.obj
 0003:00001600       ?_Ptr_cerr@std@@3PEAV?$basic_ostream@DU?$char_traits@D@std@@@1@EA 0000000180077600     libcpmt:iosptrs.obj
 0003:00001608       ?_Ptr_clog@std@@3PEAV?$basic_ostream@DU?$char_traits@D@std@@@1@EA 0000000180077608     libcpmt:iosptrs.obj
 0003:00001610       ?_Ptr_wcin@std@@3PEAV?$basic_istream@_WU?$char_traits@_W@std@@@1@EA 0000000180077610     libcpmt:iosptrs.obj
 0003:00001618       ?_Ptr_wcout@std@@3PEAV?$basic_ostream@_WU?$char_traits@_W@std@@@1@EA 0000000180077618     libcpmt:iosptrs.obj
 0003:00001620       ?_Ptr_wcerr@std@@3PEAV?$basic_ostream@_WU?$char_traits@_W@std@@@1@EA 0000000180077620     libcpmt:iosptrs.obj
 0003:00001628       ?_Ptr_wclog@std@@3PEAV?$basic_ostream@_WU?$char_traits@_W@std@@@1@EA 0000000180077628     libcpmt:iosptrs.obj
 0003:00001690       ?id@?$time_put@_WV?$ostreambuf_iterator@_WU?$char_traits@_W@std@@@std@@@std@@2V0locale@2@A 0000000180077690     libcpmt:wlocale.obj
 0003:00001698       ?id@?$num_get@_WV?$istreambuf_iterator@_WU?$char_traits@_W@std@@@std@@@std@@2V0locale@2@A 0000000180077698     libcpmt:wlocale.obj
 0003:000016a0       ?id@?$num_put@_WV?$ostreambuf_iterator@_WU?$char_traits@_W@std@@@std@@@std@@2V0locale@2@A 00000001800776a0     libcpmt:wlocale.obj
 0003:000016a8       ?id@?$numpunct@_W@std@@2V0locale@2@A 00000001800776a8     libcpmt:wlocale.obj
 0003:000016b0       ?id@?$collate@_W@std@@2V0locale@2@A 00000001800776b0     libcpmt:wlocale.obj
 0003:000016b8       ?id@?$messages@_W@std@@2V0locale@2@A 00000001800776b8     libcpmt:wlocale.obj
 0003:000016c0       ?id@?$money_get@_WV?$istreambuf_iterator@_WU?$char_traits@_W@std@@@std@@@std@@2V0locale@2@A 00000001800776c0     libcpmt:wlocale.obj
 0003:000016c8       ?id@?$money_put@_WV?$ostreambuf_iterator@_WU?$char_traits@_W@std@@@std@@@std@@2V0locale@2@A 00000001800776c8     libcpmt:wlocale.obj
 0003:000016d0       ?id@?$moneypunct@_W$0A@@std@@2V0locale@2@A 00000001800776d0     libcpmt:wlocale.obj
 0003:000016d8       ?id@?$moneypunct@_W$00@std@@2V0locale@2@A 00000001800776d8     libcpmt:wlocale.obj
 0003:000016e0       ?id@?$time_get@_WV?$istreambuf_iterator@_WU?$char_traits@_W@std@@@std@@@std@@2V0locale@2@A 00000001800776e0     libcpmt:wlocale.obj
 0003:000016e8       ?id@?$num_get@GV?$istreambuf_iterator@GU?$char_traits@G@std@@@std@@@std@@2V0locale@2@A 00000001800776e8     libcpmt:wlocale.obj
 0003:000016f0       ?id@?$num_put@GV?$ostreambuf_iterator@GU?$char_traits@G@std@@@std@@@std@@2V0locale@2@A 00000001800776f0     libcpmt:wlocale.obj
 0003:000016f8       ?id@?$numpunct@G@std@@2V0locale@2@A 00000001800776f8     libcpmt:wlocale.obj
 0003:00001700       ?id@?$collate@G@std@@2V0locale@2@A 0000000180077700     libcpmt:wlocale.obj
 0003:00001708       ?id@?$messages@G@std@@2V0locale@2@A 0000000180077708     libcpmt:wlocale.obj
 0003:00001710       ?id@?$money_get@GV?$istreambuf_iterator@GU?$char_traits@G@std@@@std@@@std@@2V0locale@2@A 0000000180077710     libcpmt:wlocale.obj
 0003:00001718       ?id@?$money_put@GV?$ostreambuf_iterator@GU?$char_traits@G@std@@@std@@@std@@2V0locale@2@A 0000000180077718     libcpmt:wlocale.obj
 0003:00001720       ?id@?$moneypunct@G$0A@@std@@2V0locale@2@A 0000000180077720     libcpmt:wlocale.obj
 0003:00001728       ?id@?$moneypunct@G$00@std@@2V0locale@2@A 0000000180077728     libcpmt:wlocale.obj
 0003:00001730       ?id@?$time_get@GV?$istreambuf_iterator@GU?$char_traits@G@std@@@std@@@std@@2V0locale@2@A 0000000180077730     libcpmt:wlocale.obj
 0003:00001738       ?id@?$time_put@GV?$ostreambuf_iterator@GU?$char_traits@G@std@@@std@@@std@@2V0locale@2@A 0000000180077738     libcpmt:wlocale.obj
 0003:00001740       ?id@?$collate@D@std@@2V0locale@2@A 0000000180077740     libcpmt:xlocale.obj
 0003:00001748       ?id@?$messages@D@std@@2V0locale@2@A 0000000180077748     libcpmt:xlocale.obj
 0003:00001750       ?id@?$money_get@DV?$istreambuf_iterator@DU?$char_traits@D@std@@@std@@@std@@2V0locale@2@A 0000000180077750     libcpmt:xlocale.obj
 0003:00001758       ?id@?$money_put@DV?$ostreambuf_iterator@DU?$char_traits@D@std@@@std@@@std@@2V0locale@2@A 0000000180077758     libcpmt:xlocale.obj
 0003:00001760       ?id@?$moneypunct@D$0A@@std@@2V0locale@2@A 0000000180077760     libcpmt:xlocale.obj
 0003:00001768       ?id@?$moneypunct@D$00@std@@2V0locale@2@A 0000000180077768     libcpmt:xlocale.obj
 0003:00001770       ?id@?$time_get@DV?$istreambuf_iterator@DU?$char_traits@D@std@@@std@@@std@@2V0locale@2@A 0000000180077770     libcpmt:xlocale.obj
 0003:00001778       ?id@?$time_put@DV?$ostreambuf_iterator@DU?$char_traits@D@std@@@std@@@std@@2V0locale@2@A 0000000180077778     libcpmt:xlocale.obj
 0003:00001780       __scrt_current_native_startup_state 0000000180077780     LIBCMT:utility.obj
 0003:00001788       __scrt_native_startup_lock 0000000180077788     LIBCMT:utility.obj
 0003:000017d0       __castguard_check_failure_os_handled_fptr 00000001800777d0     LIBCMT:guard_support.obj
 0003:00001d50       __favor                    0000000180077d50     LIBCMT:cpu_disp.obj
 0003:00001d54       __scrt_debugger_hook_flag  0000000180077d54     LIBCMT:utility_desktop.obj
 0003:00001d60       ?__type_info_root_node@@3U__type_info_node@@A 0000000180077d60     LIBCMT:tncleanup.obj
 0003:00001d70       ?_OptionsStorage@?1??__local_stdio_scanf_options@@9@4_KA 0000000180077d70     LIBCMT:default_local_stdio_options.obj
 0003:00001d78       ?__WinRTOutOfMemoryExceptionCallback@@3P6APEAXXZEA 0000000180077d78     libvcruntime:ehhelpers.obj
 0003:00001e00       __pPurecall                0000000180077e00     libvcruntime:purevirt_data.obj
 0003:00001e38       ?pArgList@UnDecorator@@0PEAVReplicator@@EA 0000000180077e38     libvcruntime:undname.obj
 0003:00001e40       ?pZNameList@UnDecorator@@0PEAVReplicator@@EA 0000000180077e40     libvcruntime:undname.obj
 0003:00001e48       ?pTemplateArgList@UnDecorator@@0PEAVReplicator@@EA 0000000180077e48     libvcruntime:undname.obj
 0003:00001e50       ?gName@UnDecorator@@0PEBDEB 0000000180077e50     libvcruntime:undname.obj
 0003:00001e58       ?name@UnDecorator@@0PEBDEB 0000000180077e58     libvcruntime:undname.obj
 0003:00001e60       ?disableFlags@UnDecorator@@0KA 0000000180077e60     libvcruntime:undname.obj
 0003:00001e64       ?fExplicitTemplateParams@UnDecorator@@0_NA 0000000180077e64     libvcruntime:undname.obj
 0003:00001e65       ?fGetTemplateArgumentList@UnDecorator@@0_NA 0000000180077e65     libvcruntime:undname.obj
 0003:00001e68       ?m_pGetParameter@UnDecorator@@0P6APEADJ@ZEA 0000000180077e68     libvcruntime:undname.obj
 0003:00001e70       ?m_CHPENameOffset@UnDecorator@@0KA 0000000180077e70     libvcruntime:undname.obj
 0003:00001e74       ?m_recursionLevel@UnDecorator@@0KA 0000000180077e74     libvcruntime:undname.obj
 0003:00001ee8       _nstream                   0000000180077ee8     libucrt:_file.obj
 0003:00001ef0       __piob                     0000000180077ef0     libucrt:_file.obj
 0003:00001ef8       _cflush                    0000000180077ef8     libucrt:_file.obj
 0003:00002134       __acrt_lconv_static_null   0000000180078134     libucrt:localeconv.obj
 0003:00002138       __acrt_lconv_static_W_null 0000000180078138     libucrt:localeconv.obj
 0003:00002158       ?c_exit_complete@?1???R<lambda_6e4b09c48022b2350581041d5f6b0c4c>@@QEBA@XZ@4_NA 0000000180078158     libucrt:exit.obj
 0003:00002268       _environ_table             0000000180078268     libucrt:environment_initialization.obj
 0003:00002270       _wenviron_table            0000000180078270     libucrt:environment_initialization.obj
 0003:00002278       __dcrt_initial_wide_environment 0000000180078278     libucrt:environment_initialization.obj
 0003:00002280       __dcrt_initial_narrow_environment 0000000180078280     libucrt:environment_initialization.obj
 0003:00002288       __acrt_atexit_table        0000000180078288     libucrt:onexit.obj
 0003:000022a0       __acrt_at_quick_exit_table 00000001800782a0     libucrt:onexit.obj
 0003:000022e0       __acrt_locale_changed_data 00000001800782e0     libucrt:wsetlocale.obj
 0003:000022e8       __acrt_current_locale_data 00000001800782e8     libucrt:nlsdata.obj
 0003:000024b0       __pioinfo                  00000001800784b0     libucrt:ioinit.obj
 0003:000028b0       _nhandle                   00000001800788b0     libucrt:ioinit.obj
 0003:000028c8       __acrt_stdout_buffer       00000001800788c8     libucrt:_sftbuf.obj
 0003:000028d0       __acrt_stderr_buffer       00000001800788d0     libucrt:_sftbuf.obj
 0003:000028d8       __fma3_is_available        00000001800788d8     libucrt:fma3_available.obj
 0003:000028dc       __use_fma3_lib             00000001800788dc     libucrt:fma3_available.obj
 0003:000028e0       ?_timezone@@3V?$dual_state_global@J@__crt_state_management@@A 00000001800788e0     libucrt:timeset.obj
 0003:000028e4       ?_daylight@@3V?$dual_state_global@H@__crt_state_management@@A 00000001800788e4     libucrt:timeset.obj
 0003:000028e8       ?_dstbias@@3V?$dual_state_global@J@__crt_state_management@@A 00000001800788e8     libucrt:timeset.obj
 0003:000029d8       _mbctype                   00000001800789d8     libucrt:mbctype.obj
 0003:000029e0       _mbcasemap                 00000001800789e0     libucrt:mbctype.obj
 0003:000029e8       __acrt_current_multibyte_data 00000001800789e8     libucrt:mbctype.obj
 0003:000029f8       _pgmptr                    00000001800789f8     libucrt:argv_data.obj
 0003:00002a00       __argc                     0000000180078a00     libucrt:argv_data.obj
 0003:00002a08       __argv                     0000000180078a08     libucrt:argv_data.obj
 0003:00002a10       __wargv                    0000000180078a10     libucrt:argv_data.obj
 0003:00002a18       _acmdln                    0000000180078a18     libucrt:argv_data.obj
 0003:00002a20       _wcmdln                    0000000180078a20     libucrt:argv_data.obj
 0003:00002a28       __acrt_heap                0000000180078a28     libucrt:heap_handle.obj
 0003:00002a3c       _commode                   0000000180078a3c     libucrt:ncommode.obj
 0003:00002a48       _umaskval                  0000000180078a48     libucrt:umask.obj
 0003:00002a58       _fmode                     0000000180078a58     libucrt:txtmode.obj
 0003:00002a60       ?DloadKernel32@@3PEAUHINSTANCE__@@EA 0000000180078a60     DelayImp:delayhlp.obj
 0003:00002a68       ?DloadAcquireSRWLockExclusive@@3P6AXPEA_K@ZEA 0000000180078a68     DelayImp:delayhlp.obj
 0003:00002a70       ?DloadReleaseSRWLockExclusive@@3P6AXPEA_K@ZEA 0000000180078a70     DelayImp:delayhlp.obj
 0003:00002a78       ?DloadSrwLock@@3_KA        0000000180078a78     DelayImp:delayhlp.obj
 0003:00002a80       ?DloadSectionLockCount@@3KA 0000000180078a80     DelayImp:delayhlp.obj
 0003:00002a84       ?DloadSectionOldProtection@@3KA 0000000180078a84     DelayImp:delayhlp.obj
 0003:00002a88       ?DloadSectionCommitPermanent@@3KA 0000000180078a88     DelayImp:delayhlp.obj
 0003:00002a90       ?_Psave@?$_Facetptr@V?$ctype@D@std@@@std@@2PEBVfacet@locale@2@EB 0000000180078a90     Canvas.obj
 0003:00002a98       ?pattern_repeat_key@@3PEBU_cairo_user_data_key@@EB 0000000180078a98     CanvasPattern.obj
 0003:00002aa0       ?constructor@ImageBackend@@2V?$Persistent@VFunctionTemplate@v8@@V?$NonCopyablePersistentTraits@VFunctionTemplate@v8@@@2@@Nan@@A 0000000180078aa0     ImageBackend.obj
 0003:00002aa8       ?constructor@PdfBackend@@2V?$Persistent@VFunctionTemplate@v8@@V?$NonCopyablePersistentTraits@VFunctionTemplate@v8@@@2@@Nan@@A 0000000180078aa8     PdfBackend.obj
 0003:00002ab0       ?constructor@SvgBackend@@2V?$Persistent@VFunctionTemplate@v8@@V?$NonCopyablePersistentTraits@VFunctionTemplate@v8@@@2@@Nan@@A 0000000180078ab0     SvgBackend.obj
 0003:00002ab8       ?font_face_list@@3V?$vector@VFontFace@@V?$allocator@VFontFace@@@std@@@std@@A 0000000180078ab8     Canvas.obj
 0003:00002ad0       ?constructor@Canvas@@2V?$Persistent@VFunctionTemplate@v8@@V?$NonCopyablePersistentTraits@VFunctionTemplate@v8@@@2@@Nan@@A 0000000180078ad0     Canvas.obj
 0003:00002ad8       ?constructor@Gradient@@2V?$Persistent@VFunctionTemplate@v8@@V?$NonCopyablePersistentTraits@VFunctionTemplate@v8@@@2@@Nan@@A 0000000180078ad8     CanvasGradient.obj
 0003:00002ae0       ?constructor@Pattern@@2V?$Persistent@VFunctionTemplate@v8@@V?$NonCopyablePersistentTraits@VFunctionTemplate@v8@@@2@@Nan@@A 0000000180078ae0     CanvasPattern.obj
 0003:00002ae8       ?_parseFont@Context2d@@2V?$Persistent@VFunction@v8@@V?$NonCopyablePersistentTraits@VFunction@v8@@@2@@Nan@@A 0000000180078ae8     CanvasRenderingContext2d.obj
 0003:00002af0       ?_DOMMatrix@Context2d@@2V?$Persistent@VFunction@v8@@V?$NonCopyablePersistentTraits@VFunction@v8@@@2@@Nan@@A 0000000180078af0     CanvasRenderingContext2d.obj
 0003:00002af8       ?constructor@Context2d@@2V?$Persistent@VFunctionTemplate@v8@@V?$NonCopyablePersistentTraits@VFunctionTemplate@v8@@@2@@Nan@@A 0000000180078af8     CanvasRenderingContext2d.obj
 0003:00002b10       ?constructor@Image@@2V?$Persistent@VFunctionTemplate@v8@@V?$NonCopyablePersistentTraits@VFunctionTemplate@v8@@@2@@Nan@@A 0000000180078b10     Image.obj
 0003:00002b18       ?constructor@ImageData@@2V?$Persistent@VFunctionTemplate@v8@@V?$NonCopyablePersistentTraits@VFunctionTemplate@v8@@@2@@Nan@@A 0000000180078b18     ImageData.obj
 0003:00002b20       ?_OptionsStorage@?1??__local_stdio_printf_options@@9@4_KA 0000000180078b20     color.obj
 0003:00002b30       __dyn_tls_init_callback    0000000180078b30     <common>
 0003:00002b38       __scrt_ucrt_dll_is_in_use  0000000180078b38     <common>

 entry point at        0001:00029fe4

 Static symbols

 0000:fff80000       .debug$S                   0000000180000000     canvas.exp
 0000:fff80000       .debug$S                   0000000180000000     gdi32:GDI32.dll
 0000:fff80000       .debug$S                   0000000180000000     kernel32:KERNEL32.dll
 0000:fff80000       .debug$S                   0000000180000000     kernel32:KERNEL32.dll
 0000:fff80000       .debug$S                   0000000180000000     kernel32:KERNEL32.dll
 0000:fff80000       .debug$S                   0000000180000000     kernel32:KERNEL32.dll
 0000:fff80000       .debug$S                   0000000180000000     kernel32:KERNEL32.dll
 0000:fff80000       .debug$S                   0000000180000000     kernel32:KERNEL32.dll
 0000:fff80000       .debug$S                   0000000180000000     kernel32:KERNEL32.dll
 0000:fff80000       .debug$S                   0000000180000000     kernel32:KERNEL32.dll
 0000:fff80000       .debug$S                   0000000180000000     kernel32:KERNEL32.dll
 0000:fff80000       .debug$S                   0000000180000000     kernel32:KERNEL32.dll
 0000:fff80000       .debug$S                   0000000180000000     kernel32:KERNEL32.dll
 0000:fff80000       .debug$S                   0000000180000000     kernel32:KERNEL32.dll
 0000:fff80000       .debug$S                   0000000180000000     kernel32:KERNEL32.dll
 0000:fff80000       .debug$S                   0000000180000000     kernel32:KERNEL32.dll
 0000:fff80000       .debug$S                   0000000180000000     kernel32:KERNEL32.dll
 0000:fff80000       .debug$S                   0000000180000000     kernel32:KERNEL32.dll
 0000:fff80000       .debug$S                   0000000180000000     kernel32:KERNEL32.dll
 0000:fff80000       .debug$S                   0000000180000000     kernel32:KERNEL32.dll
 0000:fff80000       .debug$S                   0000000180000000     kernel32:KERNEL32.dll
 0000:fff80000       .debug$S                   0000000180000000     kernel32:KERNEL32.dll
 0000:fff80000       .debug$S                   0000000180000000     kernel32:KERNEL32.dll
 0000:fff80000       .debug$S                   0000000180000000     kernel32:KERNEL32.dll
 0000:fff80000       .debug$S                   0000000180000000     kernel32:KERNEL32.dll
 0000:fff80000       .debug$S                   0000000180000000     kernel32:KERNEL32.dll
 0000:fff80000       .debug$S                   0000000180000000     kernel32:KERNEL32.dll
 0000:fff80000       .debug$S                   0000000180000000     kernel32:KERNEL32.dll
 0000:fff80000       .debug$S                   0000000180000000     kernel32:KERNEL32.dll
 0000:fff80000       .debug$S                   0000000180000000     kernel32:KERNEL32.dll
 0000:fff80000       .debug$S                   0000000180000000     kernel32:KERNEL32.dll
 0000:fff80000       .debug$S                   0000000180000000     kernel32:KERNEL32.dll
 0000:fff80000       .debug$S                   0000000180000000     kernel32:KERNEL32.dll
 0000:fff80000       .debug$S                   0000000180000000     kernel32:KERNEL32.dll
 0000:fff80000       .debug$S                   0000000180000000     kernel32:KERNEL32.dll
 0000:fff80000       .debug$S                   0000000180000000     kernel32:KERNEL32.dll
 0000:fff80000       .debug$S                   0000000180000000     kernel32:KERNEL32.dll
 0000:fff80000       .debug$S                   0000000180000000     kernel32:KERNEL32.dll
 0000:fff80000       .debug$S                   0000000180000000     kernel32:KERNEL32.dll
 0000:fff80000       .debug$S                   0000000180000000     kernel32:KERNEL32.dll
 0000:fff80000       .debug$S                   0000000180000000     kernel32:KERNEL32.dll
 0000:fff80000       .debug$S                   0000000180000000     kernel32:KERNEL32.dll
 0000:fff80000       .debug$S                   0000000180000000     kernel32:KERNEL32.dll
 0000:fff80000       .debug$S                   0000000180000000     kernel32:KERNEL32.dll
 0000:fff80000       .debug$S                   0000000180000000     kernel32:KERNEL32.dll
 0000:fff80000       .debug$S                   0000000180000000     kernel32:KERNEL32.dll
 0000:fff80000       .debug$S                   0000000180000000     kernel32:KERNEL32.dll
 0000:fff80000       .debug$S                   0000000180000000     kernel32:KERNEL32.dll
 0000:fff80000       .debug$S                   0000000180000000     kernel32:KERNEL32.dll
 0000:fff80000       .debug$S                   0000000180000000     kernel32:KERNEL32.dll
 0000:fff80000       .debug$S                   0000000180000000     kernel32:KERNEL32.dll
 0000:fff80000       .debug$S                   0000000180000000     kernel32:KERNEL32.dll
 0000:fff80000       .debug$S                   0000000180000000     kernel32:KERNEL32.dll
 0000:fff80000       .debug$S                   0000000180000000     kernel32:KERNEL32.dll
 0000:fff80000       .debug$S                   0000000180000000     kernel32:KERNEL32.dll
 0000:fff80000       .debug$S                   0000000180000000     kernel32:KERNEL32.dll
 0000:fff80000       .debug$S                   0000000180000000     kernel32:KERNEL32.dll
 0000:fff80000       .debug$S                   0000000180000000     kernel32:KERNEL32.dll
 0000:fff80000       .debug$S                   0000000180000000     kernel32:KERNEL32.dll
 0000:fff80000       .debug$S                   0000000180000000     kernel32:KERNEL32.dll
 0000:fff80000       .debug$S                   0000000180000000     kernel32:KERNEL32.dll
 0000:fff80000       .debug$S                   0000000180000000     kernel32:KERNEL32.dll
 0000:fff80000       .debug$S                   0000000180000000     kernel32:KERNEL32.dll
 0000:fff80000       .debug$S                   0000000180000000     kernel32:KERNEL32.dll
 0000:fff80000       .debug$S                   0000000180000000     kernel32:KERNEL32.dll
 0000:fff80000       .debug$S                   0000000180000000     kernel32:KERNEL32.dll
 0000:fff80000       .debug$S                   0000000180000000     kernel32:KERNEL32.dll
 0000:fff80000       .debug$S                   0000000180000000     kernel32:KERNEL32.dll
 0000:fff80000       .debug$S                   0000000180000000     kernel32:KERNEL32.dll
 0000:fff80000       .debug$S                   0000000180000000     kernel32:KERNEL32.dll
 0000:fff80000       .debug$S                   0000000180000000     kernel32:KERNEL32.dll
 0000:fff80000       .debug$S                   0000000180000000     kernel32:KERNEL32.dll
 0000:fff80000       .debug$S                   0000000180000000     kernel32:KERNEL32.dll
 0000:fff80000       .debug$S                   0000000180000000     kernel32:KERNEL32.dll
 0000:fff80000       .debug$S                   0000000180000000     kernel32:KERNEL32.dll
 0000:fff80000       .debug$S                   0000000180000000     kernel32:KERNEL32.dll
 0000:fff80000       .debug$S                   0000000180000000     kernel32:KERNEL32.dll
 0000:fff80000       .debug$S                   0000000180000000     kernel32:KERNEL32.dll
 0000:fff80000       .debug$S                   0000000180000000     kernel32:KERNEL32.dll
 0000:fff80000       .debug$S                   0000000180000000     kernel32:KERNEL32.dll
 0000:fff80000       .debug$S                   0000000180000000     kernel32:KERNEL32.dll
 0000:fff80000       .debug$S                   0000000180000000     kernel32:KERNEL32.dll
 0000:fff80000       .debug$S                   0000000180000000     kernel32:KERNEL32.dll
 0000:fff80000       .debug$S                   0000000180000000     kernel32:KERNEL32.dll
 0000:fff80000       .debug$S                   0000000180000000     kernel32:KERNEL32.dll
 0000:fff80000       .debug$S                   0000000180000000     kernel32:KERNEL32.dll
 0000:fff80000       .debug$S                   0000000180000000     kernel32:KERNEL32.dll
 0000:fff80000       .debug$S                   0000000180000000     kernel32:KERNEL32.dll
 0000:fff80000       .debug$S                   0000000180000000     kernel32:KERNEL32.dll
 0000:fff80000       .debug$S                   0000000180000000     kernel32:KERNEL32.dll
 0000:fff80000       .debug$S                   0000000180000000     kernel32:KERNEL32.dll
 0000:fff80000       .debug$S                   0000000180000000     kernel32:KERNEL32.dll
 0000:fff80000       .debug$S                   0000000180000000     kernel32:KERNEL32.dll
 0000:fff80000       .debug$S                   0000000180000000     kernel32:KERNEL32.dll
 0000:fff80000       .debug$S                   0000000180000000     kernel32:KERNEL32.dll
 0000:fff80000       .debug$S                   0000000180000000     kernel32:KERNEL32.dll
 0000:fff80000       .debug$S                   0000000180000000     kernel32:KERNEL32.dll
 0000:fff80000       .debug$S                   0000000180000000     kernel32:KERNEL32.dll
 0000:fff80000       .debug$S                   0000000180000000     kernel32:KERNEL32.dll
 0000:fff80000       .debug$S                   0000000180000000     kernel32:KERNEL32.dll
 0000:fff80000       .debug$S                   0000000180000000     kernel32:KERNEL32.dll
 0000:fff80000       .debug$S                   0000000180000000     kernel32:KERNEL32.dll
 0000:fff80000       .debug$S                   0000000180000000     kernel32:KERNEL32.dll
 0000:fff80000       .debug$S                   0000000180000000     kernel32:KERNEL32.dll
 0000:fff80000       .debug$S                   0000000180000000     kernel32:KERNEL32.dll
 0000:fff80000       .debug$S                   0000000180000000     kernel32:KERNEL32.dll
 0000:fff80000       .debug$S                   0000000180000000     kernel32:KERNEL32.dll
 0000:fff80000       .debug$S                   0000000180000000     kernel32:KERNEL32.dll
 0000:fff80000       .debug$S                   0000000180000000     node:node.exe
 0000:fff80000       .debug$S                   0000000180000000     node:node.exe
 0000:fff80000       .debug$S                   0000000180000000     node:node.exe
 0000:fff80000       .debug$S                   0000000180000000     node:node.exe
 0000:fff80000       .debug$S                   0000000180000000     node:node.exe
 0000:fff80000       .debug$S                   0000000180000000     node:node.exe
 0000:fff80000       .debug$S                   0000000180000000     node:node.exe
 0000:fff80000       .debug$S                   0000000180000000     node:node.exe
 0000:fff80000       .debug$S                   0000000180000000     node:node.exe
 0000:fff80000       .debug$S                   0000000180000000     node:node.exe
 0000:fff80000       .debug$S                   0000000180000000     node:node.exe
 0000:fff80000       .debug$S                   0000000180000000     node:node.exe
 0000:fff80000       .debug$S                   0000000180000000     node:node.exe
 0000:fff80000       .debug$S                   0000000180000000     node:node.exe
 0000:fff80000       .debug$S                   0000000180000000     node:node.exe
 0000:fff80000       .debug$S                   0000000180000000     node:node.exe
 0000:fff80000       .debug$S                   0000000180000000     node:node.exe
 0000:fff80000       .debug$S                   0000000180000000     node:node.exe
 0000:fff80000       .debug$S                   0000000180000000     node:node.exe
 0000:fff80000       .debug$S                   0000000180000000     node:node.exe
 0000:fff80000       .debug$S                   0000000180000000     node:node.exe
 0000:fff80000       .debug$S                   0000000180000000     node:node.exe
 0000:fff80000       .debug$S                   0000000180000000     node:node.exe
 0000:fff80000       .debug$S                   0000000180000000     node:node.exe
 0000:fff80000       .debug$S                   0000000180000000     node:node.exe
 0000:fff80000       .debug$S                   0000000180000000     node:node.exe
 0000:fff80000       .debug$S                   0000000180000000     node:node.exe
 0000:fff80000       .debug$S                   0000000180000000     node:node.exe
 0000:fff80000       .debug$S                   0000000180000000     node:node.exe
 0000:fff80000       .debug$S                   0000000180000000     node:node.exe
 0000:fff80000       .debug$S                   0000000180000000     node:node.exe
 0000:fff80000       .debug$S                   0000000180000000     node:node.exe
 0000:fff80000       .debug$S                   0000000180000000     node:node.exe
 0000:fff80000       .debug$S                   0000000180000000     node:node.exe
 0000:fff80000       .debug$S                   0000000180000000     node:node.exe
 0000:fff80000       .debug$S                   0000000180000000     node:node.exe
 0000:fff80000       .debug$S                   0000000180000000     node:node.exe
 0000:fff80000       .debug$S                   0000000180000000     node:node.exe
 0000:fff80000       .debug$S                   0000000180000000     node:node.exe
 0000:fff80000       .debug$S                   0000000180000000     node:node.exe
 0000:fff80000       .debug$S                   0000000180000000     node:node.exe
 0000:fff80000       .debug$S                   0000000180000000     node:node.exe
 0000:fff80000       .debug$S                   0000000180000000     node:node.exe
 0000:fff80000       .debug$S                   0000000180000000     node:node.exe
 0000:fff80000       .debug$S                   0000000180000000     node:node.exe
 0000:fff80000       .debug$S                   0000000180000000     node:node.exe
 0000:fff80000       .debug$S                   0000000180000000     node:node.exe
 0000:fff80000       .debug$S                   0000000180000000     node:node.exe
 0000:fff80000       .debug$S                   0000000180000000     node:node.exe
 0000:fff80000       .debug$S                   0000000180000000     node:node.exe
 0000:fff80000       .debug$S                   0000000180000000     node:node.exe
 0000:fff80000       .debug$S                   0000000180000000     node:node.exe
 0000:fff80000       .debug$S                   0000000180000000     node:node.exe
 0000:fff80000       .debug$S                   0000000180000000     node:node.exe
 0000:fff80000       .debug$S                   0000000180000000     node:node.exe
 0000:fff80000       .debug$S                   0000000180000000     node:node.exe
 0000:fff80000       .debug$S                   0000000180000000     node:node.exe
 0000:fff80000       .debug$S                   0000000180000000     node:node.exe
 0000:fff80000       .debug$S                   0000000180000000     node:node.exe
 0000:fff80000       .debug$S                   0000000180000000     node:node.exe
 0000:fff80000       .debug$S                   0000000180000000     node:node.exe
 0000:fff80000       .debug$S                   0000000180000000     node:node.exe
 0000:fff80000       .debug$S                   0000000180000000     node:node.exe
 0000:fff80000       .debug$S                   0000000180000000     node:node.exe
 0000:fff80000       .debug$S                   0000000180000000     node:node.exe
 0000:fff80000       .debug$S                   0000000180000000     node:node.exe
 0000:fff80000       .debug$S                   0000000180000000     node:node.exe
 0000:fff80000       .debug$S                   0000000180000000     node:node.exe
 0000:fff80000       .debug$S                   0000000180000000     node:node.exe
 0000:fff80000       .debug$S                   0000000180000000     node:node.exe
 0000:fff80000       .debug$S                   0000000180000000     node:node.exe
 0000:fff80000       .debug$S                   0000000180000000     node:node.exe
 0000:fff80000       .debug$S                   0000000180000000     node:node.exe
 0000:fff80000       .debug$S                   0000000180000000     node:node.exe
 0000:fff80000       .debug$S                   0000000180000000     node:node.exe
 0000:fff80000       .debug$S                   0000000180000000     node:node.exe
 0000:fff80000       .debug$S                   0000000180000000     node:node.exe
 0000:fff80000       .debug$S                   0000000180000000     node:node.exe
 0000:fff80000       .debug$S                   0000000180000000     node:node.exe
 0000:fff80000       .debug$S                   0000000180000000     node:node.exe
 0000:fff80000       .debug$S                   0000000180000000     node:node.exe
 0000:fff80000       .debug$S                   0000000180000000     node:node.exe
 0000:fff80000       .debug$S                   0000000180000000     node:node.exe
 0000:fff80000       .debug$S                   0000000180000000     node:node.exe
 0000:fff80000       .debug$S                   0000000180000000     node:node.exe
 0000:fff80000       .debug$S                   0000000180000000     node:node.exe
 0000:fff80000       .debug$S                   0000000180000000     node:node.exe
 0000:fff80000       .debug$S                   0000000180000000     node:node.exe
 0000:fff80000       .debug$S                   0000000180000000     node:node.exe
 0000:fff80000       .debug$S                   0000000180000000     node:node.exe
 0000:fff80000       .debug$S                   0000000180000000     node:node.exe
 0000:fff80000       .debug$S                   0000000180000000     node:node.exe
 0000:fff80000       .debug$S                   0000000180000000     node:node.exe
 0000:fff80000       .debug$S                   0000000180000000     node:node.exe
 0000:fff80000       .debug$S                   0000000180000000     node:node.exe
 0000:fff80000       .debug$S                   0000000180000000     node:node.exe
 0000:fff80000       .debug$S                   0000000180000000     node:node.exe
 0000:fff80000       .debug$S                   0000000180000000     node:node.exe
 0000:fff80000       .debug$S                   0000000180000000     node:node.exe
 0000:fff80000       .debug$S                   0000000180000000     node:node.exe
 0000:fff80000       .debug$S                   0000000180000000     node:node.exe
 0000:fff80000       .debug$S                   0000000180000000     node:node.exe
 0000:fff80000       .debug$S                   0000000180000000     node:node.exe
 0000:fff80000       .debug$S                   0000000180000000     node:node.exe
 0000:fff80000       .debug$S                   0000000180000000     node:node.exe
 0000:fff80000       .debug$S                   0000000180000000     node:node.exe
 0000:fff80000       .debug$S                   0000000180000000     node:node.exe
 0000:fff80000       .debug$S                   0000000180000000     node:node.exe
 0000:fff80000       .debug$S                   0000000180000000     node:node.exe
 0000:fff80000       .debug$S                   0000000180000000     node:node.exe
 0000:fff80000       .debug$S                   0000000180000000     node:node.exe
 0000:fff80000       .debug$S                   0000000180000000     node:node.exe
 0000:fff80000       .debug$S                   0000000180000000     node:node.exe
 0000:fff80000       .debug$S                   0000000180000000     node:node.exe
 0000:fff80000       .debug$S                   0000000180000000     node:node.exe
 0000:fff80000       .debug$S                   0000000180000000     node:node.exe
 0000:fff80000       .debug$S                   0000000180000000     node:node.exe
 0000:fff80000       .debug$S                   0000000180000000     node:node.exe
 0000:fff80000       .debug$S                   0000000180000000     node:node.exe
 0000:fff80000       .debug$S                   0000000180000000     node:node.exe
 0000:fff80000       .debug$S                   0000000180000000     node:node.exe
 0000:fff80000       .debug$S                   0000000180000000     node:node.exe
 0000:fff80000       .debug$S                   0000000180000000     node:node.exe
 0000:fff80000       .debug$S                   0000000180000000     node:node.exe
 0001:00000000       .text                      0000000180001000     libcairo-2:dgjcs01146.o
 0001:00000008       .text                      0000000180001008     libcairo-2:dgjcs01137.o
 0001:00000010       .text                      0000000180001010     libcairo-2:dgjcs01179.o
 0001:00000018       .text                      0000000180001018     libcairo-2:dgjcs00939.o
 0001:00000020       .text                      0000000180001020     libcairo-2:dgjcs00946.o
 0001:00000028       .text                      0000000180001028     libcairo-2:dgjcs01147.o
 0001:00000030       .text                      0000000180001030     libcairo-2:dgjcs00943.o
 0001:00000038       .text                      0000000180001038     libcairo-2:dgjcs01021.o
 0001:00000040       .text                      0000000180001040     libcairo-2:dgjcs01017.o
 0001:00000048       .text                      0000000180001048     libcairo-2:dgjcs01186.o
 0001:00000050       .text                      0000000180001050     libcairo-2:dgjcs00944.o
 0001:00000058       .text                      0000000180001058     libcairo-2:dgjcs00854.o
 0001:00000060       .text                      0000000180001060     libcairo-2:dgjcs00945.o
 0001:00000068       .text                      0000000180001068     libcairo-2:dgjcs01148.o
 0001:00000070       .text                      0000000180001070     libcairo-2:dgjcs01019.o
 0001:00000078       .text                      0000000180001078     libcairo-2:dgjcs01121.o
 0001:00000080       .text                      0000000180001080     libcairo-2:dgjcs00947.o
 0001:00000088       .text                      0000000180001088     libcairo-2:dgjcs00851.o
 0001:00000090       .text                      0000000180001090     libcairo-2:dgjcs00987.o
 0001:00000098       .text                      0000000180001098     libcairo-2:dgjcs00991.o
 0001:000000a0       .text                      00000001800010a0     libcairo-2:dgjcs00989.o
 0001:000000a8       .text                      00000001800010a8     libcairo-2:dgjcs00995.o
 0001:000000b0       .text                      00000001800010b0     libcairo-2:dgjcs01012.o
 0001:000000b8       .text                      00000001800010b8     libcairo-2:dgjcs01007.o
 0001:000000c0       .text                      00000001800010c0     libcairo-2:dgjcs00988.o
 0001:000000c8       .text                      00000001800010c8     libcairo-2:dgjcs00984.o
 0001:000000d0       .text                      00000001800010d0     libcairo-2:dgjcs00949.o
 0001:000000d8       .text                      00000001800010d8     libcairo-2:dgjcs01124.o
 0001:000000e0       .text                      00000001800010e0     libcairo-2:dgjcs01000.o
 0001:000000e8       .text                      00000001800010e8     libcairo-2:dgjcs01162.o
 0001:000000f0       .text                      00000001800010f0     libcairo-2:dgjcs01084.o
 0001:000000f8       .text                      00000001800010f8     libcairo-2:dgjcs00924.o
 0001:00000100       .text                      0000000180001100     libcairo-2:dgjcs00842.o
 0001:00000108       .text                      0000000180001108     libcairo-2:dgjcs01140.o
 0001:00000110       .text                      0000000180001110     libcairo-2:dgjcs01052.o
 0001:00000118       .text                      0000000180001118     libcairo-2:dgjcs01120.o
 0001:00000120       .text                      0000000180001120     libcairo-2:dgjcs00999.o
 0001:00000128       .text                      0000000180001128     libcairo-2:dgjcs01129.o
 0001:00000130       .text                      0000000180001130     libcairo-2:dgjcs01136.o
 0001:00000138       .text                      0000000180001138     libcairo-2:dgjcs00875.o
 0001:00000140       .text                      0000000180001140     libcairo-2:dgjcs01119.o
 0001:00000148       .text                      0000000180001148     libcairo-2:dgjcs00929.o
 0001:00000150       .text                      0000000180001150     libcairo-2:dgjcs00954.o
 0001:00000158       .text                      0000000180001158     libcairo-2:dgjcs01010.o
 0001:00000160       .text                      0000000180001160     libcairo-2:dgjcs00876.o
 0001:00000168       .text                      0000000180001168     libcairo-2:dgjcs01133.o
 0001:00000170       .text                      0000000180001170     libcairo-2:dgjcs01082.o
 0001:00000178       .text                      0000000180001178     libcairo-2:dgjcs00951.o
 0001:00000180       .text                      0000000180001180     libcairo-2:dgjcs01114.o
 0001:00000188       .text                      0000000180001188     libcairo-2:dgjcs00982.o
 0001:00000190       .text                      0000000180001190     libcairo-2:dgjcs01037.o
 0001:00000198       .text                      0000000180001198     libcairo-2:dgjcs01138.o
 0001:000001a0       .text                      00000001800011a0     libcairo-2:dgjcs00979.o
 0001:000001a8       .text                      00000001800011a8     libcairo-2:dgjcs00921.o
 0001:000001b0       .text                      00000001800011b0     libcairo-2:dgjcs01009.o
 0001:000001b8       .text                      00000001800011b8     libcairo-2:dgjcs00926.o
 0001:000001c0       .text                      00000001800011c0     libcairo-2:dgjcs00912.o
 0001:000001c8       .text                      00000001800011c8     libcairo-2:dgjcs01128.o
 0001:000001d0       .text                      00000001800011d0     libcairo-2:dgjcs00850.o
 0001:000001d8       .text                      00000001800011d8     libcairo-2:dgjcs01126.o
 0001:000001e0       .text                      00000001800011e0     libcairo-2:dgjcs01085.o
 0001:000001e8       .text                      00000001800011e8     libcairo-2:dgjcs01217.o
 0001:000001f0       .text                      00000001800011f0     libcairo-2:dgjcs00996.o
 0001:000001f8       .text                      00000001800011f8     libcairo-2:dgjcs01122.o
 0001:00000200       .text                      0000000180001200     libcairo-2:dgjcs01161.o
 0001:00000208       .text                      0000000180001208     libcairo-2:dgjcs00877.o
 0001:00000210       .text                      0000000180001210     libcairo-2:dgjcs01005.o
 0001:00000218       .text                      0000000180001218     libcairo-2:dgjcs01083.o
 0001:00000220       .text                      0000000180001220     libcairo-2:dgjcs01139.o
 0001:00000228       .text                      0000000180001228     libcairo-2:dgjcs00955.o
 0001:00000230       .text                      0000000180001230     libcairo-2:dgjcs01025.o
 0001:00000238       .text                      0000000180001238     libcairo-2:dgjcs00914.o
 0001:00000240       .text                      0000000180001240     libcairo-2:dgjcs00925.o
 0001:00000248       .text                      0000000180001248     libcairo-2:dgjcs00997.o
 0001:00000250       .text                      0000000180001250     libcairo-2:dgjcs00840.o
 0001:00000258       .text                      0000000180001258     libcairo-2:dgjcs00980.o
 0001:00000260       .text                      0000000180001260     libcairo-2:dgjcs00938.o
 0001:00000268       .text                      0000000180001268     libcairo-2:dgjcs00922.o
 0001:00000270       .text                      0000000180001270     libcairo-2:dgjcs00950.o
 0001:00000278       .text                      0000000180001278     libcairo-2:dgjcs00983.o
 0001:00000280       .text                      0000000180001280     libcairo-2:dgjcs01112.o
 0001:00000288       .text                      0000000180001288     libcairo-2:dgjcs00915.o
 0001:00000290       .text                      0000000180001290     libcairo-2:dgjcs01113.o
 0001:00000298       .text                      0000000180001298     libcairo-2:dgjcs01205.o
 0001:000002a0       .text                      00000001800012a0     libcairo-2:dgjcs00846.o
 0001:000002a8       .text                      00000001800012a8     libcairo-2:dgjcs00841.o
 0001:000002b0       .text                      00000001800012b0     libcairo-2:dgjcs00923.o
 0001:000002b8       .text                      00000001800012b8     libcairo-2:dgjcs01006.o
 0001:000002c0       .text                      00000001800012c0     libcairo-2:dgjcs00845.o
 0001:000002c8       .text                      00000001800012c8     libcairo-2:dgjcs01123.o
 0001:000002d0       .text                      00000001800012d0     libcairo-2:dgjcs00913.o
 0001:000002d8       .text                      00000001800012d8     libcairo-2:dgjcs01206.o
 0001:000002e0       .text                      00000001800012e0     libcairo-2:dgjcs01002.o
 0001:000002e8       .text                      00000001800012e8     libcairo-2:dgjcs00852.o
 0001:000002f0       .text                      00000001800012f0     libcairo-2:dgjcs00903.o
 0001:000002f8       .text                      00000001800012f8     libcairo-2:dgjcs00941.o
 0001:00000300       .text                      0000000180001300     libcairo-2:dgjcs00942.o
 0001:00000308       .text                      0000000180001308     libcairo-2:dgjcs00940.o
 0001:00000310       .text                      0000000180001310     libcairo-2:dgjcs01176.o
 0001:00000318       .text                      0000000180001318     libcairo-2:dgjcs01219.o
 0001:00000320       .text                      0000000180001320     libpng16-16:dwpes00019.o
 0001:00000328       .text                      0000000180001328     libpng16-16:dwpes00155.o
 0001:00000330       .text                      0000000180001330     libpng16-16:dwpes00247.o
 0001:00000338       .text                      0000000180001338     libpng16-16:dwpes00233.o
 0001:00000340       .text                      0000000180001340     libpng16-16:dwpes00204.o
 0001:00000348       .text                      0000000180001348     libpng16-16:dwpes00198.o
 0001:00000350       .text                      0000000180001350     libpng16-16:dwpes00129.o
 0001:00000358       .text                      0000000180001358     libpng16-16:dwpes00058.o
 0001:00000360       .text                      0000000180001360     libpng16-16:dwpes00260.o
 0001:00000368       .text                      0000000180001368     libpng16-16:dwpes00206.o
 0001:00000370       .text                      0000000180001370     libpng16-16:dwpes00259.o
 0001:00000378       .text                      0000000180001378     libpng16-16:dwpes00044.o
 0001:00000380       .text                      0000000180001380     libpng16-16:dwpes00205.o
 0001:00000388       .text                      0000000180001388     libpng16-16:dwpes00150.o
 0001:00000390       .text                      0000000180001390     libpng16-16:dwpes00181.o
 0001:00000398       .text                      0000000180001398     libpng16-16:dwpes00016.o
 0001:000003a0       .text                      00000001800013a0     libpng16-16:dwpes00168.o
 0001:000003a8       .text                      00000001800013a8     libpng16-16:dwpes00149.o
 0001:000003b0       .text                      00000001800013b0     libpng16-16:dwpes00245.o
 0001:000003b8       .text                      00000001800013b8     libpng16-16:dwpes00011.o
 0001:000003c0       .text                      00000001800013c0     libpng16-16:dwpes00180.o
 0001:000003c8       .text                      00000001800013c8     libpng16-16:dwpes00255.o
 0001:000003d0       .text                      00000001800013d0     libpng16-16:dwpes00020.o
 0001:000003d8       .text                      00000001800013d8     libpng16-16:dwpes00015.o
 0001:000003e0       .text                      00000001800013e0     libjpeg-8:dqkks00091.o
 0001:000003e8       .text                      00000001800013e8     libjpeg-8:dqkks00090.o
 0001:000003f0       .text                      00000001800013f0     libjpeg-8:dqkks00029.o
 0001:000003f8       .text                      00000001800013f8     libjpeg-8:dqkks00096.o
 0001:00000400       .text                      0000000180001400     libjpeg-8:dqkks00046.o
 0001:00000408       .text                      0000000180001408     libjpeg-8:dqkks00087.o
 0001:00000410       .text                      0000000180001410     libjpeg-8:dqkks00052.o
 0001:00000418       .text                      0000000180001418     libjpeg-8:dqkks00106.o
 0001:00000420       .text                      0000000180001420     libjpeg-8:dqkks00093.o
 0001:00000428       .text                      0000000180001428     libjpeg-8:dqkks00030.o
 0001:00000430       .text                      0000000180001430     libjpeg-8:dqkks00047.o
 0001:00000438       .text                      0000000180001438     libjpeg-8:dqkks00080.o
 0001:00000440       .text                      0000000180001440     libjpeg-8:dqkks00094.o
 0001:00000448       .text                      0000000180001448     libjpeg-8:dqkks00098.o
 0001:00000450       .text                      0000000180001450     libjpeg-8:dqkks00053.o
 0001:00000458       .text                      0000000180001458     libjpeg-8:dqkks00033.o
 0001:00000460       .text                      0000000180001460     libjpeg-8:dqkks00074.o
 0001:00000468       .text                      0000000180001468     libjpeg-8:dqkks00083.o
 0001:00000470       .text                      0000000180001470     libpango-1.0-0:dsris00121.o
 0001:00000478       .text                      0000000180001478     libpango-1.0-0:dsris00148.o
 0001:00000480       .text                      0000000180001480     libpango-1.0-0:dsris00152.o
 0001:00000488       .text                      0000000180001488     libpango-1.0-0:dsris00124.o
 0001:00000490       .text                      0000000180001490     libpango-1.0-0:dsris00141.o
 0001:00000498       .text                      0000000180001498     libpango-1.0-0:dsris00125.o
 0001:000004a0       .text                      00000001800014a0     libpango-1.0-0:dsris00127.o
 0001:000004a8       .text                      00000001800014a8     libpango-1.0-0:dsris00143.o
 0001:000004b0       .text                      00000001800014b0     libpango-1.0-0:dsris00122.o
 0001:000004b8       .text                      00000001800014b8     libpango-1.0-0:dsris00275.o
 0001:000004c0       .text                      00000001800014c0     libpango-1.0-0:dsris00082.o
 0001:000004c8       .text                      00000001800014c8     libpango-1.0-0:dsris00340.o
 0001:000004d0       .text                      00000001800014d0     libpango-1.0-0:dsris00270.o
 0001:000004d8       .text                      00000001800014d8     libpango-1.0-0:dsris00274.o
 0001:000004e0       .text                      00000001800014e0     libpango-1.0-0:dsris00325.o
 0001:000004e8       .text                      00000001800014e8     libpango-1.0-0:dsris00126.o
 0001:000004f0       .text                      00000001800014f0     libpango-1.0-0:dsris00288.o
 0001:000004f8       .text                      00000001800014f8     libpango-1.0-0:dsris00142.o
 0001:00000500       .text                      0000000180001500     libpango-1.0-0:dsris00080.o
 0001:00000508       .text                      0000000180001508     libpango-1.0-0:dsris00201.o
 0001:00000510       .text                      0000000180001510     libpango-1.0-0:dsris00268.o
 0001:00000518       .text                      0000000180001518     libpango-1.0-0:dsris00350.o
 0001:00000520       .text                      0000000180001520     libpango-1.0-0:dsris00280.o
 0001:00000528       .text                      0000000180001528     libpango-1.0-0:dsris00191.o
 0001:00000530       .text                      0000000180001530     libpango-1.0-0:dsris00147.o
 0001:00000538       .text                      0000000180001538     libpango-1.0-0:dsris00144.o
 0001:00000540       .text                      0000000180001540     libpangocairo-1.0-0:dsxbs00029.o
 0001:00000548       .text                      0000000180001548     libpangocairo-1.0-0:dsxbs00032.o
 0001:00000550       .text                      0000000180001550     libpangocairo-1.0-0:dsxbs00024.o
 0001:00000558       .text                      0000000180001558     libpangocairo-1.0-0:dsxbs00007.o
 0001:00000560       .text                      0000000180001560     libpangocairo-1.0-0:dsxbs00020.o
 0001:00000570       .text                      0000000180001570     libgobject-2.0-0:dauhs00164.o
 0001:00000580       .text                      0000000180001580     libglib-2.0-0:diogs00427.o
 0001:00000588       .text                      0000000180001588     libglib-2.0-0:diogs01266.o
 0001:00000590       .text                      0000000180001590     libglib-2.0-0:diogs00646.o
 0001:00000598       .text                      0000000180001598     libglib-2.0-0:diogs00645.o
 0001:000005a0       .text                      00000001800015a0     libglib-2.0-0:diogs00528.o
 0001:000005a8       .text                      00000001800015a8     libglib-2.0-0:diogs00526.o
 0001:000005b0       .text                      00000001800015b0     libglib-2.0-0:diogs00654.o
 0001:000005b8       .text                      00000001800015b8     libglib-2.0-0:diogs00647.o
 0001:000005c0       .text                      00000001800015c0     libgif-7:dykbs00014.o
 0001:000005c8       .text                      00000001800015c8     libgif-7:dykbs00018.o
 0001:000005d0       .text                      00000001800015d0     libgif-7:dykbs00000.o
 0001:000005e0       .text                      00000001800015e0     libfreetype-6:dmmks00091.o
 0001:000005e8       .text                      00000001800015e8     libfreetype-6:dmmks00131.o
 0001:000005f0       .text                      00000001800015f0     libfreetype-6:dmmks00035.o
 0001:000005f8       .text                      00000001800015f8     libfreetype-6:dmmks00034.o
 0001:00000600       .text                      0000000180001600     libfreetype-6:dmmks00090.o
 0001:00000608       .text                      0000000180001608     libfreetype-6:dmmks00112.o
 0001:00000610       .text                      0000000180001610     libfreetype-6:dmmks00089.o
 0001:00000620       .text                      0000000180001620     librsvg-2-2:dewds00034.o
 0001:00000628       .text                      0000000180001628     librsvg-2-2:dewds00028.o
 0001:00000630       .text                      0000000180001630     librsvg-2-2:dewds00014.o
 0001:00000640       ??__E?constructor@ImageBackend@@2V?$Persistent@VFunctionTemplate@v8@@V?$NonCopyablePersistentTraits@VFunctionTemplate@v8@@@2@@Nan@@A@@YAXXZ 0000000180001640 f   ImageBackend.obj
 0001:00000650       ??__E?constructor@PdfBackend@@2V?$Persistent@VFunctionTemplate@v8@@V?$NonCopyablePersistentTraits@VFunctionTemplate@v8@@@2@@Nan@@A@@YAXXZ 0000000180001650 f   PdfBackend.obj
 0001:00000660       ??__E?constructor@SvgBackend@@2V?$Persistent@VFunctionTemplate@v8@@V?$NonCopyablePersistentTraits@VFunctionTemplate@v8@@@2@@Nan@@A@@YAXXZ 0000000180001660 f   SvgBackend.obj
 0001:00000670       ??__E?constructor@Canvas@@2V?$Persistent@VFunctionTemplate@v8@@V?$NonCopyablePersistentTraits@VFunctionTemplate@v8@@@2@@Nan@@A@@YAXXZ 0000000180001670 f   Canvas.obj
 0001:00000680       ??__Efont_face_list@@YAXXZ 0000000180001680 f   Canvas.obj
 0001:00000690       ??__E?constructor@Gradient@@2V?$Persistent@VFunctionTemplate@v8@@V?$NonCopyablePersistentTraits@VFunctionTemplate@v8@@@2@@Nan@@A@@YAXXZ 0000000180001690 f   CanvasGradient.obj
 0001:000006a0       ??__E?constructor@Pattern@@2V?$Persistent@VFunctionTemplate@v8@@V?$NonCopyablePersistentTraits@VFunctionTemplate@v8@@@2@@Nan@@A@@YAXXZ 00000001800016a0 f   CanvasPattern.obj
 0001:000006b0       ??__E?constructor@Context2d@@2V?$Persistent@VFunctionTemplate@v8@@V?$NonCopyablePersistentTraits@VFunctionTemplate@v8@@@2@@Nan@@A@@YAXXZ 00000001800016b0 f   CanvasRenderingContext2d.obj
 0001:000006c0       ??__E?_DOMMatrix@Context2d@@2V?$Persistent@VFunction@v8@@V?$NonCopyablePersistentTraits@VFunction@v8@@@2@@Nan@@A@@YAXXZ 00000001800016c0 f   CanvasRenderingContext2d.obj
 0001:000006d0       ??__E?_parseFont@Context2d@@2V?$Persistent@VFunction@v8@@V?$NonCopyablePersistentTraits@VFunction@v8@@@2@@Nan@@A@@YAXXZ 00000001800016d0 f   CanvasRenderingContext2d.obj
 0001:000006e0       ??__Enamed_colors@@YAXXZ   00000001800016e0 f   color.obj
 0001:000021b0       ??__E?constructor@Image@@2V?$Persistent@VFunctionTemplate@v8@@V?$NonCopyablePersistentTraits@VFunctionTemplate@v8@@@2@@Nan@@A@@YAXXZ 00000001800031b0 f   Image.obj
 0001:000021c0       ??__E?constructor@ImageData@@2V?$Persistent@VFunctionTemplate@v8@@V?$NonCopyablePersistentTraits@VFunctionTemplate@v8@@@2@@Nan@@A@@YAXXZ 00000001800031c0 f   ImageData.obj
 0001:000021cc       ??__Einitlocks@std@@YAXXZ  00000001800031cc f   libcpmt:xlock.obj
 0001:000021ec       ??__Eclassic_locale@std@@YAXXZ 00000001800031ec f   libcpmt:locale0.obj
 0001:000021f8       ??__F_Fac_tidy_reg@std@@YAXXZ 00000001800031f8 f   libcpmt:locale0.obj
 0001:00002204       ??__Einitlocks@std@@YAXXZ  0000000180003204 f   libcpmt:iosptrs.obj
 0001:00002224       ??__Finit_atexit@@YAXXZ    0000000180003224 f   libcpmt:iosptrs.obj
 0001:00002290       ?canvas_png_flush@@YAXPEAUpng_struct_def@@@Z 0000000180003290 f i Canvas.obj
 0001:00002fa0       ?FunctionCallbackWrapper@imp@Nan@@YAXAEBV?$FunctionCallbackInfo@VValue@v8@@@v8@@@Z 0000000180003fa0 f   CanvasRenderingContext2d.obj
 0001:00002fa0       ?FunctionCallbackWrapper@imp@Nan@@YAXAEBV?$FunctionCallbackInfo@VValue@v8@@@v8@@@Z 0000000180003fa0 f   ImageBackend.obj
 0001:0000704c       $LN2740                    000000018000804c     BMPParser.obj
 0001:00007068       $LN2739                    0000000180008068     BMPParser.obj
 0001:000085f0       ?GetterCallbackWrapper@imp@Nan@@YAXV?$Local@VName@v8@@@v8@@AEBV?$PropertyCallbackInfo@VValue@v8@@@4@@Z 00000001800095f0 f   Canvas.obj
 0001:000086e0       ?SetterCallbackWrapper@imp@Nan@@YAXV?$Local@VName@v8@@@v8@@V?$Local@VValue@v8@@@4@AEBV?$PropertyCallbackInfo@X@4@@Z 00000001800096e0 f   Canvas.obj
 0001:00008c20       ?canvas_convert_data_to_bytes@@YAXPEAUpng_struct_def@@PEAUpng_row_info_struct@@PEAE@Z 0000000180009c20 f   Canvas.obj
 0001:00008c60       ?canvas_unpremultiply_data@@YAXPEAUpng_struct_def@@PEAUpng_row_info_struct@@PEAE@Z 0000000180009c60 f   Canvas.obj
 0001:00008d20       ?canvas_convert_565_to_888@@YAXPEAUpng_struct_def@@PEAUpng_row_info_struct@@PEAE@Z 0000000180009d20 f   Canvas.obj
 0001:00008df0       ?canvas_write_png@@YA?AW4_cairo_status@@PEAU_cairo_surface@@P6AXPEAUpng_struct_def@@PEAE_K@ZPEAUcanvas_png_write_closure_t@@@Z 0000000180009df0 f   Canvas.obj
 0001:00009274       $LN45                      000000018000a274     Canvas.obj
 0001:00009290       ?canvas_stream_write_func@@YAXPEAUpng_struct_def@@PEAE_K@Z 000000018000a290 f   Canvas.obj
 0001:0000bde0       ?parsePNGArgs@@YAXV?$Local@VValue@v8@@@v8@@AEAUPngClosure@@@Z 000000018000cde0 f   Canvas.obj
 0001:0000c3c0       ?parseJPEGArgs@@YAXV?$Local@VValue@v8@@@v8@@AEAUJpegClosure@@@Z 000000018000d3c0 f   Canvas.obj
 0001:0000c820       ?setPdfMetaStr@@YAXPEAU_cairo_surface@@V?$Local@VObject@v8@@@v8@@W4_cairo_pdf_metadata@@PEBD@Z 000000018000d820 f   Canvas.obj
 0001:0000c950       ?setPdfMetaDate@@YAXPEAU_cairo_surface@@V?$Local@VObject@v8@@@v8@@W4_cairo_pdf_metadata@@PEBD@Z 000000018000d950 f   Canvas.obj
 0001:0000ca90       ?setPdfMetadata@@YAXPEAVCanvas@@V?$Local@VObject@v8@@@v8@@@Z 000000018000da90 f   Canvas.obj
 0001:0000d8c0       ?streamPNG@@YA?AW4_cairo_status@@PEAXPEBEI@Z 000000018000e8c0 f   Canvas.obj
 0001:0000df80       ?streamPDF@@YA?AW4_cairo_status@@PEAXPEBEI@Z 000000018000ef80 f   Canvas.obj
 0001:000104a0       no_op_initialize           00000001800114a0 f i libucrt:wsetlocale.obj
 0001:00012f00       ?checkArgs@@YA_NAEBV?$FunctionCallbackInfo@VValue@v8@@@Nan@@PEANHH@Z 0000000180013f00 f   CanvasRenderingContext2d.obj
 0001:00018ae8       $LN73                      0000000180019ae8     CanvasRenderingContext2d.obj
 0001:00021b50       ?h@@YAHD@Z                 0000000180022b50 f   color.obj
 0001:00021b8c       $LN28                      0000000180022b8c     color.obj
 0001:00021b9c       $LN27                      0000000180022b9c     color.obj
 0001:00021d00       ?hue_to_rgb@@YAMMMM@Z      0000000180022d00 f   color.obj
 0001:00021d80       ?rgba_from_hsla@@YAHMMMM@Z 0000000180022d80 f   color.obj
 0001:00021ef0       ?rgba_from_rgb_string@@YAHPEBDPEAF@Z 0000000180022ef0 f   color.obj
 0001:00022130       ?rgba_from_rgba_string@@YAHPEBDPEAF@Z 0000000180023130 f   color.obj
 0001:00022400       ?rgba_from_hsla_string@@YAHPEBDPEAF@Z 0000000180023400 f   color.obj
 0001:00022630       ?rgba_from_hex_string@@YAHPEBDPEAF@Z 0000000180023630 f   color.obj
 0001:00022860       ?rgba_from_name_string@@YAHPEBDPEAF@Z 0000000180023860 f   color.obj
 0001:00022e10       ??$parse_css_number@M@@YA_NPEAPEBDPEAM@Z 0000000180023e10 f   color.obj
 0001:00025c80       ?canvas_jpeg_error_exit@@YAXPEAUjpeg_common_struct@@@Z 0000000180026c80 f   Image.obj
 0001:00025ca0       ?canvas_jpeg_output_message@@YAXPEAUjpeg_common_struct@@@Z 0000000180026ca0 f   Image.obj
 0001:00026990       ?_Delete_this@?$_Func_impl_no_alloc@V<lambda_1d54cf6722de1de10813d61413cb9df7>@@IPEAE@std@@EEAAX_N@Z 0000000180027990 f   Image.obj
 0001:00026990       ?_Delete_this@?$_Func_impl_no_alloc@V<lambda_cc2c74106362f3cb9f8d4764b8a79817>@@IPEAE@std@@EEAAX_N@Z 0000000180027990 f   Image.obj
 0001:00026990       ?_Delete_this@?$_Func_impl_no_alloc@V<lambda_fa095885220f4ba8fd6d128d87a974a5>@@IPEAE@std@@EEAAX_N@Z 0000000180027990 f   Image.obj
 0001:000269a0       ?_Get@?$_Func_impl_no_alloc@V<lambda_1d54cf6722de1de10813d61413cb9df7>@@IPEAE@std@@EEBAPEBXXZ 00000001800279a0 f   Image.obj
 0001:000269a0       ?_Get@?$_Func_impl_no_alloc@V<lambda_cc2c74106362f3cb9f8d4764b8a79817>@@IPEAE@std@@EEBAPEBXXZ 00000001800279a0 f   Image.obj
 0001:000269a0       ?_Get@?$_Func_impl_no_alloc@V<lambda_fa095885220f4ba8fd6d128d87a974a5>@@IPEAE@std@@EEBAPEBXXZ 00000001800279a0 f   Image.obj
 0001:000269b0       ?_Target_type@?$_Func_impl_no_alloc@V<lambda_cc2c74106362f3cb9f8d4764b8a79817>@@IPEAE@std@@EEBAAEBVtype_info@@XZ 00000001800279b0 f   Image.obj
 0001:000269c0       ?_Do_call@?$_Func_impl_no_alloc@V<lambda_cc2c74106362f3cb9f8d4764b8a79817>@@IPEAE@std@@EEAAI$$QEAPEAE@Z 00000001800279c0 f   Image.obj
 0001:000269e0       ?_Copy@?$_Func_impl_no_alloc@V<lambda_cc2c74106362f3cb9f8d4764b8a79817>@@IPEAE@std@@EEBAPEAV?$_Func_base@IPEAE@2@PEAX@Z 00000001800279e0 f   Image.obj
 0001:000269e0       ?_Move@?$_Func_impl_no_alloc@V<lambda_cc2c74106362f3cb9f8d4764b8a79817>@@IPEAE@std@@EEAAPEAV?$_Func_base@IPEAE@2@PEAX@Z 00000001800279e0 f   Image.obj
 0001:000269f0       ?_Target_type@?$_Func_impl_no_alloc@V<lambda_1d54cf6722de1de10813d61413cb9df7>@@IPEAE@std@@EEBAAEBVtype_info@@XZ 00000001800279f0 f   Image.obj
 0001:00026a00       ?_Do_call@?$_Func_impl_no_alloc@V<lambda_1d54cf6722de1de10813d61413cb9df7>@@IPEAE@std@@EEAAI$$QEAPEAE@Z 0000000180027a00 f   Image.obj
 0001:00026a30       ?_Copy@?$_Func_impl_no_alloc@V<lambda_1d54cf6722de1de10813d61413cb9df7>@@IPEAE@std@@EEBAPEAV?$_Func_base@IPEAE@2@PEAX@Z 0000000180027a30 f   Image.obj
 0001:00026a30       ?_Move@?$_Func_impl_no_alloc@V<lambda_1d54cf6722de1de10813d61413cb9df7>@@IPEAE@std@@EEAAPEAV?$_Func_base@IPEAE@2@PEAX@Z 0000000180027a30 f   Image.obj
 0001:00026a40       ?_Target_type@?$_Func_impl_no_alloc@V<lambda_fa095885220f4ba8fd6d128d87a974a5>@@IPEAE@std@@EEBAAEBVtype_info@@XZ 0000000180027a40 f   Image.obj
 0001:00026a50       ?_Do_call@?$_Func_impl_no_alloc@V<lambda_fa095885220f4ba8fd6d128d87a974a5>@@IPEAE@std@@EEAAI$$QEAPEAE@Z 0000000180027a50 f   Image.obj
 0001:00026ab0       ?_Copy@?$_Func_impl_no_alloc@V<lambda_fa095885220f4ba8fd6d128d87a974a5>@@IPEAE@std@@EEBAPEAV?$_Func_base@IPEAE@2@PEAX@Z 0000000180027ab0 f   Image.obj
 0001:00026ab0       ?_Move@?$_Func_impl_no_alloc@V<lambda_fa095885220f4ba8fd6d128d87a974a5>@@IPEAE@std@@EEAAPEAV?$_Func_base@IPEAE@2@PEAX@Z 0000000180027ab0 f   Image.obj
 0001:00027d00       _register_canvas           0000000180028d00 f   init.obj
 0001:0002815c       $LN43                      000000018002915c     register_font.obj
 0001:00028180       ?load_exe_hook@@YAP6A_JXZIPEAUDelayLoadInfo@@@Z 0000000180029180 f   win_delay_load_hook.obj
 0001:00028f74       tidy_global                0000000180029f74 f   libcpmt:locale0.obj
 0001:000297c0       $$000000                   000000018002a7c0     LIBCMT:amdsecgs.obj
 0001:00029cc4       ?dllmain_crt_dispatch@@YAHQEAUHINSTANCE__@@KQEAX@Z 000000018002acc4 f   LIBCMT:dll_dllmain.obj
 0001:00029d14       ?dllmain_crt_process_attach@@YAHQEAUHINSTANCE__@@QEAX@Z 000000018002ad14 f   LIBCMT:dll_dllmain.obj
 0001:00029e2c       ?dllmain_crt_process_detach@@YAH_N@Z 000000018002ae2c f   LIBCMT:dll_dllmain.obj
 0001:00029eb0       ?dllmain_dispatch@@YAHQEAUHINSTANCE__@@KQEAX@Z 000000018002aeb0 f   LIBCMT:dll_dllmain.obj
 0001:0002a120       $$000000                   000000018002b120     LIBCMT:chkstk.obj
 0001:0002a33c       capture_current_context    000000018002b33c f   LIBCMT:gs_report.obj
 0001:0002a3ac       capture_previous_context   000000018002b3ac f   LIBCMT:gs_report.obj
 0001:0002ba80       $$000000                   000000018002ca80     libvcruntime:memcpy.obj
 0001:0002c130       $$000000                   000000018002d130     libvcruntime:memchr.obj
 0001:0002c1b0       $$000000                   000000018002d1b0     libvcruntime:memset.obj
 0001:0002c370       $$000000                   000000018002d370     libvcruntime:memcmp.obj
 0001:0002cad8       ??$BuildCatchObjectHelperInternal@V__FrameHandler3@@@@YAHPEAUEHExceptionRecord@@PEAXPEBU_s_HandlerType@@PEBU_s_CatchableType@@@Z 000000018002dad8 f   libvcruntime:frame.obj
 0001:0002ccd8       ??$BuildCatchObjectHelperInternal@V__FrameHandler4@@@@YAHPEAUEHExceptionRecord@@PEAXPEAUHandlerType4@FH4@@PEBU_s_CatchableType@@@Z 000000018002dcd8 f   libvcruntime:frame.obj
 0001:0002cedc       ??$BuildCatchObjectInternal@V__FrameHandler3@@@@YAXPEAUEHExceptionRecord@@PEAXPEBU_s_HandlerType@@PEBU_s_CatchableType@@@Z 000000018002dedc f   libvcruntime:frame.obj
 0001:0002cf9c       ??$BuildCatchObjectInternal@V__FrameHandler4@@@@YAXPEAUEHExceptionRecord@@PEAXPEAUHandlerType4@FH4@@PEBU_s_CatchableType@@@Z 000000018002df9c f   libvcruntime:frame.obj
 0001:0002d060       ??$CatchIt@V__FrameHandler3@@@@YAXPEAUEHExceptionRecord@@PEA_KPEAU_CONTEXT@@PEAU_xDISPATCHER_CONTEXT@@PEBU_s_FuncInfo@@PEBU_s_HandlerType@@PEBU_s_CatchableType@@PEBU_s_TryBlockMapEntry@@H1EE@Z 000000018002e060 f   libvcruntime:frame.obj
 0001:0002d134       ??$CatchIt@V__FrameHandler4@@@@YAXPEAUEHExceptionRecord@@PEA_KPEAU_CONTEXT@@PEAU_xDISPATCHER_CONTEXT@@PEAUFuncInfo4@FH4@@PEAUHandlerType4@4@PEBU_s_CatchableType@@PEAUTryBlockMapEntry4@4@H1EE@Z 000000018002e134 f   libvcruntime:frame.obj
 0001:0002d208       ??$FindHandler@V__FrameHandler3@@@@YAXPEAUEHExceptionRecord@@PEA_KPEAU_CONTEXT@@PEAU_xDISPATCHER_CONTEXT@@PEBU_s_FuncInfo@@EH1@Z 000000018002e208 f   libvcruntime:frame.obj
 0001:0002d6d0       ??$FindHandler@V__FrameHandler4@@@@YAXPEAUEHExceptionRecord@@PEA_KPEAU_CONTEXT@@PEAU_xDISPATCHER_CONTEXT@@PEAUFuncInfo4@FH4@@EH1@Z 000000018002e6d0 f   libvcruntime:frame.obj
 0001:0002dbcc       ??$FindHandlerForForeignException@V__FrameHandler3@@@@YAXPEAUEHExceptionRecord@@PEA_KPEAU_CONTEXT@@PEAU_xDISPATCHER_CONTEXT@@PEBU_s_FuncInfo@@HH1@Z 000000018002ebcc f   libvcruntime:frame.obj
 0001:0002dde4       ??$FindHandlerForForeignException@V__FrameHandler4@@@@YAXPEAUEHExceptionRecord@@PEA_KPEAU_CONTEXT@@PEAU_xDISPATCHER_CONTEXT@@PEAUFuncInfo4@FH4@@HH1@Z 000000018002ede4 f   libvcruntime:frame.obj
 0001:0002ef98       ?ExFilterRethrow@@YAHPEAU_EXCEPTION_POINTERS@@PEAUEHExceptionRecord@@PEAH@Z 000000018002ff98 f   libvcruntime:frame.obj
 0001:0002f020       ?ExFilterRethrowFH4@@YAHPEAU_EXCEPTION_POINTERS@@PEAUEHExceptionRecord@@HPEAH@Z 0000000180030020 f   libvcruntime:frame.obj
 0001:0002f55c       ?IsInExceptionSpec@@YAEPEAUEHExceptionRecord@@PEBU_s_ESTypeList@@@Z 000000018003055c f   libvcruntime:frame.obj
 0001:0002f64c       ?Is_bad_exception_allowed@@YAEPEBU_s_ESTypeList@@@Z 000000018003064c f   libvcruntime:frame.obj
 0001:0002fa20       $$000000                   0000000180030a20     libvcruntime:notify.obj
 0001:0002fa64       ?try_get_function@@YAPEAXW4function_id@?A0x810d92d5@@QEBDQEBW4module_id@2@2@Z 0000000180030a64 f   libvcruntime:winapi_downlevel.obj
 0001:0002fd40       $$000000                   0000000180030d40     libvcruntime:handlers.obj
 0001:000300f4       ??$common_assert_to_message_box@_W@@YAXQEB_W0IQEAX@Z 00000001800310f4 f   libucrt:assert.obj
 0001:000301b8       ??$common_assert_to_message_box_build_string@_W@@YAXQEA_W_KQEB_W2IQEAX@Z 00000001800311b8 f   libucrt:assert.obj
 0001:000306bc       ??$common_assert_to_stderr@_W@@YAXQEB_W0I@Z 00000001800316bc f   libucrt:assert.obj
 0001:0003082c       ?get_assert_format@@YAPEB_W_W@Z 000000018003182c f   libucrt:assert.obj
 0001:00031184       ??$common_gmtime_s@_J@@YAHQEAUtm@@QEB_J@Z 0000000180032184 f   libucrt:gmtime.obj
 0001:0003131c       ?compute_year@@YAHAEA_JAEA_N@Z 000000018003231c f   libucrt:gmtime.obj
 0001:00031724       ??$?RV<lambda_676bd5779251ec186b530f0a904b4b35>@@AEAV<lambda_b579ea784fd840951dfbcbdaebf709fd>@@V<lambda_10027885da78ada7fb00668d7e2e96b5>@@@?$__crt_seh_guarded_call@H@@QEAAH$$QEAV<lambda_676bd5779251ec186b530f0a904b4b35>@@AEAV<lambda_b579ea784fd840951dfbcbdaebf709fd>@@$$QEAV<lambda_10027885da78ada7fb00668d7e2e96b5>@@@Z 0000000180032724 f   libucrt:output.obj
 0001:00031764       ??$common_vsprintf@Vstandard_base@__crt_stdio_output@@D@@YAH_KQEAD0QEBDQEAU__crt_locale_pointers@@1@Z 0000000180032764 f   libucrt:output.obj
 0001:00031930       ??$common_vsprintf@Vstandard_base@__crt_stdio_output@@_W@@YAH_KQEA_W0QEB_WQEAU__crt_locale_pointers@@QEAD@Z 0000000180032930 f   libucrt:output.obj
 0001:0003207c       ??R<lambda_b579ea784fd840951dfbcbdaebf709fd>@@QEBAHXZ 000000018003307c f   libucrt:output.obj
 0001:00033908       $LN17                      0000000180034908     libucrt:output.obj
 0001:000349d4       ??$common_ftell@J@@YAJV__crt_stdio_stream@@@Z 00000001800359d4 f   libucrt:ftell.obj
 0001:00034a44       ??$common_ftell_nolock@_J@@YA_JV__crt_stdio_stream@@@Z 0000000180035a44 f   libucrt:ftell.obj
 0001:00034b74       ?common_ftell_read_mode_nolock@@YA_JV__crt_stdio_stream@@_J1@Z 0000000180035b74 f   libucrt:ftell.obj
 0001:00034cc0       ?common_ftell_translated_utf8_nolock@@YA_JV__crt_stdio_stream@@_J@Z 0000000180035cc0 f   libucrt:ftell.obj
 0001:00034e3c       ?count_newline_bytes@@YA_JQEBD0W4__crt_lowio_text_mode@@@Z 0000000180035e3c f   libucrt:ftell.obj
 0001:00034ed0       ??$common_fsopen@D@@YAPEAU_iobuf@@QEBD0H@Z 0000000180035ed0 f   libucrt:fopen.obj
 0001:00035080       ?common_fseek@@YAHV__crt_stdio_stream@@_JH@Z 0000000180036080 f   libucrt:fseek.obj
 0001:000350ec       ?common_fseek_binary_mode_read_only_fast_track_nolock@@YA_NV__crt_stdio_stream@@_JH@Z 00000001800360ec f   libucrt:fseek.obj
 0001:000351d0       ?common_fseek_nolock@@YAHV__crt_stdio_stream@@_JH@Z 00000001800361d0 f   libucrt:fseek.obj
 0001:00035754       ??$?RV<lambda_3a04bfe258a31910a526c90b4d849d20>@@AEAV<lambda_1b3ad63c02abf531fe15530b52bade31>@@V<lambda_1755787d260f86bf828f8bf7552b2658>@@@?$__crt_seh_guarded_call@H@@QEAAH$$QEAV<lambda_3a04bfe258a31910a526c90b4d849d20>@@AEAV<lambda_1b3ad63c02abf531fe15530b52bade31>@@$$QEAV<lambda_1755787d260f86bf828f8bf7552b2658>@@@Z 0000000180036754 f   libucrt:stat.obj
 0001:000357f8       ??$common_stat_handle_file_opened@U_stat64i32@@@@YA_NQEB_WHQEAXAEAU_stat64i32@@@Z 00000001800367f8 f   libucrt:stat.obj
 0001:000359a0       ??$convert_filetime_to_time_t@_J@@YA_JU_FILETIME@@_J@Z 00000001800369a0 f   libucrt:stat.obj
 0001:00035a38       ?convert_to_stat_mode@@YAGHQEB_W@Z 0000000180036a38 f   libucrt:stat.obj
 0001:00035b74       ?get_drive_number_from_path@@YA_NQEB_WAEAH@Z 0000000180036b74 f   libucrt:stat.obj
 0001:00035ea0       ??$?RV<lambda_e9ce07acdb0b138e546925ae9f1a2c9c>@@AEAV<lambda_2116bde18c9e5f34230805ea4a4660ed>@@V<lambda_5d037afbfc54bf1ca80d3d1ee4062886>@@@?$__crt_seh_guarded_call@PEAD@@QEAAPEAD$$QEAV<lambda_e9ce07acdb0b138e546925ae9f1a2c9c>@@AEAV<lambda_2116bde18c9e5f34230805ea4a4660ed>@@$$QEAV<lambda_5d037afbfc54bf1ca80d3d1ee4062886>@@@Z 0000000180036ea0 f   libucrt:setlocale.obj
 0001:00035ee0       ??R<lambda_2116bde18c9e5f34230805ea4a4660ed>@@QEBAPEADXZ 0000000180036ee0 f   libucrt:setlocale.obj
 0001:00036f54       memcpy_s                   0000000180037f54 f   libucrt:cfout.obj
 0001:00036f54       memcpy_s                   0000000180037f54 f   libucrt:strtod.obj
 0001:00036fe0       $$000000                   0000000180037fe0     libucrt:pow.obj
 0001:00038680       $$000000                   0000000180039680     libucrt:powf.obj
 0001:00039560       ?compute_iso_week_internal@@YAHHHH@Z 000000018003a560 f   libucrt:wcsftime.obj
 0001:00039654       ?expand_time@@YA_NPEAU__crt_locale_pointers@@_WPEBUtm@@PEAPEA_WPEA_KPEBU__crt_lc_time_data@@_N@Z 000000018003a654 f   libucrt:wcsftime.obj
 0001:0003a544       ?store_number@@YAXHHQEAPEA_WQEA_K_W@Z 000000018003b544 f   libucrt:wcsftime.obj
 0001:0003a684       ?store_winword@@YA_NQEAU__crt_locale_pointers@@HQEBUtm@@QEAPEA_WQEA_KQEBU__crt_lc_time_data@@@Z 000000018003b684 f   libucrt:wcsftime.obj
 0001:0003b278       ??$?RV<lambda_d80eeec6fff315bfe5c115232f3240e3>@@AEAV<lambda_6e4b09c48022b2350581041d5f6b0c4c>@@V<lambda_2358e3775559c9db80273638284d5e45>@@@?$__crt_seh_guarded_call@X@@QEAAX$$QEAV<lambda_d80eeec6fff315bfe5c115232f3240e3>@@AEAV<lambda_6e4b09c48022b2350581041d5f6b0c4c>@@$$QEAV<lambda_2358e3775559c9db80273638284d5e45>@@@Z 000000018003c278 f   libucrt:exit.obj
 0001:0003b2b0       ??R<lambda_6e4b09c48022b2350581041d5f6b0c4c>@@QEBA@XZ 000000018003c2b0 f   libucrt:exit.obj
 0001:0003b374       ?atexit_exception_filter@@YAHK@Z 000000018003c374 f   libucrt:exit.obj
 0001:0003b380       ?common_exit@@YAXHW4_crt_exit_cleanup_mode@@W4_crt_exit_return_mode@@@Z 000000018003c380 f   libucrt:exit.obj
 0001:0003b43c       ?exit_or_terminate_process@@YAXI@Z 000000018003c43c f   libucrt:exit.obj
 0001:0003b488       ?try_cor_exit_process@@YAXI@Z 000000018003c488 f   libucrt:exit.obj
 0001:0003b510       ??$parse_command_line@D@@YAXPEADPEAPEAD0PEA_K2@Z 000000018003c510 f   libucrt:argv_parsing.obj
 0001:0003b8b8       ??$common_initialize_environment_nolock@D@@YAHXZ 000000018003c8b8 f   libucrt:environment_initialization.obj
 0001:0003b924       ??$common_initialize_environment_nolock@_W@@YAHXZ 000000018003c924 f   libucrt:environment_initialization.obj
 0001:0003b98c       ??$create_environment@D@@YAQEAPEADQEAD@Z 000000018003c98c f   libucrt:environment_initialization.obj
 0001:0003ba94       ??$create_environment@_W@@YAQEAPEA_WQEA_W@Z 000000018003ca94 f   libucrt:environment_initialization.obj
 0001:0003bba8       ??$free_environment@D@@YAXQEAPEAD@Z 000000018003cba8 f   libucrt:environment_initialization.obj
 0001:0003bba8       ??$free_environment@_W@@YAXQEAPEA_W@Z 000000018003cba8 f   libucrt:environment_initialization.obj
 0001:0003bbec       ??$initialize_environment_by_cloning_nolock@_W@@YAHXZ 000000018003cbec f   libucrt:environment_initialization.obj
 0001:0003bca0       ??$uninitialize_environment_internal@D@@YAXAEAPEAPEAD@Z 000000018003cca0 f   libucrt:environment_initialization.obj
 0001:0003bcbc       ??$uninitialize_environment_internal@_W@@YAXAEAPEAPEA_W@Z 000000018003ccbc f   libucrt:environment_initialization.obj
 0001:0003bd54       ??$?RV<lambda_638799b9deba96c50f710eeac98168cd>@@AEAV<lambda_22ebabd17bc4fa466a2aca6d8deb888d>@@V<lambda_a6f7d7db0129f75315ebf26d50c089f1>@@@?$__crt_seh_guarded_call@H@@QEAAH$$QEAV<lambda_638799b9deba96c50f710eeac98168cd>@@AEAV<lambda_22ebabd17bc4fa466a2aca6d8deb888d>@@$$QEAV<lambda_a6f7d7db0129f75315ebf26d50c089f1>@@@Z 000000018003cd54 f   libucrt:onexit.obj
 0001:0003bd90       ??$?RV<lambda_7777bce6b2f8c936911f934f8298dc43>@@AEAV<lambda_f03950bc5685219e0bcd2087efbe011e>@@V<lambda_3883c3dff614d5e0c5f61bb1ac94921c>@@@?$__crt_seh_guarded_call@H@@QEAAH$$QEAV<lambda_7777bce6b2f8c936911f934f8298dc43>@@AEAV<lambda_f03950bc5685219e0bcd2087efbe011e>@@$$QEAV<lambda_3883c3dff614d5e0c5f61bb1ac94921c>@@@Z 000000018003cd90 f   libucrt:onexit.obj
 0001:0003bdcc       ??R<lambda_22ebabd17bc4fa466a2aca6d8deb888d>@@QEBAHXZ 000000018003cdcc f   libucrt:onexit.obj
 0001:0003bf7c       ??R<lambda_f03950bc5685219e0bcd2087efbe011e>@@QEBAHXZ 000000018003cf7c f   libucrt:onexit.obj
 0001:0003c150       initialize_global_variables 000000018003d150 f   libucrt:initialization.obj
 0001:0003c164       initialize_c               000000018003d164 f   libucrt:initialization.obj
 0001:0003c188       initialize_environment     000000018003d188 f   libucrt:initialization.obj
 0001:0003c188       initialize_global_state_isolation 000000018003d188 f   libucrt:initialization.obj
 0001:0003c188       report_memory_leaks        000000018003d188 f   libucrt:initialization.obj
 0001:0003c188       uninitialize_c             000000018003d188 f   libucrt:initialization.obj
 0001:0003c188       uninitialize_global_state_isolation 000000018003d188 f   libucrt:initialization.obj
 0001:0003c18c       uninitialize_environment   000000018003d18c f   libucrt:initialization.obj
 0001:0003c19c       initialize_pointers        000000018003d19c f   libucrt:initialization.obj
 0001:0003c1dc       uninitialize_vcruntime     000000018003d1dc f   libucrt:initialization.obj
 0001:0003c1e4       uninitialize_allocated_memory 000000018003d1e4 f   libucrt:initialization.obj
 0001:0003c224       uninitialize_allocated_io_buffers 000000018003d224 f   libucrt:initialization.obj
 0001:0003cea0       $$000000                   000000018003dea0     libucrt:strncmp.obj
 0001:0003cf5c       ??$?RV<lambda_0ae27a3a962d80f24befdcbee591983d>@@AEAV<lambda_8d0ee55de4b1038c4002e0adecdf1839>@@V<lambda_dc504788e8f1664fe9b84e20bfb512f2>@@@?$__crt_seh_guarded_call@X@@QEAAX$$QEAV<lambda_0ae27a3a962d80f24befdcbee591983d>@@AEAV<lambda_8d0ee55de4b1038c4002e0adecdf1839>@@$$QEAV<lambda_dc504788e8f1664fe9b84e20bfb512f2>@@@Z 000000018003df5c f   libucrt:per_thread_data.obj
 0001:0003cf9c       ??$?RV<lambda_2d41944a1d46af3157314b8a01080d33>@@AEAV<lambda_8f455de75cd7d7f24b4096f044d8b9e6>@@V<lambda_aa500f224e6afead328df44964fe2772>@@@?$__crt_seh_guarded_call@X@@QEAAX$$QEAV<lambda_2d41944a1d46af3157314b8a01080d33>@@AEAV<lambda_8f455de75cd7d7f24b4096f044d8b9e6>@@$$QEAV<lambda_aa500f224e6afead328df44964fe2772>@@@Z 000000018003df9c f   libucrt:per_thread_data.obj
 0001:0003cfdc       ??$?RV<lambda_aa87e3671a710a21b5dc78c0bdf72e11>@@AEAV<lambda_92619d2358a28f41a33ba319515a20b9>@@V<lambda_6992ecaafeb10aed2b74cb1fae11a551>@@@?$__crt_seh_guarded_call@X@@QEAAX$$QEAV<lambda_aa87e3671a710a21b5dc78c0bdf72e11>@@AEAV<lambda_92619d2358a28f41a33ba319515a20b9>@@$$QEAV<lambda_6992ecaafeb10aed2b74cb1fae11a551>@@@Z 000000018003dfdc f   libucrt:per_thread_data.obj
 0001:0003d024       ??$?RV<lambda_f2e299630e499de9f9a165e60fcd3db5>@@AEAV<lambda_2ae9d31cdba2644fcbeaf08da7c24588>@@V<lambda_40d01ff24d0e7b3814fdbdcee8eab3c7>@@@?$__crt_seh_guarded_call@X@@QEAAX$$QEAV<lambda_f2e299630e499de9f9a165e60fcd3db5>@@AEAV<lambda_2ae9d31cdba2644fcbeaf08da7c24588>@@$$QEAV<lambda_40d01ff24d0e7b3814fdbdcee8eab3c7>@@@Z 000000018003e024 f   libucrt:per_thread_data.obj
 0001:0003d084       ?construct_ptd_array@@YAXQEAU__acrt_ptd@@@Z 000000018003e084 f   libucrt:per_thread_data.obj
 0001:0003d154       ?destroy_fls@@YAXPEAX@Z    000000018003e154 f   libucrt:per_thread_data.obj
 0001:0003d174       ?destroy_ptd_array@@YAXQEAU__acrt_ptd@@@Z 000000018003e174 f   libucrt:per_thread_data.obj
 0001:0003d26c       ?replace_current_thread_locale_nolock@@YAXQEAU__acrt_ptd@@QEAU__crt_locale_data@@@Z 000000018003e26c f   libucrt:per_thread_data.obj
 0001:0003d5c8       ??$common_xtox@K_W@@YAHKQEA_W_KI_N@Z 000000018003e5c8 f   libucrt:xtoa.obj
 0001:0003d69c       ??$common_xtox_s@K_W@@YAHKQEA_W_KI_N@Z 000000018003e69c f   libucrt:xtoa.obj
 0001:0003db14       ??$?RV<lambda_842d9ff0dc9ef11c61343bbaebe7f885>@@AEAV<lambda_c5860995281e5c4ce005b3de8f5874ee>@@V<lambda_d90129c13df834fdcbf8d2b88dafcf2d>@@@?$__crt_seh_guarded_call@X@@QEAAX$$QEAV<lambda_842d9ff0dc9ef11c61343bbaebe7f885>@@AEAV<lambda_c5860995281e5c4ce005b3de8f5874ee>@@$$QEAV<lambda_d90129c13df834fdcbf8d2b88dafcf2d>@@@Z 000000018003eb14 f   libucrt:fflush.obj
 0001:0003dbb0       ??$?RV<lambda_886d6c58226a84441f68b9f2b8217b83>@@AEAV<lambda_ab61a845afdef5b7c387490eaf3616ee>@@V<lambda_f7f22ab5edc0698d5f6905b0d3f44752>@@@?$__crt_seh_guarded_call@X@@QEAAX$$QEAV<lambda_886d6c58226a84441f68b9f2b8217b83>@@AEAV<lambda_ab61a845afdef5b7c387490eaf3616ee>@@$$QEAV<lambda_f7f22ab5edc0698d5f6905b0d3f44752>@@@Z 000000018003ebb0 f   libucrt:fflush.obj
 0001:0003dc90       ??$?RV<lambda_c376a267cfb53b6959b3b692ec76b120>@@AEAV<lambda_9a32fed5bf61b6b509b2d3f6003082a1>@@V<lambda_572fbb9fa0ab338edf41edfd4b5fcc8d>@@@?$__crt_seh_guarded_call@H@@QEAAH$$QEAV<lambda_c376a267cfb53b6959b3b692ec76b120>@@AEAV<lambda_9a32fed5bf61b6b509b2d3f6003082a1>@@$$QEAV<lambda_572fbb9fa0ab338edf41edfd4b5fcc8d>@@@Z 000000018003ec90 f   libucrt:fflush.obj
 0001:0003dcd0       ?common_flush_all@@YAH_N@Z 000000018003ecd0 f   libucrt:fflush.obj
 0001:0003de68       ??$?RV<lambda_c8e61daa512c69656564d9dbd35486e8>@@AEAV<lambda_b4f66040be5f354a654fb75160c27bfc>@@V<lambda_2ca749746f96040ea1ff4296b14379df>@@@?$__crt_seh_guarded_call@H@@QEAAH$$QEAV<lambda_c8e61daa512c69656564d9dbd35486e8>@@AEAV<lambda_b4f66040be5f354a654fb75160c27bfc>@@$$QEAV<lambda_2ca749746f96040ea1ff4296b14379df>@@@Z 000000018003ee68 f   libucrt:setvbuf.obj
 0001:0003dea8       ??R<lambda_b4f66040be5f354a654fb75160c27bfc>@@QEBAHXZ 000000018003eea8 f   libucrt:setvbuf.obj
 0001:0003e028       ??$?RV<lambda_450d765d439847d4c735a33c368b5fc0>@@AEAV<lambda_44731a7d0e6d81c3e6aa82d741081786>@@V<lambda_601a2a7da3b7a96e9554ac7215c4b07c>@@@?$__crt_seh_guarded_call@P6AXH@Z@@QEAAP6AXH@Z$$QEAV<lambda_450d765d439847d4c735a33c368b5fc0>@@AEAV<lambda_44731a7d0e6d81c3e6aa82d741081786>@@$$QEAV<lambda_601a2a7da3b7a96e9554ac7215c4b07c>@@@Z 000000018003f028 f   libucrt:signal.obj
 0001:0003e378       ?__acrt_LCMapStringA_stat@@YAHPEAU__crt_locale_pointers@@PEB_WKPEBDHPEADHHH@Z 000000018003f378 f   libucrt:lcmapstringa.obj
 0001:0003e790       ??$?RV<lambda_1d892b297fdedeee07ed8124eeb2f2fa>@@AEAV<lambda_ffc046909424fd52df0ac47e64813305>@@V<lambda_01a7098693036236037e7cdb9bca3d73>@@@?$__crt_seh_guarded_call@X@@QEAAX$$QEAV<lambda_1d892b297fdedeee07ed8124eeb2f2fa>@@AEAV<lambda_ffc046909424fd52df0ac47e64813305>@@$$QEAV<lambda_01a7098693036236037e7cdb9bca3d73>@@@Z 000000018003f790 f   libucrt:wsetlocale.obj
 0001:0003e8cc       ??$?RV<lambda_410d79af7f07d98d83a3f525b3859a53>@@AEAV<lambda_3e16ef9562a7dcce91392c22ab16ea36>@@V<lambda_38119f0e861e05405d8a144b9b982f0a>@@@?$__crt_seh_guarded_call@X@@QEAAX$$QEAV<lambda_410d79af7f07d98d83a3f525b3859a53>@@AEAV<lambda_3e16ef9562a7dcce91392c22ab16ea36>@@$$QEAV<lambda_38119f0e861e05405d8a144b9b982f0a>@@@Z 000000018003f8cc f   libucrt:wsetlocale.obj
 0001:0003e93c       ??$?RV<lambda_e9338f07fe435327d97d4ef86149e64d>@@AEAV<lambda_2a444430fde8c29194d880d93eed5e8f>@@AEAV<lambda_02db5278e8aef8b5e4976579d73f5304>@@@?$__crt_seh_guarded_call@X@@QEAAX$$QEAV<lambda_e9338f07fe435327d97d4ef86149e64d>@@AEAV<lambda_2a444430fde8c29194d880d93eed5e8f>@@AEAV<lambda_02db5278e8aef8b5e4976579d73f5304>@@@Z 000000018003f93c f   libucrt:wsetlocale.obj
 0001:0003e968       ??R<lambda_2a444430fde8c29194d880d93eed5e8f>@@QEBA@XZ 000000018003f968 f   libucrt:wsetlocale.obj
 0001:0003ed3c       _copytlocinfo_nolock       000000018003fd3c f   libucrt:wsetlocale.obj
 0001:0003edfc       _expandlocale              000000018003fdfc f   libucrt:wsetlocale.obj
 0001:0003f388       _wsetlocale_get_all        0000000180040388 f   libucrt:wsetlocale.obj
 0001:0003f574       _wsetlocale_nolock         0000000180040574 f   libucrt:wsetlocale.obj
 0001:0003f804       _wsetlocale_set_cat        0000000180040804 f   libucrt:wsetlocale.obj
 0001:0003fb58       parse_bcp47                0000000180040b58 f   libucrt:wsetlocale.obj
 0001:0003fd58       parse_bcp47_code_page      0000000180040d58 f   libucrt:wsetlocale.obj
 0001:0003fda0       parse_bcp47_language       0000000180040da0 f   libucrt:wsetlocale.obj
 0001:0003fe2c       parse_bcp47_region         0000000180040e2c f   libucrt:wsetlocale.obj
 0001:0003ff34       parse_bcp47_script         0000000180040f34 f   libucrt:wsetlocale.obj
 0001:0003ffc4       string_is_alpha            0000000180040fc4 f   libucrt:wsetlocale.obj
 0001:000402f8       _call_matherr              00000001800412f8 f   libucrt:libm_error.obj
 0001:00040360       _exception_enabled         0000000180041360 f   libucrt:libm_error.obj
 0001:0004071c       ?<lambda_invoker_cdecl>@<lambda_795c6bd18aed400428efeb9a5f0e1479>@@CAHPEA_W@Z 000000018004171c f   libucrt:winapi_thunks.obj
 0001:00040744       ??$?RV<lambda_48fc4a32460bb0512d3b13f8499328be>@@AEAV<lambda_6c3dac0a4f3f9cefca9bb494422f9b77>@@V<lambda_0a2f2c9f9a56eb2b08bfa6ff61d331c5>@@@?$__crt_seh_guarded_call@H@@QEAAH$$QEAV<lambda_48fc4a32460bb0512d3b13f8499328be>@@AEAV<lambda_6c3dac0a4f3f9cefca9bb494422f9b77>@@$$QEAV<lambda_0a2f2c9f9a56eb2b08bfa6ff61d331c5>@@@Z 0000000180041744 f   libucrt:winapi_thunks.obj
 0001:000407c0       ?try_get_function@@YAPEAXW4function_id@?A0x391cf84c@@QEBDQEBW4module_id@2@2@Z 00000001800417c0 f   libucrt:winapi_thunks.obj
 0001:00041724       ?initialize_inherited_file_handles_nolock@@YAXXZ 0000000180042724 f   libucrt:ioinit.obj
 0001:00041814       ?initialize_stdio_handles_nolock@@YAXXZ 0000000180042814 f   libucrt:ioinit.obj
 0001:00041d2c       ?fp_format_a@@YAHQEBNPEAD_KQEAD2H_NIQEAU__crt_locale_pointers@@W4__acrt_rounding_mode@@@Z 0000000180042d2c f   libucrt:cvt.obj
 0001:000420ac       ?fp_format_e@@YAHQEBNQEAD_K12H_NIQEAU__crt_locale_pointers@@W4__acrt_rounding_mode@@@Z 00000001800430ac f   libucrt:cvt.obj
 0001:0004219c       ?fp_format_e_internal@@YAHQEAD_KH_NIQEAU_strflt@@2QEAU__crt_locale_pointers@@@Z 000000018004319c f   libucrt:cvt.obj
 0001:00042370       ?fp_format_f_internal@@YAHQEAD_KHQEAU_strflt@@_NQEAU__crt_locale_pointers@@@Z 0000000180043370 f   libucrt:cvt.obj
 0001:000424d8       ?fp_format_g@@YAHQEBNQEAD_K12H_NIW4__acrt_rounding_mode@@QEAU__crt_locale_pointers@@@Z 00000001800434d8 f   libucrt:cvt.obj
 0001:00042620       ?should_round_up@@YA_NQEBN_KFW4__acrt_rounding_mode@@@Z 0000000180043620 f   libucrt:cvt.obj
 0001:00042d68       ??$common_lseek@J@@YAJHJH@Z 0000000180043d68 f   libucrt:lseek.obj
 0001:00042e54       ??$common_lseek@_J@@YA_JH_JH@Z 0000000180043e54 f   libucrt:lseek.obj
 0001:00042f44       ??$common_lseek_nolock@J@@YAJHJH@Z 0000000180043f44 f   libucrt:lseek.obj
 0001:00043038       ??$common_lseek_nolock@_J@@YA_JH_JH@Z 0000000180044038 f   libucrt:lseek.obj
 0001:000430ec       ??$translate_text_mode_nolock@_W@@YAHHQEA_W_K@Z 00000001800440ec f   libucrt:read.obj
 0001:00043334       ?translate_ansi_or_utf8_nolock@@YAHHQEAD_KQEA_W1@Z 0000000180044334 f   libucrt:read.obj
 0001:00043c3c       ?find_or_allocate_unused_stream_nolock@@YA?AV__crt_stdio_stream@@XZ 0000000180044c3c f   libucrt:stream.obj
 0001:00044088       ??$?RV<lambda_751a882b2c74d4b022dec766aa51a29a>@@AEAV<lambda_628dfdc04ba53c8bfc02c9951375f3f5>@@V<lambda_f6c7be5f7998530c34de24c7437d6b54>@@@?$__crt_seh_guarded_call@H@@QEAAH$$QEAV<lambda_751a882b2c74d4b022dec766aa51a29a>@@AEAV<lambda_628dfdc04ba53c8bfc02c9951375f3f5>@@$$QEAV<lambda_f6c7be5f7998530c34de24c7437d6b54>@@@Z 0000000180045088 f   libucrt:close.obj
 0001:00044bcc       ??$common_loctotime_t@_J@@YA_JHHHHHHH@Z 0000000180045bcc f   libucrt:loctotime.obj
 0001:00044e00       ?_mbstowcs_l_helper@@YA_KPEA_WPEBD_KPEAU__crt_locale_pointers@@@Z 0000000180045e00 f   libucrt:mbstowcs.obj
 0001:00045154       ?_wcstombs_l_helper@@YA_KPEADPEB_W_KPEAU__crt_locale_pointers@@@Z 0000000180046154 f   libucrt:wcstombs.obj
 0001:000456a0       ?InternalGetLocaleInfoA@@YAHQEAU__crt_locale_pointers@@QEB_WKQEADH@Z 00000001800466a0 f   libucrt:getlocaleinfoa.obj
 0001:00046508       ?_isindst_nolock@@YAHQEAUtm@@@Z 0000000180047508 f   libucrt:tzset.obj
 0001:000467fc       ?cvtdate@@YAXW4transition_type@?A0x7639d0b4@@W4date_type@2@HHHHHHHHH@Z 00000001800477fc f   libucrt:tzset.obj
 0001:000469f4       ?tzset_env_copy_to_tzname@@YAXQEB_WQEA_WQEAD_K@Z 00000001800479f4 f   libucrt:tzset.obj
 0001:00046ad8       ?tzset_from_environment_nolock@@YAXPEA_W@Z 0000000180047ad8 f   libucrt:tzset.obj
 0001:00046d6c       ?tzset_from_system_nolock@@YAXXZ 0000000180047d6c f   libucrt:tzset.obj
 0001:00046ef4       ?tzset_nolock@@YAXXZ       0000000180047ef4 f   libucrt:tzset.obj
 0001:00046ffc       ?tzset_os_copy_to_tzname@@YAXQEB_WQEA_WQEADI@Z 0000000180047ffc f   libucrt:tzset.obj
 0001:000471e8       ?<lambda_invoker_cdecl>@<lambda_a1ce4c8ae42411fd470c77163914f50e>@@CAHPEBX0@Z 00000001800481e8 f   libucrt:argv_wildcards.obj
 0001:00047388       ??$common_expand_argv_wildcards@D@@YAHQEAPEADQEAPEAPEAD@Z 0000000180048388 f   libucrt:argv_wildcards.obj
 0001:00047594       ??$copy_and_add_argument_to_buffer@D@@YAHQEBD0_KAEAV?$argument_list@D@?A0x5f5c8891@@@Z 0000000180048594 f   libucrt:argv_wildcards.obj
 0001:0004771c       ??$expand_argument_wildcards@D@@YAHQEAD0AEAV?$argument_list@D@?A0x5f5c8891@@@Z 000000018004871c f   libucrt:argv_wildcards.obj
 0001:00047a34       ??$?RV<lambda_efdfa57d1f175319df784efa44bb7b81>@@AEAV<lambda_5f0a4c1567f8adc6734073e5d1e1b35c>@@V<lambda_2e8a7d3640ea6ccb4c2413664c2db6fd>@@@?$__crt_seh_guarded_call@X@@QEAAX$$QEAV<lambda_efdfa57d1f175319df784efa44bb7b81>@@AEAV<lambda_5f0a4c1567f8adc6734073e5d1e1b35c>@@$$QEAV<lambda_2e8a7d3640ea6ccb4c2413664c2db6fd>@@@Z 0000000180048a34 f   libucrt:mbctype.obj
 0001:00047bf0       ?getSystemCP@@YAHH@Z       0000000180048bf0 f   libucrt:mbctype.obj
 0001:00047c70       ?setSBCS@@YAXPEAU__crt_multibyte_data@@@Z 0000000180048c70 f   libucrt:mbctype.obj
 0001:00047d00       ?setSBUpLow@@YAXPEAU__crt_multibyte_data@@@Z 0000000180048d00 f   libucrt:mbctype.obj
 0001:00047ee4       ?setmbcp_internal@@YAHH_NQEAU__acrt_ptd@@QEAPEAU__crt_multibyte_data@@@Z 0000000180048ee4 f   libucrt:mbctype.obj
 0001:000480a4       ?update_thread_multibyte_data_internal@@YAPEAU__crt_multibyte_data@@QEAU__acrt_ptd@@QEAPEAU1@@Z 00000001800490a4 f   libucrt:mbctype.obj
 0001:00048494       ?x_ismbbtype_l@@YAHPEAU__crt_locale_pointers@@IHH@Z 0000000180049494 f   libucrt:ismbbyte.obj
 0001:000486ec       ??$common_set_variable_in_environment_nolock@_W@@YAHQEA_WH@Z 00000001800496ec f   libucrt:setenv.obj
 0001:00048a10       ??$copy_environment@_W@@YAPEAPEA_WQEAPEA_W@Z 0000000180049a10 f   libucrt:setenv.obj
 0001:000491cc       ??$?RV<lambda_a37b2b86f63e897a80ea819b0eb08c01>@@AEAV<lambda_38ce7e780aa69e748d6df282ebc68efe>@@V<lambda_99fb1378e971ab6e7edea83e3a7a83a2>@@@?$__crt_seh_guarded_call@H@@QEAAH$$QEAV<lambda_a37b2b86f63e897a80ea819b0eb08c01>@@AEAV<lambda_38ce7e780aa69e748d6df282ebc68efe>@@$$QEAV<lambda_99fb1378e971ab6e7edea83e3a7a83a2>@@@Z 000000018004a1cc f   libucrt:commit.obj
 0001:000492ec       ?write_double_translated_ansi_nolock@@YA?AUwrite_result@?A0x17268360@@HQEBDI@Z 000000018004a2ec f   libucrt:write.obj
 0001:000497d8       ?write_text_ansi_nolock@@YA?AUwrite_result@?A0x17268360@@HQEBDI@Z 000000018004a7d8 f   libucrt:write.obj
 0001:000498dc       ?write_text_utf16le_nolock@@YA?AUwrite_result@?A0x17268360@@HQEBDI@Z 000000018004a8dc f   libucrt:write.obj
 0001:000499f8       ?write_text_utf8_nolock@@YA?AUwrite_result@?A0x17268360@@HQEBDI@Z 000000018004a9f8 f   libucrt:write.obj
 0001:0004a8cc       ?free_crt_array_internal@@YAXQEAPEBX_K@Z 000000018004b8cc f   libucrt:inittime.obj
 0001:0004a924       ?initialize_lc_time@@YA_NQEAU__crt_lc_time_data@@QEAU__crt_locale_data@@@Z 000000018004b924 f   libucrt:inittime.obj
 0001:0004ae48       GetLocaleNameFromDefault   000000018004be48 f   libucrt:get_qualified_locale.obj
 0001:0004aef0       GetLocaleNameFromLangCountry 000000018004bef0 f   libucrt:get_qualified_locale.obj
 0001:0004afc0       GetLocaleNameFromLanguage  000000018004bfc0 f   libucrt:get_qualified_locale.obj
